

Microchip MPLAB XC8 Assembler V2.31 build 20201012212115 
                                                                                               Fri Feb 12 00:27:00 2021

Microchip MPLAB XC8 C Compiler v2.31 (Free license) build 20201012212115 Og1 
     1                           	processor	16F887
     2                           	pagewidth 120
     3                           	opt	flic
     4                           	psect	cinit,global,class=CODE,merge=1,delta=2
     5                           	psect	bssCOMMON,global,class=COMMON,space=1,delta=1,noexec
     6                           	psect	cstackCOMMON,global,class=COMMON,space=1,delta=1,noexec
     7                           	psect	cstackBANK0,global,class=BANK0,space=1,delta=1,noexec
     8                           	psect	maintext,global,class=CODE,split=1,delta=2
     9                           	psect	text1,local,class=CODE,merge=1,delta=2
    10                           	psect	text2,local,class=CODE,merge=1,delta=2
    11                           	psect	text3,local,class=CODE,merge=1,delta=2
    12                           	psect	text4,local,class=CODE,merge=1,delta=2
    13                           	psect	intentry,global,class=CODE,delta=2
    14                           	psect	text5,local,class=CODE,merge=1,delta=2
    15                           	psect	text6,local,class=CODE,merge=1,delta=2
    16                           	psect	text7,local,class=CODE,merge=1,delta=2
    17                           	psect	config,global,abs,ovrld,class=CONFIG,space=4,delta=2,noexec
    18                           	dabs	1,0x7E,2
    19  0000                     
    20                           ; Version 2.31
    21                           ; Generated 13/10/2020 GMT
    22                           ; 
    23                           ; Copyright © 2020, Microchip Technology Inc. and its subsidiaries ("Microchip")
    24                           ; All rights reserved.
    25                           ; 
    26                           ; This software is developed by Microchip Technology Inc. and its subsidiaries ("Microch
      +                          ip").
    27                           ; 
    28                           ; Redistribution and use in source and binary forms, with or without modification, are
    29                           ; permitted provided that the following conditions are met:
    30                           ; 
    31                           ;     1. Redistributions of source code must retain the above copyright notice, this lis
      +                          t of
    32                           ;        conditions and the following disclaimer.
    33                           ; 
    34                           ;     2. Redistributions in binary form must reproduce the above copyright notice, this 
      +                          list
    35                           ;        of conditions and the following disclaimer in the documentation and/or other
    36                           ;        materials provided with the distribution. Publication is not required when
    37                           ;        this file is used in an embedded application.
    38                           ; 
    39                           ;     3. Microchip's name may not be used to endorse or promote products derived from th
      +                          is
    40                           ;        software without specific prior written permission.
    41                           ; 
    42                           ; THIS SOFTWARE IS PROVIDED BY MICROCHIP "AS IS" AND ANY EXPRESS OR IMPLIED WARRANTIES,
    43                           ; INCLUDING, BUT NOT LIMITED TO, THE IMPLIED WARRANTIES OF MERCHANTABILITY AND FITNESS F
      +                          OR
    44                           ; PURPOSE ARE DISCLAIMED.  IN NO EVENT SHALL MICROCHIP BE LIABLE FOR ANY DIRECT, INDIREC
      +                          T,
    45                           ; INCIDENTAL, SPECIAL, EXEMPLARY, OR CONSEQUENTIAL DAMAGES (INCLUDING BUT NOT LIMITED TO
    46                           ; PROCUREMENT OF SUBSTITUTE GOODS OR SERVICES; LOSS OF USE, DATA OR PROFITS; OR BUSINESS
    47                           ; INTERRUPTION) HOWSOEVER CAUSED AND ON ANY THEORY OF LIABILITY, WHETHER IN CONTRACT, ST
      +                          RICT
    48                           ; LIABILITY, OR TORT (INCLUDING NEGLIGENCE OR OTHERWISE) ARISING IN ANY WAY OUT OF THE U
      +                          SE OF
    49                           ; THIS SOFTWARE, EVEN IF ADVISED OF THE POSSIBILITY OF SUCH DAMAGE.
    50                           ; 
    51                           ; 
    52                           ; Code-generator required, PIC16F887 Definitions
    53                           ; 
    54                           ; SFR Addresses
    55  0000                     	;# 
    56  0001                     	;# 
    57  0002                     	;# 
    58  0003                     	;# 
    59  0004                     	;# 
    60  0005                     	;# 
    61  0006                     	;# 
    62  0007                     	;# 
    63  0008                     	;# 
    64  0009                     	;# 
    65  000A                     	;# 
    66  000B                     	;# 
    67  000C                     	;# 
    68  000D                     	;# 
    69  000E                     	;# 
    70  000E                     	;# 
    71  000F                     	;# 
    72  0010                     	;# 
    73  0011                     	;# 
    74  0012                     	;# 
    75  0013                     	;# 
    76  0014                     	;# 
    77  0015                     	;# 
    78  0015                     	;# 
    79  0016                     	;# 
    80  0017                     	;# 
    81  0018                     	;# 
    82  0019                     	;# 
    83  001A                     	;# 
    84  001B                     	;# 
    85  001B                     	;# 
    86  001C                     	;# 
    87  001D                     	;# 
    88  001E                     	;# 
    89  001F                     	;# 
    90  0081                     	;# 
    91  0085                     	;# 
    92  0086                     	;# 
    93  0087                     	;# 
    94  0088                     	;# 
    95  0089                     	;# 
    96  008C                     	;# 
    97  008D                     	;# 
    98  008E                     	;# 
    99  008F                     	;# 
   100  0090                     	;# 
   101  0091                     	;# 
   102  0092                     	;# 
   103  0093                     	;# 
   104  0093                     	;# 
   105  0093                     	;# 
   106  0094                     	;# 
   107  0095                     	;# 
   108  0096                     	;# 
   109  0097                     	;# 
   110  0098                     	;# 
   111  0099                     	;# 
   112  009A                     	;# 
   113  009B                     	;# 
   114  009C                     	;# 
   115  009D                     	;# 
   116  009E                     	;# 
   117  009F                     	;# 
   118  0105                     	;# 
   119  0107                     	;# 
   120  0108                     	;# 
   121  0109                     	;# 
   122  010C                     	;# 
   123  010C                     	;# 
   124  010D                     	;# 
   125  010E                     	;# 
   126  010F                     	;# 
   127  0185                     	;# 
   128  0187                     	;# 
   129  0188                     	;# 
   130  0189                     	;# 
   131  018C                     	;# 
   132  018D                     	;# 
   133  0000                     	;# 
   134  0001                     	;# 
   135  0002                     	;# 
   136  0003                     	;# 
   137  0004                     	;# 
   138  0005                     	;# 
   139  0006                     	;# 
   140  0007                     	;# 
   141  0008                     	;# 
   142  0009                     	;# 
   143  000A                     	;# 
   144  000B                     	;# 
   145  000C                     	;# 
   146  000D                     	;# 
   147  000E                     	;# 
   148  000E                     	;# 
   149  000F                     	;# 
   150  0010                     	;# 
   151  0011                     	;# 
   152  0012                     	;# 
   153  0013                     	;# 
   154  0014                     	;# 
   155  0015                     	;# 
   156  0015                     	;# 
   157  0016                     	;# 
   158  0017                     	;# 
   159  0018                     	;# 
   160  0019                     	;# 
   161  001A                     	;# 
   162  001B                     	;# 
   163  001B                     	;# 
   164  001C                     	;# 
   165  001D                     	;# 
   166  001E                     	;# 
   167  001F                     	;# 
   168  0081                     	;# 
   169  0085                     	;# 
   170  0086                     	;# 
   171  0087                     	;# 
   172  0088                     	;# 
   173  0089                     	;# 
   174  008C                     	;# 
   175  008D                     	;# 
   176  008E                     	;# 
   177  008F                     	;# 
   178  0090                     	;# 
   179  0091                     	;# 
   180  0092                     	;# 
   181  0093                     	;# 
   182  0093                     	;# 
   183  0093                     	;# 
   184  0094                     	;# 
   185  0095                     	;# 
   186  0096                     	;# 
   187  0097                     	;# 
   188  0098                     	;# 
   189  0099                     	;# 
   190  009A                     	;# 
   191  009B                     	;# 
   192  009C                     	;# 
   193  009D                     	;# 
   194  009E                     	;# 
   195  009F                     	;# 
   196  0105                     	;# 
   197  0107                     	;# 
   198  0108                     	;# 
   199  0109                     	;# 
   200  010C                     	;# 
   201  010C                     	;# 
   202  010D                     	;# 
   203  010E                     	;# 
   204  010F                     	;# 
   205  0185                     	;# 
   206  0187                     	;# 
   207  0188                     	;# 
   208  0189                     	;# 
   209  018C                     	;# 
   210  018D                     	;# 
   211  0000                     	;# 
   212  0001                     	;# 
   213  0002                     	;# 
   214  0003                     	;# 
   215  0004                     	;# 
   216  0005                     	;# 
   217  0006                     	;# 
   218  0007                     	;# 
   219  0008                     	;# 
   220  0009                     	;# 
   221  000A                     	;# 
   222  000B                     	;# 
   223  000C                     	;# 
   224  000D                     	;# 
   225  000E                     	;# 
   226  000E                     	;# 
   227  000F                     	;# 
   228  0010                     	;# 
   229  0011                     	;# 
   230  0012                     	;# 
   231  0013                     	;# 
   232  0014                     	;# 
   233  0015                     	;# 
   234  0015                     	;# 
   235  0016                     	;# 
   236  0017                     	;# 
   237  0018                     	;# 
   238  0019                     	;# 
   239  001A                     	;# 
   240  001B                     	;# 
   241  001B                     	;# 
   242  001C                     	;# 
   243  001D                     	;# 
   244  001E                     	;# 
   245  001F                     	;# 
   246  0081                     	;# 
   247  0085                     	;# 
   248  0086                     	;# 
   249  0087                     	;# 
   250  0088                     	;# 
   251  0089                     	;# 
   252  008C                     	;# 
   253  008D                     	;# 
   254  008E                     	;# 
   255  008F                     	;# 
   256  0090                     	;# 
   257  0091                     	;# 
   258  0092                     	;# 
   259  0093                     	;# 
   260  0093                     	;# 
   261  0093                     	;# 
   262  0094                     	;# 
   263  0095                     	;# 
   264  0096                     	;# 
   265  0097                     	;# 
   266  0098                     	;# 
   267  0099                     	;# 
   268  009A                     	;# 
   269  009B                     	;# 
   270  009C                     	;# 
   271  009D                     	;# 
   272  009E                     	;# 
   273  009F                     	;# 
   274  0105                     	;# 
   275  0107                     	;# 
   276  0108                     	;# 
   277  0109                     	;# 
   278  010C                     	;# 
   279  010C                     	;# 
   280  010D                     	;# 
   281  010E                     	;# 
   282  010F                     	;# 
   283  0185                     	;# 
   284  0187                     	;# 
   285  0188                     	;# 
   286  0189                     	;# 
   287  018C                     	;# 
   288  018D                     	;# 
   289  0000                     	;# 
   290  0001                     	;# 
   291  0002                     	;# 
   292  0003                     	;# 
   293  0004                     	;# 
   294  0005                     	;# 
   295  0006                     	;# 
   296  0007                     	;# 
   297  0008                     	;# 
   298  0009                     	;# 
   299  000A                     	;# 
   300  000B                     	;# 
   301  000C                     	;# 
   302  000D                     	;# 
   303  000E                     	;# 
   304  000E                     	;# 
   305  000F                     	;# 
   306  0010                     	;# 
   307  0011                     	;# 
   308  0012                     	;# 
   309  0013                     	;# 
   310  0014                     	;# 
   311  0015                     	;# 
   312  0015                     	;# 
   313  0016                     	;# 
   314  0017                     	;# 
   315  0018                     	;# 
   316  0019                     	;# 
   317  001A                     	;# 
   318  001B                     	;# 
   319  001B                     	;# 
   320  001C                     	;# 
   321  001D                     	;# 
   322  001E                     	;# 
   323  001F                     	;# 
   324  0081                     	;# 
   325  0085                     	;# 
   326  0086                     	;# 
   327  0087                     	;# 
   328  0088                     	;# 
   329  0089                     	;# 
   330  008C                     	;# 
   331  008D                     	;# 
   332  008E                     	;# 
   333  008F                     	;# 
   334  0090                     	;# 
   335  0091                     	;# 
   336  0092                     	;# 
   337  0093                     	;# 
   338  0093                     	;# 
   339  0093                     	;# 
   340  0094                     	;# 
   341  0095                     	;# 
   342  0096                     	;# 
   343  0097                     	;# 
   344  0098                     	;# 
   345  0099                     	;# 
   346  009A                     	;# 
   347  009B                     	;# 
   348  009C                     	;# 
   349  009D                     	;# 
   350  009E                     	;# 
   351  009F                     	;# 
   352  0105                     	;# 
   353  0107                     	;# 
   354  0108                     	;# 
   355  0109                     	;# 
   356  010C                     	;# 
   357  010C                     	;# 
   358  010D                     	;# 
   359  010E                     	;# 
   360  010F                     	;# 
   361  0185                     	;# 
   362  0187                     	;# 
   363  0188                     	;# 
   364  0189                     	;# 
   365  018C                     	;# 
   366  018D                     	;# 
   367  0013                     _SSPBUF	set	19
   368  0014                     _SSPCON	set	20
   369  0009                     _PORTE	set	9
   370  0007                     _PORTC	set	7
   371  0006                     _PORTB	set	6
   372  0005                     _PORTA	set	5
   373  000C                     _PIR1bits	set	12
   374  0008                     _PORTD	set	8
   375  0006                     _PORTBbits	set	6
   376  000B                     _INTCONbits	set	11
   377  0094                     _SSPSTATbits	set	148
   378  0094                     _SSPSTAT	set	148
   379  008F                     _OSCCONbits	set	143
   380  008C                     _PIE1bits	set	140
   381  0096                     _IOCB	set	150
   382  0081                     _OPTION_REG	set	129
   383  0095                     _WPUB	set	149
   384  0089                     _TRISE	set	137
   385  0088                     _TRISD	set	136
   386  0087                     _TRISC	set	135
   387  0086                     _TRISB	set	134
   388  0085                     _TRISA	set	133
   389  043B                     _TRISC3	set	1083
   390  043D                     _TRISC5	set	1085
   391  0189                     _ANSELH	set	393
   392  0188                     _ANSEL	set	392
   393                           
   394                           	psect	cinit
   395  000F                     start_initialization:	
   396                           ; #config settings
   397                           
   398  000F                     __initialization:
   399                           
   400                           ; Clear objects allocated to COMMON
   401  000F  01F0               	clrf	__pbssCOMMON& (0+127)
   402  0010  01F1               	clrf	(__pbssCOMMON+1)& (0+127)
   403  0011  01F2               	clrf	(__pbssCOMMON+2)& (0+127)
   404  0012  01F3               	clrf	(__pbssCOMMON+3)& (0+127)
   405  0013  01F4               	clrf	(__pbssCOMMON+4)& (0+127)
   406  0014                     end_of_initialization:	
   407                           ;End of C runtime variable initialization code
   408                           
   409  0014                     __end_of__initialization:
   410  0014  0183               	clrf	3
   411  0015  120A  118A  2911   	ljmp	_main	;jump to C main() function
   412                           
   413                           	psect	bssCOMMON
   414  0070                     __pbssCOMMON:
   415  0070                     _ESCRITURA_REVISION:
   416  0070                     	ds	1
   417  0071                     _CONTADOR:
   418  0071                     	ds	1
   419  0072                     _TOGGLE:
   420  0072                     	ds	1
   421  0073                     _FLAGI:
   422  0073                     	ds	1
   423  0074                     _FLAGD:
   424  0074                     	ds	1
   425                           
   426                           	psect	cstackCOMMON
   427  0075                     __pcstackCOMMON:
   428  0075                     ?_spiWrite:
   429  0075                     ??_spiWrite:	
   430                           ; 1 bytes @ 0x0
   431                           
   432  0075                     ?_spiRead:	
   433                           ; 1 bytes @ 0x0
   434                           
   435  0075                     ??_spiRead:	
   436                           ; 1 bytes @ 0x0
   437                           
   438  0075                     ?_Setup:	
   439                           ; 1 bytes @ 0x0
   440                           
   441  0075                     ?_initOsc:	
   442                           ; 1 bytes @ 0x0
   443                           
   444  0075                     ?_isr:	
   445                           ; 1 bytes @ 0x0
   446                           
   447  0075                     ?_main:	
   448                           ; 1 bytes @ 0x0
   449                           
   450  0075                     ?_spiReceiveWait:	
   451                           ; 1 bytes @ 0x0
   452                           
   453  0075                     ??_spiReceiveWait:	
   454                           ; 1 bytes @ 0x0
   455                           
   456  0075                     spiWrite@dat:	
   457                           ; 1 bytes @ 0x0
   458                           
   459                           
   460                           ; 1 bytes @ 0x0
   461  0075                     	ds	1
   462  0076                     ??_isr:
   463                           
   464                           ; 1 bytes @ 0x1
   465  0076                     	ds	3
   466  0079                     ??_spiInit:
   467  0079                     initOsc@IRCF:	
   468                           ; 1 bytes @ 0x4
   469                           
   470  0079                     spiInit@sType:	
   471                           ; 1 bytes @ 0x4
   472                           
   473                           
   474                           ; 1 bytes @ 0x4
   475  0079                     	ds	1
   476  007A                     ??_Setup:
   477  007A                     ??_main:	
   478                           ; 1 bytes @ 0x5
   479                           
   480                           
   481                           	psect	cstackBANK0
   482  0020                     __pcstackBANK0:	
   483                           ; 1 bytes @ 0x5
   484                           
   485  0020                     ??_initOsc:
   486  0020                     ?_spiInit:	
   487                           ; 1 bytes @ 0x0
   488                           
   489  0020                     spiInit@sDataSample:	
   490                           ; 1 bytes @ 0x0
   491                           
   492                           
   493                           ; 1 bytes @ 0x0
   494  0020                     	ds	1
   495  0021                     spiInit@sClockIdle:
   496                           
   497                           ; 1 bytes @ 0x1
   498  0021                     	ds	1
   499  0022                     spiInit@sTransmitEdge:
   500                           
   501                           ; 1 bytes @ 0x2
   502  0022                     	ds	1
   503                           
   504                           	psect	maintext
   505  0111                     __pmaintext:	
   506 ;;
   507 ;;Main: autosize = 0, tempsize = 0, incstack = 0, save=0
   508 ;;
   509 ;; *************** function _main *****************
   510 ;; Defined at:
   511 ;;		line 95 in file "E:/UVG/Semestre 5/Digital2/Proyecto1/Slave2_Counter.X/Code_Counter.c"
   512 ;; Parameters:    Size  Location     Type
   513 ;;		None
   514 ;; Auto vars:     Size  Location     Type
   515 ;;		None
   516 ;; Return value:  Size  Location     Type
   517 ;;                  1    wreg      void 
   518 ;; Registers used:
   519 ;;		wreg, fsr0l, fsr0h, status,2, status,0, pclath, cstack
   520 ;; Tracked objects:
   521 ;;		On entry : B00/0
   522 ;;		On exit  : 0/0
   523 ;;		Unchanged: 0/0
   524 ;; Data sizes:     COMMON   BANK0   BANK1   BANK3   BANK2
   525 ;;      Params:         0       0       0       0       0
   526 ;;      Locals:         0       0       0       0       0
   527 ;;      Temps:          0       0       0       0       0
   528 ;;      Totals:         0       0       0       0       0
   529 ;;Total ram usage:        0 bytes
   530 ;; Hardware stack levels required when called:    5
   531 ;; This function calls:
   532 ;;		_Setup
   533 ;; This function is called by:
   534 ;;		Startup code after reset
   535 ;; This function uses a non-reentrant model
   536 ;;
   537                           
   538                           
   539                           ;psect for function _main
   540  0111                     _main:
   541  0111                     l962:	
   542                           ;incstack = 0
   543                           ; Regs used in _main: [wreg-fsr0h+status,2+status,0+pclath+cstack]
   544                           
   545                           
   546                           ;E:/UVG/Semestre 5/Digital2/Proyecto1/Slave2_Counter.X/Code_Counter.c: 96:     Setup();
   547  0111  120A  118A  20BD  120A  118A  	fcall	_Setup
   548  0116                     l76:	
   549                           ;E:/UVG/Semestre 5/Digital2/Proyecto1/Slave2_Counter.X/Code_Counter.c: 97:     while(1){
   550                           
   551  0116                     l77:	
   552                           ;E:/UVG/Semestre 5/Digital2/Proyecto1/Slave2_Counter.X/Code_Counter.c: 98:     }
   553                           
   554  0116  2916               	goto	l76
   555  0117  120A  118A  280C   	ljmp	start
   556  011A                     __end_of_main:
   557                           
   558                           	psect	text1
   559  00BD                     __ptext1:	
   560 ;; *************** function _Setup *****************
   561 ;; Defined at:
   562 ;;		line 104 in file "E:/UVG/Semestre 5/Digital2/Proyecto1/Slave2_Counter.X/Code_Counter.c"
   563 ;; Parameters:    Size  Location     Type
   564 ;;		None
   565 ;; Auto vars:     Size  Location     Type
   566 ;;		None
   567 ;; Return value:  Size  Location     Type
   568 ;;                  1    wreg      void 
   569 ;; Registers used:
   570 ;;		wreg, fsr0l, fsr0h, status,2, status,0, pclath, cstack
   571 ;; Tracked objects:
   572 ;;		On entry : 0/0
   573 ;;		On exit  : 0/0
   574 ;;		Unchanged: 0/0
   575 ;; Data sizes:     COMMON   BANK0   BANK1   BANK3   BANK2
   576 ;;      Params:         0       0       0       0       0
   577 ;;      Locals:         0       0       0       0       0
   578 ;;      Temps:          0       0       0       0       0
   579 ;;      Totals:         0       0       0       0       0
   580 ;;Total ram usage:        0 bytes
   581 ;; Hardware stack levels used:    1
   582 ;; Hardware stack levels required when called:    4
   583 ;; This function calls:
   584 ;;		_initOsc
   585 ;;		_spiInit
   586 ;; This function is called by:
   587 ;;		_main
   588 ;; This function uses a non-reentrant model
   589 ;;
   590                           
   591                           
   592                           ;psect for function _Setup
   593  00BD                     _Setup:
   594  00BD                     l930:	
   595                           ;incstack = 0
   596                           ; Regs used in _Setup: [wreg-fsr0h+status,2+status,0+pclath+cstack]
   597                           
   598                           
   599                           ;E:/UVG/Semestre 5/Digital2/Proyecto1/Slave2_Counter.X/Code_Counter.c: 106:     PORTA = 
      +                          0;
   600  00BD  1283               	bcf	3,5	;RP0=0, select bank0
   601  00BE  1303               	bcf	3,6	;RP1=0, select bank0
   602  00BF  0185               	clrf	5	;volatile
   603                           
   604                           ;E:/UVG/Semestre 5/Digital2/Proyecto1/Slave2_Counter.X/Code_Counter.c: 107:     PORTB = 
      +                          0;
   605  00C0  0186               	clrf	6	;volatile
   606                           
   607                           ;E:/UVG/Semestre 5/Digital2/Proyecto1/Slave2_Counter.X/Code_Counter.c: 108:     PORTC = 
      +                          0;
   608  00C1  0187               	clrf	7	;volatile
   609                           
   610                           ;E:/UVG/Semestre 5/Digital2/Proyecto1/Slave2_Counter.X/Code_Counter.c: 109:     PORTD = 
      +                          0;
   611  00C2  0188               	clrf	8	;volatile
   612                           
   613                           ;E:/UVG/Semestre 5/Digital2/Proyecto1/Slave2_Counter.X/Code_Counter.c: 110:     PORTE = 
      +                          0;
   614  00C3  0189               	clrf	9	;volatile
   615                           
   616                           ;E:/UVG/Semestre 5/Digital2/Proyecto1/Slave2_Counter.X/Code_Counter.c: 112:     ANSEL = 
      +                          0;
   617  00C4  1683               	bsf	3,5	;RP0=1, select bank3
   618  00C5  1703               	bsf	3,6	;RP1=1, select bank3
   619  00C6  0188               	clrf	8	;volatile
   620                           
   621                           ;E:/UVG/Semestre 5/Digital2/Proyecto1/Slave2_Counter.X/Code_Counter.c: 113:     ANSELH =
      +                           0;
   622  00C7  0189               	clrf	9	;volatile
   623  00C8                     l932:
   624                           
   625                           ;E:/UVG/Semestre 5/Digital2/Proyecto1/Slave2_Counter.X/Code_Counter.c: 115:     TRISA = 
      +                          0b00100000;
   626  00C8  3020               	movlw	32
   627  00C9  1683               	bsf	3,5	;RP0=1, select bank1
   628  00CA  1303               	bcf	3,6	;RP1=0, select bank1
   629  00CB  0085               	movwf	5	;volatile
   630  00CC                     l934:
   631                           
   632                           ;E:/UVG/Semestre 5/Digital2/Proyecto1/Slave2_Counter.X/Code_Counter.c: 116:     TRISB = 
      +                          0b00000011;
   633  00CC  3003               	movlw	3
   634  00CD  0086               	movwf	6	;volatile
   635  00CE                     l936:
   636                           
   637                           ;E:/UVG/Semestre 5/Digital2/Proyecto1/Slave2_Counter.X/Code_Counter.c: 117:     TRISC = 
      +                          0b00011000;
   638  00CE  3018               	movlw	24
   639  00CF  0087               	movwf	7	;volatile
   640  00D0                     l938:
   641                           
   642                           ;E:/UVG/Semestre 5/Digital2/Proyecto1/Slave2_Counter.X/Code_Counter.c: 118:     TRISD = 
      +                          0;
   643  00D0  0188               	clrf	8	;volatile
   644  00D1                     l940:
   645                           
   646                           ;E:/UVG/Semestre 5/Digital2/Proyecto1/Slave2_Counter.X/Code_Counter.c: 119:     TRISE = 
      +                          0;
   647  00D1  0189               	clrf	9	;volatile
   648  00D2                     l942:
   649                           
   650                           ;E:/UVG/Semestre 5/Digital2/Proyecto1/Slave2_Counter.X/Code_Counter.c: 121:     WPUB = 0
      +                          b00000011;
   651  00D2  3003               	movlw	3
   652  00D3  0095               	movwf	21	;volatile
   653  00D4                     l944:
   654                           
   655                           ;E:/UVG/Semestre 5/Digital2/Proyecto1/Slave2_Counter.X/Code_Counter.c: 122:     OPTION_R
      +                          EG = 0b01010111;
   656  00D4  3057               	movlw	87
   657  00D5  0081               	movwf	1	;volatile
   658  00D6                     l946:
   659                           
   660                           ;E:/UVG/Semestre 5/Digital2/Proyecto1/Slave2_Counter.X/Code_Counter.c: 125:     initOsc(
      +                          6);
   661  00D6  3006               	movlw	6
   662  00D7  120A  118A  2018  120A  118A  	fcall	_initOsc
   663  00DC                     l948:
   664                           
   665                           ;E:/UVG/Semestre 5/Digital2/Proyecto1/Slave2_Counter.X/Code_Counter.c: 127:     IOCB = 0
      +                          b00000011;
   666  00DC  3003               	movlw	3
   667  00DD  1683               	bsf	3,5	;RP0=1, select bank1
   668  00DE  1303               	bcf	3,6	;RP1=0, select bank1
   669  00DF  0096               	movwf	22	;volatile
   670  00E0                     l950:
   671                           
   672                           ;E:/UVG/Semestre 5/Digital2/Proyecto1/Slave2_Counter.X/Code_Counter.c: 129:     spiInit(
      +                          SPI_SLAVE_SS_EN, SPI_DATA_SAMPLE_MIDDLE, SPI_CLOCK_IDLE_LOW, SPI_IDLE_2_ACTIVE);
   673  00E0  1283               	bcf	3,5	;RP0=0, select bank0
   674  00E1  1303               	bcf	3,6	;RP1=0, select bank0
   675  00E2  01A0               	clrf	spiInit@sDataSample
   676  00E3  01A1               	clrf	spiInit@sClockIdle
   677  00E4  01A2               	clrf	spiInit@sTransmitEdge
   678  00E5  3024               	movlw	36
   679  00E6  120A  118A  20F3  120A  118A  	fcall	_spiInit
   680  00EB                     l952:
   681                           
   682                           ;E:/UVG/Semestre 5/Digital2/Proyecto1/Slave2_Counter.X/Code_Counter.c: 132:     INTCONbi
      +                          ts.GIE = 1;
   683  00EB  178B               	bsf	11,7	;volatile
   684  00EC                     l954:
   685                           
   686                           ;E:/UVG/Semestre 5/Digital2/Proyecto1/Slave2_Counter.X/Code_Counter.c: 133:     INTCONbi
      +                          ts.PEIE = 1;
   687  00EC  170B               	bsf	11,6	;volatile
   688  00ED                     l956:
   689                           
   690                           ;E:/UVG/Semestre 5/Digital2/Proyecto1/Slave2_Counter.X/Code_Counter.c: 134:     INTCONbi
      +                          ts.RBIE = 1;
   691  00ED  158B               	bsf	11,3	;volatile
   692  00EE                     l958:
   693                           
   694                           ;E:/UVG/Semestre 5/Digital2/Proyecto1/Slave2_Counter.X/Code_Counter.c: 135:     INTCONbi
      +                          ts.RBIF = 0;
   695  00EE  100B               	bcf	11,0	;volatile
   696  00EF                     l960:
   697                           
   698                           ;E:/UVG/Semestre 5/Digital2/Proyecto1/Slave2_Counter.X/Code_Counter.c: 136:     PIE1bits
      +                          .SSPIE = 1;
   699  00EF  1683               	bsf	3,5	;RP0=1, select bank1
   700  00F0  1303               	bcf	3,6	;RP1=0, select bank1
   701  00F1  158C               	bsf	12,3	;volatile
   702  00F2                     l82:
   703  00F2  0008               	return
   704  00F3                     __end_of_Setup:
   705                           
   706                           	psect	text2
   707  00F3                     __ptext2:	
   708 ;; *************** function _spiInit *****************
   709 ;; Defined at:
   710 ;;		line 12 in file "E:/UVG/Semestre 5/Digital2/Proyecto1/Slave2_Counter.X/MSSP.c"
   711 ;; Parameters:    Size  Location     Type
   712 ;;  sType           1    wreg     enum E1292
   713 ;;  sDataSample     1    0[BANK0 ] enum E1300
   714 ;;  sClockIdle      1    1[BANK0 ] enum E1304
   715 ;;  sTransmitEdg    1    2[BANK0 ] enum E1308
   716 ;; Auto vars:     Size  Location     Type
   717 ;;  sType           1    4[COMMON] enum E1292
   718 ;; Return value:  Size  Location     Type
   719 ;;                  1    wreg      void 
   720 ;; Registers used:
   721 ;;		wreg, status,2, status,0
   722 ;; Tracked objects:
   723 ;;		On entry : 0/0
   724 ;;		On exit  : 0/0
   725 ;;		Unchanged: 0/0
   726 ;; Data sizes:     COMMON   BANK0   BANK1   BANK3   BANK2
   727 ;;      Params:         0       3       0       0       0
   728 ;;      Locals:         1       0       0       0       0
   729 ;;      Temps:          0       0       0       0       0
   730 ;;      Totals:         1       3       0       0       0
   731 ;;Total ram usage:        4 bytes
   732 ;; Hardware stack levels used:    1
   733 ;; Hardware stack levels required when called:    3
   734 ;; This function calls:
   735 ;;		Nothing
   736 ;; This function is called by:
   737 ;;		_Setup
   738 ;; This function uses a non-reentrant model
   739 ;;
   740                           
   741                           
   742                           ;psect for function _spiInit
   743  00F3                     _spiInit:
   744                           
   745                           ;incstack = 0
   746                           ; Regs used in _spiInit: [wreg+status,2+status,0]
   747                           ;spiInit@sType stored from wreg
   748  00F3  00F9               	movwf	spiInit@sType
   749  00F4                     l920:
   750                           
   751                           ;E:/UVG/Semestre 5/Digital2/Proyecto1/Slave2_Counter.X/MSSP.c: 13:     TRISC5 = 0;
   752  00F4  1683               	bsf	3,5	;RP0=1, select bank1
   753  00F5  1303               	bcf	3,6	;RP1=0, select bank1
   754  00F6  1287               	bcf	7,5	;volatile
   755                           
   756                           ;E:/UVG/Semestre 5/Digital2/Proyecto1/Slave2_Counter.X/MSSP.c: 14:     if(sType & 0b0000
      +                          0100)
   757  00F7  1D79               	btfss	spiInit@sType,2
   758  00F8  28FA               	goto	u101
   759  00F9  28FB               	goto	u100
   760  00FA                     u101:
   761  00FA  2903               	goto	l926
   762  00FB                     u100:
   763  00FB                     l922:
   764                           
   765                           ;E:/UVG/Semestre 5/Digital2/Proyecto1/Slave2_Counter.X/MSSP.c: 15:     {;E:/UVG/Semestre
      +                           5/Digital2/Proyecto1/Slave2_Counter.X/MSSP.c: 16:         SSPSTAT = sTransmitEdge;
   766  00FB  1283               	bcf	3,5	;RP0=0, select bank0
   767  00FC  1303               	bcf	3,6	;RP1=0, select bank0
   768  00FD  0822               	movf	spiInit@sTransmitEdge,w
   769  00FE  1683               	bsf	3,5	;RP0=1, select bank1
   770  00FF  1303               	bcf	3,6	;RP1=0, select bank1
   771  0100  0094               	movwf	20	;volatile
   772  0101                     l924:
   773                           
   774                           ;E:/UVG/Semestre 5/Digital2/Proyecto1/Slave2_Counter.X/MSSP.c: 17:         TRISC3 = 1;
   775  0101  1587               	bsf	7,3	;volatile
   776                           
   777                           ;E:/UVG/Semestre 5/Digital2/Proyecto1/Slave2_Counter.X/MSSP.c: 18:     }
   778  0102  290B               	goto	l114
   779  0103                     l926:
   780                           
   781                           ;E:/UVG/Semestre 5/Digital2/Proyecto1/Slave2_Counter.X/MSSP.c: 20:     {;E:/UVG/Semestre
      +                           5/Digital2/Proyecto1/Slave2_Counter.X/MSSP.c: 21:         SSPSTAT = sDataSample | sTran
      +                          smitEdge;
   782  0103  1283               	bcf	3,5	;RP0=0, select bank0
   783  0104  1303               	bcf	3,6	;RP1=0, select bank0
   784  0105  0820               	movf	spiInit@sDataSample,w
   785  0106  0422               	iorwf	spiInit@sTransmitEdge,w
   786  0107  1683               	bsf	3,5	;RP0=1, select bank1
   787  0108  1303               	bcf	3,6	;RP1=0, select bank1
   788  0109  0094               	movwf	20	;volatile
   789  010A                     l928:
   790                           
   791                           ;E:/UVG/Semestre 5/Digital2/Proyecto1/Slave2_Counter.X/MSSP.c: 22:         TRISC3 = 0;
   792  010A  1187               	bcf	7,3	;volatile
   793  010B                     l114:	
   794                           ;E:/UVG/Semestre 5/Digital2/Proyecto1/Slave2_Counter.X/MSSP.c: 23:     }
   795                           
   796                           
   797                           ;E:/UVG/Semestre 5/Digital2/Proyecto1/Slave2_Counter.X/MSSP.c: 25:     SSPCON = sType | 
      +                          sClockIdle;
   798  010B  0879               	movf	spiInit@sType,w
   799  010C  1283               	bcf	3,5	;RP0=0, select bank0
   800  010D  1303               	bcf	3,6	;RP1=0, select bank0
   801  010E  0421               	iorwf	spiInit@sClockIdle,w
   802  010F  0094               	movwf	20	;volatile
   803  0110                     l115:
   804  0110  0008               	return
   805  0111                     __end_of_spiInit:
   806                           
   807                           	psect	text3
   808  0018                     __ptext3:	
   809 ;; *************** function _initOsc *****************
   810 ;; Defined at:
   811 ;;		line 6 in file "E:/UVG/Semestre 5/Digital2/Proyecto1/Slave2_Counter.X/Oscilador.c"
   812 ;; Parameters:    Size  Location     Type
   813 ;;  IRCF            1    wreg     unsigned char 
   814 ;; Auto vars:     Size  Location     Type
   815 ;;  IRCF            1    4[COMMON] unsigned char 
   816 ;; Return value:  Size  Location     Type
   817 ;;                  1    wreg      void 
   818 ;; Registers used:
   819 ;;		wreg, fsr0l, fsr0h, status,2, status,0
   820 ;; Tracked objects:
   821 ;;		On entry : 0/0
   822 ;;		On exit  : 0/0
   823 ;;		Unchanged: 0/0
   824 ;; Data sizes:     COMMON   BANK0   BANK1   BANK3   BANK2
   825 ;;      Params:         0       0       0       0       0
   826 ;;      Locals:         1       0       0       0       0
   827 ;;      Temps:          0       2       0       0       0
   828 ;;      Totals:         1       2       0       0       0
   829 ;;Total ram usage:        3 bytes
   830 ;; Hardware stack levels used:    1
   831 ;; Hardware stack levels required when called:    3
   832 ;; This function calls:
   833 ;;		Nothing
   834 ;; This function is called by:
   835 ;;		_Setup
   836 ;; This function uses a non-reentrant model
   837 ;;
   838                           
   839                           
   840                           ;psect for function _initOsc
   841  0018                     _initOsc:
   842                           
   843                           ;incstack = 0
   844                           ; Regs used in _initOsc: [wreg-fsr0h+status,2+status,0]
   845                           ;initOsc@IRCF stored from wreg
   846  0018  00F9               	movwf	initOsc@IRCF
   847  0019                     l910:
   848                           
   849                           ;E:/UVG/Semestre 5/Digital2/Proyecto1/Slave2_Counter.X/Oscilador.c: 8:     switch(IRCF){
   850  0019  2850               	goto	l914
   851  001A                     l88:	
   852                           ;E:/UVG/Semestre 5/Digital2/Proyecto1/Slave2_Counter.X/Oscilador.c: 9:         case 0:
   853                           
   854                           
   855                           ;E:/UVG/Semestre 5/Digital2/Proyecto1/Slave2_Counter.X/Oscilador.c: 10:             OSCC
      +                          ONbits.IRCF2 = 0;
   856  001A  1683               	bsf	3,5	;RP0=1, select bank1
   857  001B  1303               	bcf	3,6	;RP1=0, select bank1
   858  001C  130F               	bcf	15,6	;volatile
   859                           
   860                           ;E:/UVG/Semestre 5/Digital2/Proyecto1/Slave2_Counter.X/Oscilador.c: 11:             OSCC
      +                          ONbits.IRCF1 = 0;
   861  001D  128F               	bcf	15,5	;volatile
   862                           
   863                           ;E:/UVG/Semestre 5/Digital2/Proyecto1/Slave2_Counter.X/Oscilador.c: 12:             OSCC
      +                          ONbits.IRCF0 = 0;
   864  001E  120F               	bcf	15,4	;volatile
   865                           
   866                           ;E:/UVG/Semestre 5/Digital2/Proyecto1/Slave2_Counter.X/Oscilador.c: 13:             brea
      +                          k;
   867  001F  2874               	goto	l89
   868  0020                     l90:	
   869                           ;E:/UVG/Semestre 5/Digital2/Proyecto1/Slave2_Counter.X/Oscilador.c: 14:         case 1:
   870                           
   871                           
   872                           ;E:/UVG/Semestre 5/Digital2/Proyecto1/Slave2_Counter.X/Oscilador.c: 15:             OSCC
      +                          ONbits.IRCF2 = 0;
   873  0020  1683               	bsf	3,5	;RP0=1, select bank1
   874  0021  1303               	bcf	3,6	;RP1=0, select bank1
   875  0022  130F               	bcf	15,6	;volatile
   876                           
   877                           ;E:/UVG/Semestre 5/Digital2/Proyecto1/Slave2_Counter.X/Oscilador.c: 16:             OSCC
      +                          ONbits.IRCF1 = 0;
   878  0023  128F               	bcf	15,5	;volatile
   879                           
   880                           ;E:/UVG/Semestre 5/Digital2/Proyecto1/Slave2_Counter.X/Oscilador.c: 17:             OSCC
      +                          ONbits.IRCF0 = 1;
   881  0024  160F               	bsf	15,4	;volatile
   882                           
   883                           ;E:/UVG/Semestre 5/Digital2/Proyecto1/Slave2_Counter.X/Oscilador.c: 18:             brea
      +                          k;
   884  0025  2874               	goto	l89
   885  0026                     l91:	
   886                           ;E:/UVG/Semestre 5/Digital2/Proyecto1/Slave2_Counter.X/Oscilador.c: 19:         case 2:
   887                           
   888                           
   889                           ;E:/UVG/Semestre 5/Digital2/Proyecto1/Slave2_Counter.X/Oscilador.c: 20:             OSCC
      +                          ONbits.IRCF2 = 0;
   890  0026  1683               	bsf	3,5	;RP0=1, select bank1
   891  0027  1303               	bcf	3,6	;RP1=0, select bank1
   892  0028  130F               	bcf	15,6	;volatile
   893                           
   894                           ;E:/UVG/Semestre 5/Digital2/Proyecto1/Slave2_Counter.X/Oscilador.c: 21:             OSCC
      +                          ONbits.IRCF1 = 1;
   895  0029  168F               	bsf	15,5	;volatile
   896                           
   897                           ;E:/UVG/Semestre 5/Digital2/Proyecto1/Slave2_Counter.X/Oscilador.c: 22:             OSCC
      +                          ONbits.IRCF0 = 0;
   898  002A  120F               	bcf	15,4	;volatile
   899                           
   900                           ;E:/UVG/Semestre 5/Digital2/Proyecto1/Slave2_Counter.X/Oscilador.c: 23:             brea
      +                          k;
   901  002B  2874               	goto	l89
   902  002C                     l92:	
   903                           ;E:/UVG/Semestre 5/Digital2/Proyecto1/Slave2_Counter.X/Oscilador.c: 24:         case 3:
   904                           
   905                           
   906                           ;E:/UVG/Semestre 5/Digital2/Proyecto1/Slave2_Counter.X/Oscilador.c: 25:             OSCC
      +                          ONbits.IRCF2 = 0;
   907  002C  1683               	bsf	3,5	;RP0=1, select bank1
   908  002D  1303               	bcf	3,6	;RP1=0, select bank1
   909  002E  130F               	bcf	15,6	;volatile
   910                           
   911                           ;E:/UVG/Semestre 5/Digital2/Proyecto1/Slave2_Counter.X/Oscilador.c: 26:             OSCC
      +                          ONbits.IRCF1 = 1;
   912  002F  168F               	bsf	15,5	;volatile
   913                           
   914                           ;E:/UVG/Semestre 5/Digital2/Proyecto1/Slave2_Counter.X/Oscilador.c: 27:             OSCC
      +                          ONbits.IRCF0 = 1;
   915  0030  160F               	bsf	15,4	;volatile
   916                           
   917                           ;E:/UVG/Semestre 5/Digital2/Proyecto1/Slave2_Counter.X/Oscilador.c: 28:             brea
      +                          k;
   918  0031  2874               	goto	l89
   919  0032                     l93:	
   920                           ;E:/UVG/Semestre 5/Digital2/Proyecto1/Slave2_Counter.X/Oscilador.c: 29:         case 4:
   921                           
   922                           
   923                           ;E:/UVG/Semestre 5/Digital2/Proyecto1/Slave2_Counter.X/Oscilador.c: 30:             OSCC
      +                          ONbits.IRCF2 = 1;
   924  0032  1683               	bsf	3,5	;RP0=1, select bank1
   925  0033  1303               	bcf	3,6	;RP1=0, select bank1
   926  0034  170F               	bsf	15,6	;volatile
   927                           
   928                           ;E:/UVG/Semestre 5/Digital2/Proyecto1/Slave2_Counter.X/Oscilador.c: 31:             OSCC
      +                          ONbits.IRCF1 = 0;
   929  0035  128F               	bcf	15,5	;volatile
   930                           
   931                           ;E:/UVG/Semestre 5/Digital2/Proyecto1/Slave2_Counter.X/Oscilador.c: 32:             OSCC
      +                          ONbits.IRCF0 = 0;
   932  0036  120F               	bcf	15,4	;volatile
   933                           
   934                           ;E:/UVG/Semestre 5/Digital2/Proyecto1/Slave2_Counter.X/Oscilador.c: 33:             brea
      +                          k;
   935  0037  2874               	goto	l89
   936  0038                     l94:	
   937                           ;E:/UVG/Semestre 5/Digital2/Proyecto1/Slave2_Counter.X/Oscilador.c: 34:         case 5:
   938                           
   939                           
   940                           ;E:/UVG/Semestre 5/Digital2/Proyecto1/Slave2_Counter.X/Oscilador.c: 35:             OSCC
      +                          ONbits.IRCF2 = 1;
   941  0038  1683               	bsf	3,5	;RP0=1, select bank1
   942  0039  1303               	bcf	3,6	;RP1=0, select bank1
   943  003A  170F               	bsf	15,6	;volatile
   944                           
   945                           ;E:/UVG/Semestre 5/Digital2/Proyecto1/Slave2_Counter.X/Oscilador.c: 36:             OSCC
      +                          ONbits.IRCF1 = 0;
   946  003B  128F               	bcf	15,5	;volatile
   947                           
   948                           ;E:/UVG/Semestre 5/Digital2/Proyecto1/Slave2_Counter.X/Oscilador.c: 37:             OSCC
      +                          ONbits.IRCF0 = 1;
   949  003C  160F               	bsf	15,4	;volatile
   950                           
   951                           ;E:/UVG/Semestre 5/Digital2/Proyecto1/Slave2_Counter.X/Oscilador.c: 38:             brea
      +                          k;
   952  003D  2874               	goto	l89
   953  003E                     l95:	
   954                           ;E:/UVG/Semestre 5/Digital2/Proyecto1/Slave2_Counter.X/Oscilador.c: 39:         case 6:
   955                           
   956                           
   957                           ;E:/UVG/Semestre 5/Digital2/Proyecto1/Slave2_Counter.X/Oscilador.c: 40:             OSCC
      +                          ONbits.IRCF2 = 1;
   958  003E  1683               	bsf	3,5	;RP0=1, select bank1
   959  003F  1303               	bcf	3,6	;RP1=0, select bank1
   960  0040  170F               	bsf	15,6	;volatile
   961                           
   962                           ;E:/UVG/Semestre 5/Digital2/Proyecto1/Slave2_Counter.X/Oscilador.c: 41:             OSCC
      +                          ONbits.IRCF1 = 1;
   963  0041  168F               	bsf	15,5	;volatile
   964                           
   965                           ;E:/UVG/Semestre 5/Digital2/Proyecto1/Slave2_Counter.X/Oscilador.c: 42:             OSCC
      +                          ONbits.IRCF0 = 0;
   966  0042  120F               	bcf	15,4	;volatile
   967                           
   968                           ;E:/UVG/Semestre 5/Digital2/Proyecto1/Slave2_Counter.X/Oscilador.c: 43:             brea
      +                          k;
   969  0043  2874               	goto	l89
   970  0044                     l96:	
   971                           ;E:/UVG/Semestre 5/Digital2/Proyecto1/Slave2_Counter.X/Oscilador.c: 44:         case 7:
   972                           
   973                           
   974                           ;E:/UVG/Semestre 5/Digital2/Proyecto1/Slave2_Counter.X/Oscilador.c: 45:             OSCC
      +                          ONbits.IRCF2 = 1;
   975  0044  1683               	bsf	3,5	;RP0=1, select bank1
   976  0045  1303               	bcf	3,6	;RP1=0, select bank1
   977  0046  170F               	bsf	15,6	;volatile
   978                           
   979                           ;E:/UVG/Semestre 5/Digital2/Proyecto1/Slave2_Counter.X/Oscilador.c: 46:             OSCC
      +                          ONbits.IRCF1 = 1;
   980  0047  168F               	bsf	15,5	;volatile
   981                           
   982                           ;E:/UVG/Semestre 5/Digital2/Proyecto1/Slave2_Counter.X/Oscilador.c: 47:             OSCC
      +                          ONbits.IRCF0 = 1;
   983  0048  160F               	bsf	15,4	;volatile
   984                           
   985                           ;E:/UVG/Semestre 5/Digital2/Proyecto1/Slave2_Counter.X/Oscilador.c: 48:             brea
      +                          k;
   986  0049  2874               	goto	l89
   987  004A                     l97:	
   988                           ;E:/UVG/Semestre 5/Digital2/Proyecto1/Slave2_Counter.X/Oscilador.c: 49:         default:
   989                           
   990                           
   991                           ;E:/UVG/Semestre 5/Digital2/Proyecto1/Slave2_Counter.X/Oscilador.c: 50:             OSCC
      +                          ONbits.IRCF2 = 1;
   992  004A  1683               	bsf	3,5	;RP0=1, select bank1
   993  004B  1303               	bcf	3,6	;RP1=0, select bank1
   994  004C  170F               	bsf	15,6	;volatile
   995                           
   996                           ;E:/UVG/Semestre 5/Digital2/Proyecto1/Slave2_Counter.X/Oscilador.c: 51:             OSCC
      +                          ONbits.IRCF1 = 1;
   997  004D  168F               	bsf	15,5	;volatile
   998                           
   999                           ;E:/UVG/Semestre 5/Digital2/Proyecto1/Slave2_Counter.X/Oscilador.c: 52:             OSCC
      +                          ONbits.IRCF0 = 0;
  1000  004E  120F               	bcf	15,4	;volatile
  1001                           
  1002                           ;E:/UVG/Semestre 5/Digital2/Proyecto1/Slave2_Counter.X/Oscilador.c: 53:             brea
      +                          k;
  1003  004F  2874               	goto	l89
  1004  0050                     l914:
  1005  0050  0879               	movf	initOsc@IRCF,w
  1006  0051  1283               	bcf	3,5	;RP0=0, select bank0
  1007  0052  1303               	bcf	3,6	;RP1=0, select bank0
  1008  0053  00A0               	movwf	??_initOsc
  1009  0054  01A1               	clrf	??_initOsc+1
  1010                           
  1011                           ; Switch on 2 bytes has been partitioned into a top level switch of size 1, and 1 sub-sw
      +                          itches
  1012                           ; Switch size 1, requested type "simple"
  1013                           ; Number of cases is 1, Range of values is 0 to 0
  1014                           ; switch strategies available:
  1015                           ; Name         Instructions Cycles
  1016                           ; simple_byte            4     3 (average)
  1017                           ; direct_byte           11     8 (fixed)
  1018                           ; jumptable            260     6 (fixed)
  1019                           ;	Chosen strategy is simple_byte
  1020  0055  0821               	movf	??_initOsc+1,w
  1021  0056  3A00               	xorlw	0	; case 0
  1022  0057  1903               	skipnz
  1023  0058  285A               	goto	l984
  1024  0059  284A               	goto	l97
  1025  005A                     l984:
  1026                           
  1027                           ; Switch size 1, requested type "simple"
  1028                           ; Number of cases is 8, Range of values is 0 to 7
  1029                           ; switch strategies available:
  1030                           ; Name         Instructions Cycles
  1031                           ; simple_byte           25    13 (average)
  1032                           ; direct_byte           32     8 (fixed)
  1033                           ; jumptable            260     6 (fixed)
  1034                           ;	Chosen strategy is simple_byte
  1035  005A  0820               	movf	??_initOsc,w
  1036  005B  3A00               	xorlw	0	; case 0
  1037  005C  1903               	skipnz
  1038  005D  281A               	goto	l88
  1039  005E  3A01               	xorlw	1	; case 1
  1040  005F  1903               	skipnz
  1041  0060  2820               	goto	l90
  1042  0061  3A03               	xorlw	3	; case 2
  1043  0062  1903               	skipnz
  1044  0063  2826               	goto	l91
  1045  0064  3A01               	xorlw	1	; case 3
  1046  0065  1903               	skipnz
  1047  0066  282C               	goto	l92
  1048  0067  3A07               	xorlw	7	; case 4
  1049  0068  1903               	skipnz
  1050  0069  2832               	goto	l93
  1051  006A  3A01               	xorlw	1	; case 5
  1052  006B  1903               	skipnz
  1053  006C  2838               	goto	l94
  1054  006D  3A03               	xorlw	3	; case 6
  1055  006E  1903               	skipnz
  1056  006F  283E               	goto	l95
  1057  0070  3A01               	xorlw	1	; case 7
  1058  0071  1903               	skipnz
  1059  0072  2844               	goto	l96
  1060  0073  284A               	goto	l97
  1061  0074                     l89:
  1062                           
  1063                           ;E:/UVG/Semestre 5/Digital2/Proyecto1/Slave2_Counter.X/Oscilador.c: 56:     OSCCONbits.S
      +                          CS = 1;
  1064  0074  140F               	bsf	15,0	;volatile
  1065  0075                     l98:
  1066  0075  0008               	return
  1067  0076                     __end_of_initOsc:
  1068                           
  1069                           	psect	text4
  1070  0076                     __ptext4:	
  1071 ;; *************** function _isr *****************
  1072 ;; Defined at:
  1073 ;;		line 59 in file "E:/UVG/Semestre 5/Digital2/Proyecto1/Slave2_Counter.X/Code_Counter.c"
  1074 ;; Parameters:    Size  Location     Type
  1075 ;;		None
  1076 ;; Auto vars:     Size  Location     Type
  1077 ;;		None
  1078 ;; Return value:  Size  Location     Type
  1079 ;;                  1    wreg      void 
  1080 ;; Registers used:
  1081 ;;		wreg, status,2, status,0, pclath, cstack
  1082 ;; Tracked objects:
  1083 ;;		On entry : 0/0
  1084 ;;		On exit  : 0/0
  1085 ;;		Unchanged: 0/0
  1086 ;; Data sizes:     COMMON   BANK0   BANK1   BANK3   BANK2
  1087 ;;      Params:         0       0       0       0       0
  1088 ;;      Locals:         0       0       0       0       0
  1089 ;;      Temps:          3       0       0       0       0
  1090 ;;      Totals:         3       0       0       0       0
  1091 ;;Total ram usage:        3 bytes
  1092 ;; Hardware stack levels used:    1
  1093 ;; Hardware stack levels required when called:    2
  1094 ;; This function calls:
  1095 ;;		_spiRead
  1096 ;;		_spiWrite
  1097 ;; This function is called by:
  1098 ;;		Interrupt level 1
  1099 ;; This function uses a non-reentrant model
  1100 ;;
  1101                           
  1102                           
  1103                           ;psect for function _isr
  1104  0076                     _isr:
  1105  0076                     i1l786:
  1106                           
  1107                           ;E:/UVG/Semestre 5/Digital2/Proyecto1/Slave2_Counter.X/Code_Counter.c: 60:     (INTCONbi
      +                          ts.GIE = 0);
  1108  0076  138B               	bcf	11,7	;volatile
  1109                           
  1110                           ;E:/UVG/Semestre 5/Digital2/Proyecto1/Slave2_Counter.X/Code_Counter.c: 62:     if(INTCON
      +                          bits.RBIF == 1){
  1111  0077  1C0B               	btfss	11,0	;volatile
  1112  0078  287A               	goto	u3_21
  1113  0079  287B               	goto	u3_20
  1114  007A                     u3_21:
  1115  007A  289E               	goto	i1l810
  1116  007B                     u3_20:
  1117  007B                     i1l788:
  1118                           
  1119                           ;E:/UVG/Semestre 5/Digital2/Proyecto1/Slave2_Counter.X/Code_Counter.c: 63:         if(PO
      +                          RTBbits.RB0 == 0){
  1120  007B  1283               	bcf	3,5	;RP0=0, select bank0
  1121  007C  1303               	bcf	3,6	;RP1=0, select bank0
  1122  007D  1806               	btfsc	6,0	;volatile
  1123  007E  2880               	goto	u4_21
  1124  007F  2881               	goto	u4_20
  1125  0080                     u4_21:
  1126  0080  2884               	goto	i1l792
  1127  0081                     u4_20:
  1128  0081                     i1l790:
  1129                           
  1130                           ;E:/UVG/Semestre 5/Digital2/Proyecto1/Slave2_Counter.X/Code_Counter.c: 64:             F
      +                          LAGI = 1;
  1131  0081  01F3               	clrf	_FLAGI
  1132  0082  0AF3               	incf	_FLAGI,f
  1133                           
  1134                           ;E:/UVG/Semestre 5/Digital2/Proyecto1/Slave2_Counter.X/Code_Counter.c: 65:         }
  1135  0083  288E               	goto	i1l798
  1136  0084                     i1l792:
  1137                           
  1138                           ;E:/UVG/Semestre 5/Digital2/Proyecto1/Slave2_Counter.X/Code_Counter.c: 67:             i
      +                          f(FLAGI == 1){
  1139  0084  0373               	decf	_FLAGI,w
  1140  0085  1D03               	btfss	3,2
  1141  0086  2888               	goto	u5_21
  1142  0087  2889               	goto	u5_20
  1143  0088                     u5_21:
  1144  0088  288E               	goto	i1l798
  1145  0089                     u5_20:
  1146  0089                     i1l794:
  1147                           
  1148                           ;E:/UVG/Semestre 5/Digital2/Proyecto1/Slave2_Counter.X/Code_Counter.c: 68:              
      +                             FLAGI = 0;
  1149  0089  01F3               	clrf	_FLAGI
  1150  008A                     i1l796:
  1151                           
  1152                           ;E:/UVG/Semestre 5/Digital2/Proyecto1/Slave2_Counter.X/Code_Counter.c: 69:              
      +                             PORTD++;
  1153  008A  3001               	movlw	1
  1154  008B  00F6               	movwf	??_isr
  1155  008C  0876               	movf	??_isr,w
  1156  008D  0788               	addwf	8,f	;volatile
  1157  008E                     i1l798:
  1158                           
  1159                           ;E:/UVG/Semestre 5/Digital2/Proyecto1/Slave2_Counter.X/Code_Counter.c: 72:         if(PO
      +                          RTBbits.RB1 == 0){
  1160  008E  1886               	btfsc	6,1	;volatile
  1161  008F  2891               	goto	u6_21
  1162  0090  2892               	goto	u6_20
  1163  0091                     u6_21:
  1164  0091  2895               	goto	i1l802
  1165  0092                     u6_20:
  1166  0092                     i1l800:
  1167                           
  1168                           ;E:/UVG/Semestre 5/Digital2/Proyecto1/Slave2_Counter.X/Code_Counter.c: 73:             F
      +                          LAGD = 1;
  1169  0092  01F4               	clrf	_FLAGD
  1170  0093  0AF4               	incf	_FLAGD,f
  1171                           
  1172                           ;E:/UVG/Semestre 5/Digital2/Proyecto1/Slave2_Counter.X/Code_Counter.c: 74:         }
  1173  0094  289D               	goto	i1l808
  1174  0095                     i1l802:
  1175                           
  1176                           ;E:/UVG/Semestre 5/Digital2/Proyecto1/Slave2_Counter.X/Code_Counter.c: 76:             i
      +                          f(FLAGD == 1){
  1177  0095  0374               	decf	_FLAGD,w
  1178  0096  1D03               	btfss	3,2
  1179  0097  2899               	goto	u7_21
  1180  0098  289A               	goto	u7_20
  1181  0099                     u7_21:
  1182  0099  289D               	goto	i1l808
  1183  009A                     u7_20:
  1184  009A                     i1l804:
  1185                           
  1186                           ;E:/UVG/Semestre 5/Digital2/Proyecto1/Slave2_Counter.X/Code_Counter.c: 77:              
      +                             FLAGD = 0;
  1187  009A  01F4               	clrf	_FLAGD
  1188  009B                     i1l806:
  1189                           
  1190                           ;E:/UVG/Semestre 5/Digital2/Proyecto1/Slave2_Counter.X/Code_Counter.c: 78:              
      +                             PORTD--;
  1191  009B  3001               	movlw	1
  1192  009C  0288               	subwf	8,f	;volatile
  1193  009D                     i1l808:
  1194                           
  1195                           ;E:/UVG/Semestre 5/Digital2/Proyecto1/Slave2_Counter.X/Code_Counter.c: 81:         INTCO
      +                          Nbits.RBIF = 0;
  1196  009D  100B               	bcf	11,0	;volatile
  1197  009E                     i1l810:
  1198                           
  1199                           ;E:/UVG/Semestre 5/Digital2/Proyecto1/Slave2_Counter.X/Code_Counter.c: 84:     if (PIR1b
      +                          its.SSPIF == 1) {
  1200  009E  1283               	bcf	3,5	;RP0=0, select bank0
  1201  009F  1303               	bcf	3,6	;RP1=0, select bank0
  1202  00A0  1D8C               	btfss	12,3	;volatile
  1203  00A1  28A3               	goto	u8_21
  1204  00A2  28A4               	goto	u8_20
  1205  00A3                     u8_21:
  1206  00A3  28B5               	goto	i1l816
  1207  00A4                     u8_20:
  1208  00A4                     i1l812:
  1209                           
  1210                           ;E:/UVG/Semestre 5/Digital2/Proyecto1/Slave2_Counter.X/Code_Counter.c: 85:         spiWr
      +                          ite(PORTD);
  1211  00A4  0808               	movf	8,w	;volatile
  1212  00A5  120A  118A  212A  120A  118A  	fcall	_spiWrite
  1213                           
  1214                           ;E:/UVG/Semestre 5/Digital2/Proyecto1/Slave2_Counter.X/Code_Counter.c: 86:         ESCRI
      +                          TURA_REVISION = spiRead();
  1215  00AA  120A  118A  211A  120A  118A  	fcall	_spiRead
  1216  00AF  00F6               	movwf	??_isr
  1217  00B0  0876               	movf	??_isr,w
  1218  00B1  00F0               	movwf	_ESCRITURA_REVISION
  1219  00B2                     i1l814:
  1220                           
  1221                           ;E:/UVG/Semestre 5/Digital2/Proyecto1/Slave2_Counter.X/Code_Counter.c: 87:         PIR1b
      +                          its.SSPIF = 0;
  1222  00B2  1283               	bcf	3,5	;RP0=0, select bank0
  1223  00B3  1303               	bcf	3,6	;RP1=0, select bank0
  1224  00B4  118C               	bcf	12,3	;volatile
  1225  00B5                     i1l816:
  1226                           
  1227                           ;E:/UVG/Semestre 5/Digital2/Proyecto1/Slave2_Counter.X/Code_Counter.c: 89:     (INTCONbi
      +                          ts.GIE = 1);
  1228  00B5  178B               	bsf	11,7	;volatile
  1229  00B6                     i1l71:
  1230  00B6  0878               	movf	??_isr+2,w
  1231  00B7  008A               	movwf	10
  1232  00B8  0E77               	swapf	??_isr+1,w
  1233  00B9  0083               	movwf	3
  1234  00BA  0EFE               	swapf	btemp,f
  1235  00BB  0E7E               	swapf	btemp,w
  1236  00BC  0009               	retfie
  1237  00BD                     __end_of_isr:
  1238                           
  1239                           	psect	intentry
  1240  0004                     __pintentry:	
  1241                           ;incstack = 0
  1242                           ; Regs used in _isr: [wreg+status,2+status,0+pclath+cstack]
  1243                           
  1244  0004                     interrupt_function:
  1245  007E                     saved_w	set	btemp
  1246  0004  00FE               	movwf	btemp
  1247  0005  0E03               	swapf	3,w
  1248  0006  00F7               	movwf	??_isr+1
  1249  0007  080A               	movf	10,w
  1250  0008  00F8               	movwf	??_isr+2
  1251  0009  120A  118A  2876   	ljmp	_isr
  1252                           
  1253                           	psect	text5
  1254  012A                     __ptext5:	
  1255 ;; *************** function _spiWrite *****************
  1256 ;; Defined at:
  1257 ;;		line 32 in file "E:/UVG/Semestre 5/Digital2/Proyecto1/Slave2_Counter.X/MSSP.c"
  1258 ;; Parameters:    Size  Location     Type
  1259 ;;  dat             1    wreg     unsigned char 
  1260 ;; Auto vars:     Size  Location     Type
  1261 ;;  dat             1    0[COMMON] unsigned char 
  1262 ;; Return value:  Size  Location     Type
  1263 ;;                  1    wreg      void 
  1264 ;; Registers used:
  1265 ;;		wreg
  1266 ;; Tracked objects:
  1267 ;;		On entry : 0/0
  1268 ;;		On exit  : 0/0
  1269 ;;		Unchanged: 0/0
  1270 ;; Data sizes:     COMMON   BANK0   BANK1   BANK3   BANK2
  1271 ;;      Params:         0       0       0       0       0
  1272 ;;      Locals:         1       0       0       0       0
  1273 ;;      Temps:          0       0       0       0       0
  1274 ;;      Totals:         1       0       0       0       0
  1275 ;;Total ram usage:        1 bytes
  1276 ;; Hardware stack levels used:    1
  1277 ;; This function calls:
  1278 ;;		Nothing
  1279 ;; This function is called by:
  1280 ;;		_isr
  1281 ;; This function uses a non-reentrant model
  1282 ;;
  1283                           
  1284                           
  1285                           ;psect for function _spiWrite
  1286  012A                     _spiWrite:
  1287                           
  1288                           ;incstack = 0
  1289                           ; Regs used in _spiWrite: [wreg]
  1290                           ;spiWrite@dat stored from wreg
  1291  012A  00F5               	movwf	spiWrite@dat
  1292  012B                     i1l746:
  1293                           
  1294                           ;E:/UVG/Semestre 5/Digital2/Proyecto1/Slave2_Counter.X/MSSP.c: 33:     SSPBUF = dat;
  1295  012B  0875               	movf	spiWrite@dat,w
  1296  012C  1283               	bcf	3,5	;RP0=0, select bank0
  1297  012D  1303               	bcf	3,6	;RP1=0, select bank0
  1298  012E  0093               	movwf	19	;volatile
  1299  012F                     i1l124:
  1300  012F  0008               	return
  1301  0130                     __end_of_spiWrite:
  1302                           
  1303                           	psect	text6
  1304  011A                     __ptext6:	
  1305 ;; *************** function _spiRead *****************
  1306 ;; Defined at:
  1307 ;;		line 43 in file "E:/UVG/Semestre 5/Digital2/Proyecto1/Slave2_Counter.X/MSSP.c"
  1308 ;; Parameters:    Size  Location     Type
  1309 ;;		None
  1310 ;; Auto vars:     Size  Location     Type
  1311 ;;		None
  1312 ;; Return value:  Size  Location     Type
  1313 ;;                  1    wreg      unsigned char 
  1314 ;; Registers used:
  1315 ;;		wreg, status,2, status,0, pclath, cstack
  1316 ;; Tracked objects:
  1317 ;;		On entry : 0/0
  1318 ;;		On exit  : 0/0
  1319 ;;		Unchanged: 0/0
  1320 ;; Data sizes:     COMMON   BANK0   BANK1   BANK3   BANK2
  1321 ;;      Params:         0       0       0       0       0
  1322 ;;      Locals:         0       0       0       0       0
  1323 ;;      Temps:          0       0       0       0       0
  1324 ;;      Totals:         0       0       0       0       0
  1325 ;;Total ram usage:        0 bytes
  1326 ;; Hardware stack levels used:    1
  1327 ;; Hardware stack levels required when called:    1
  1328 ;; This function calls:
  1329 ;;		_spiReceiveWait
  1330 ;; This function is called by:
  1331 ;;		_isr
  1332 ;; This function uses a non-reentrant model
  1333 ;;
  1334                           
  1335                           
  1336                           ;psect for function _spiRead
  1337  011A                     _spiRead:
  1338  011A                     i1l748:	
  1339                           ;incstack = 0
  1340                           ; Regs used in _spiRead: [wreg+status,2+status,0+pclath+cstack]
  1341                           
  1342                           
  1343                           ;E:/UVG/Semestre 5/Digital2/Proyecto1/Slave2_Counter.X/MSSP.c: 44:     spiReceiveWait();
  1344  011A  120A  118A  2123  120A  118A  	fcall	_spiReceiveWait
  1345  011F                     i1l750:
  1346                           
  1347                           ;E:/UVG/Semestre 5/Digital2/Proyecto1/Slave2_Counter.X/MSSP.c: 45:     return(SSPBUF);
  1348  011F  1283               	bcf	3,5	;RP0=0, select bank0
  1349  0120  1303               	bcf	3,6	;RP1=0, select bank0
  1350  0121  0813               	movf	19,w	;volatile
  1351  0122                     i1l132:
  1352  0122  0008               	return
  1353  0123                     __end_of_spiRead:
  1354                           
  1355                           	psect	text7
  1356  0123                     __ptext7:	
  1357 ;; *************** function _spiReceiveWait *****************
  1358 ;; Defined at:
  1359 ;;		line 28 in file "E:/UVG/Semestre 5/Digital2/Proyecto1/Slave2_Counter.X/MSSP.c"
  1360 ;; Parameters:    Size  Location     Type
  1361 ;;		None
  1362 ;; Auto vars:     Size  Location     Type
  1363 ;;		None
  1364 ;; Return value:  Size  Location     Type
  1365 ;;                  1    wreg      void 
  1366 ;; Registers used:
  1367 ;;		None
  1368 ;; Tracked objects:
  1369 ;;		On entry : 0/0
  1370 ;;		On exit  : 0/0
  1371 ;;		Unchanged: 0/0
  1372 ;; Data sizes:     COMMON   BANK0   BANK1   BANK3   BANK2
  1373 ;;      Params:         0       0       0       0       0
  1374 ;;      Locals:         0       0       0       0       0
  1375 ;;      Temps:          0       0       0       0       0
  1376 ;;      Totals:         0       0       0       0       0
  1377 ;;Total ram usage:        0 bytes
  1378 ;; Hardware stack levels used:    1
  1379 ;; This function calls:
  1380 ;;		Nothing
  1381 ;; This function is called by:
  1382 ;;		_spiRead
  1383 ;; This function uses a non-reentrant model
  1384 ;;
  1385                           
  1386                           
  1387                           ;psect for function _spiReceiveWait
  1388  0123                     _spiReceiveWait:
  1389  0123                     i1l744:	
  1390                           ;incstack = 0
  1391                           ; Regs used in _spiReceiveWait: []
  1392                           
  1393  0123                     i1l118:	
  1394                           ;E:/UVG/Semestre 5/Digital2/Proyecto1/Slave2_Counter.X/MSSP.c: 29:     while ( !SSPSTATb
      +                          its.BF );
  1395                           
  1396  0123  1683               	bsf	3,5	;RP0=1, select bank1
  1397  0124  1303               	bcf	3,6	;RP1=0, select bank1
  1398  0125  1C14               	btfss	20,0	;volatile
  1399  0126  2928               	goto	u2_21
  1400  0127  2929               	goto	u2_20
  1401  0128                     u2_21:
  1402  0128  2923               	goto	i1l118
  1403  0129                     u2_20:
  1404  0129                     i1l121:
  1405  0129  0008               	return
  1406  012A                     __end_of_spiReceiveWait:
  1407  007E                     btemp	set	126	;btemp
  1408  007E                     wtemp0	set	126
  1409                           
  1410                           	psect	config
  1411                           
  1412                           ;Config register CONFIG1 @ 0x2007
  1413                           ;	Oscillator Selection bits
  1414                           ;	FOSC = INTRC_NOCLKOUT, INTOSCIO oscillator: I/O function on RA6/OSC2/CLKOUT pin, I/O f
      +                          unction on RA7/OSC1/CLKIN
  1415                           ;	Watchdog Timer Enable bit
  1416                           ;	WDTE = OFF, WDT disabled and can be enabled by SWDTEN bit of the WDTCON register
  1417                           ;	Power-up Timer Enable bit
  1418                           ;	PWRTE = OFF, PWRT disabled
  1419                           ;	RE3/MCLR pin function select bit
  1420                           ;	MCLRE = OFF, RE3/MCLR pin function is digital input, MCLR internally tied to VDD
  1421                           ;	Code Protection bit
  1422                           ;	CP = OFF, Program memory code protection is disabled
  1423                           ;	Data Code Protection bit
  1424                           ;	CPD = OFF, Data memory code protection is disabled
  1425                           ;	Brown Out Reset Selection bits
  1426                           ;	BOREN = OFF, BOR disabled
  1427                           ;	Internal External Switchover bit
  1428                           ;	IESO = OFF, Internal/External Switchover mode is disabled
  1429                           ;	Fail-Safe Clock Monitor Enabled bit
  1430                           ;	FCMEN = OFF, Fail-Safe Clock Monitor is disabled
  1431                           ;	Low Voltage Programming Enable bit
  1432                           ;	LVP = OFF, RB3 pin has digital I/O, HV on MCLR must be used for programming
  1433                           ;	In-Circuit Debugger Mode bit
  1434                           ;	DEBUG = 0x1, unprogrammed default
  1435  2007                     	org	8199
  1436  2007  20D4               	dw	8404
  1437                           
  1438                           ;Config register CONFIG2 @ 0x2008
  1439                           ;	Brown-out Reset Selection bit
  1440                           ;	BOR4V = BOR40V, Brown-out Reset set to 4.0V
  1441                           ;	Flash Program Memory Self Write Enable bits
  1442                           ;	WRT = OFF, Write protection off
  1443  2008                     	org	8200
  1444  2008  3FFF               	dw	16383

Data Sizes:
    Strings     0
    Constant    0
    Data        0
    BSS         5
    Persistent  0
    Stack       0

Auto Spaces:
    Space          Size  Autos    Used
    COMMON           14      5      10
    BANK0            80      3       3
    BANK1            80      0       0
    BANK3            96      0       0
    BANK2            96      0       0

Pointer List with Targets:

    None.

Critical Paths under _main in COMMON

    _Setup->_initOsc
    _Setup->_spiInit

Critical Paths under _isr in COMMON

    _isr->_spiWrite

Critical Paths under _main in BANK0

    _Setup->_spiInit

Critical Paths under _isr in BANK0

    None.

Critical Paths under _main in BANK1

    None.

Critical Paths under _isr in BANK1

    None.

Critical Paths under _main in BANK3

    None.

Critical Paths under _isr in BANK3

    None.

Critical Paths under _main in BANK2

    None.

Critical Paths under _isr in BANK2

    None.

Call Graph Tables:

 ---------------------------------------------------------------------------------
 (Depth) Function   	        Calls       Base Space   Used Autos Params    Refs
 ---------------------------------------------------------------------------------
 (0) _main                                                 0     0      0     478
                              _Setup
 ---------------------------------------------------------------------------------
 (1) _Setup                                                0     0      0     478
                            _initOsc
                            _spiInit
 ---------------------------------------------------------------------------------
 (2) _spiInit                                              4     1      3     456
                                              4 COMMON     1     1      0
                                              0 BANK0      3     0      3
 ---------------------------------------------------------------------------------
 (2) _initOsc                                              3     3      0      22
                                              4 COMMON     1     1      0
                                              0 BANK0      2     2      0
 ---------------------------------------------------------------------------------
 Estimated maximum stack depth 2
 ---------------------------------------------------------------------------------
 (Depth) Function   	        Calls       Base Space   Used Autos Params    Refs
 ---------------------------------------------------------------------------------
 (3) _isr                                                  3     3      0      15
                                              1 COMMON     3     3      0
                            _spiRead
                           _spiWrite
 ---------------------------------------------------------------------------------
 (4) _spiWrite                                             1     1      0      15
                                              0 COMMON     1     1      0
 ---------------------------------------------------------------------------------
 (4) _spiRead                                              0     0      0       0
                     _spiReceiveWait
 ---------------------------------------------------------------------------------
 (5) _spiReceiveWait                                       0     0      0       0
 ---------------------------------------------------------------------------------
 Estimated maximum stack depth 5
 ---------------------------------------------------------------------------------

 Call Graph Graphs:

 _main (ROOT)
   _Setup
     _initOsc
     _spiInit

 _isr (ROOT)
   _spiRead
     _spiReceiveWait
   _spiWrite

 Address spaces:
Name               Size   Autos  Total    Cost      Usage
BITCOMMON            E      0       0       0        0.0%
EEDATA             100      0       0       0        0.0%
NULL                 0      0       0       0        0.0%
CODE                 0      0       0       0        0.0%
COMMON               E      5       A       1       71.4%
BITSFR0              0      0       0       1        0.0%
SFR0                 0      0       0       1        0.0%
BITSFR1              0      0       0       2        0.0%
SFR1                 0      0       0       2        0.0%
STACK                0      0       0       2        0.0%
ABS                  0      0       D       3        0.0%
BITBANK0            50      0       0       4        0.0%
BITSFR3              0      0       0       4        0.0%
SFR3                 0      0       0       4        0.0%
BANK0               50      3       3       5        3.8%
BITSFR2              0      0       0       5        0.0%
SFR2                 0      0       0       5        0.0%
BITBANK1            50      0       0       6        0.0%
BANK1               50      0       0       7        0.0%
BITBANK3            60      0       0       8        0.0%
BANK3               60      0       0       9        0.0%
BITBANK2            60      0       0      10        0.0%
BANK2               60      0       0      11        0.0%
DATA                 0      0       D      12        0.0%


Microchip Technology PIC Macro Assembler V2.31 build 20201012212115 
Symbol Table                                                                                   Fri Feb 12 00:27:00 2021

            _SSPSTATbits 0094                       l90 0020                       l82 00F2  
                     l91 0026                       l92 002C                       l76 0116  
                     l93 0032                       l77 0116                       l94 0038  
                     l95 003E                       l96 0044                       l88 001A  
                     l97 004A                       l89 0074                       l98 0075  
                    l114 010B                      l115 0110                      l910 0019  
                    l920 00F4                      l914 0050                      l922 00FB  
                    l930 00BD                      l924 0101                      l940 00D1  
                    l932 00C8                      l926 0103                      l950 00E0  
                    l942 00D2                      l934 00CC                      l928 010A  
                    l960 00EF                      l952 00EB                      l944 00D4  
                    l936 00CE                      l954 00EC                      l946 00D6  
                    l938 00D0                      l962 0111                      l956 00ED  
                    l948 00DC                      l958 00EE                      l984 005A  
                    u100 00FB                      u101 00FA                      _isr 0076  
                   ?_isr 0075                     _IOCB 0096                     i1l71 00B6  
                   _WPUB 0095                     u2_20 0129                     u2_21 0128  
                   u3_20 007B                     u3_21 007A                     u4_20 0081  
                   u4_21 0080                     u5_20 0089                     u5_21 0088  
                   u6_20 0092                     u6_21 0091                     u7_20 009A  
                   u7_21 0099                     u8_20 00A4                     u8_21 00A3  
                   _main 0111                     btemp 007E                     start 000C  
                  ??_isr 0076                    ?_main 0075                    _FLAGD 0074  
                  _FLAGI 0073                    _ANSEL 0188                    i1l121 0129  
                  i1l132 0122                    i1l124 012F                    i1l118 0123  
                  i1l800 0092                    i1l802 0095                    i1l810 009E  
                  i1l812 00A4                    i1l804 009A                    i1l750 011F  
                  i1l814 00B2                    i1l806 009B                    i1l744 0123  
                  i1l816 00B5                    i1l808 009D                    i1l746 012B  
                  i1l748 011A                    i1l790 0081                    i1l792 0084  
                  i1l794 0089                    i1l786 0076                    i1l796 008A  
                  i1l788 007B                    i1l798 008E                    _PORTA 0005  
                  _PORTB 0006                    _PORTC 0007                    _PORTD 0008  
                  _PORTE 0009                    _TRISA 0085                    _TRISB 0086  
                  _TRISC 0087                    _TRISD 0088                    _TRISE 0089  
                  _Setup 00BD          __end_of_initOsc 0076                    pclath 000A  
        __end_of_spiInit 0111          __end_of_spiRead 0123                    status 0003  
                  wtemp0 007E          __initialization 000F             __end_of_main 011A  
                 ??_main 007A                   ?_Setup 0075              initOsc@IRCF 0079  
                 _ANSELH 0189                   _TOGGLE 0072                   _TRISC3 043B  
                 _TRISC5 043D                   _SSPCON 0014                   _SSPBUF 0013  
              ??_initOsc 0020                   saved_w 007E         __end_of_spiWrite 0130  
              ??_spiInit 0079                ??_spiRead 0075  __end_of__initialization 0014  
         __pcstackCOMMON 0075            __end_of_Setup 00F3                  ??_Setup 007A  
             __pmaintext 0111               __pintentry 0004  __size_of_spiReceiveWait 0007  
                _SSPSTAT 0094                ?_spiWrite 0075                  __ptext1 00BD  
                __ptext2 00F3                  __ptext3 0018                  __ptext4 0076  
                __ptext5 012A                  __ptext6 011A                  __ptext7 0123  
                _initOsc 0018             __size_of_isr 0047                  _spiInit 00F3  
                _spiRead 011A     end_of_initialization 0014               ??_spiWrite 0075  
              _PORTBbits 0006              spiWrite@dat 0075           _spiReceiveWait 0123  
    start_initialization 000F              __end_of_isr 00BD   __end_of_spiReceiveWait 012A  
            __pbssCOMMON 0070                ___latbits 0002            __pcstackBANK0 0020  
        ?_spiReceiveWait 0075        __size_of_spiWrite 0006                 ?_initOsc 0075  
               ?_spiInit 0020                 ?_spiRead 0075           __size_of_Setup 0036  
               _CONTADOR 0071     spiInit@sTransmitEdge 0022        interrupt_function 0004  
               _PIE1bits 008C       _ESCRITURA_REVISION 0070       spiInit@sDataSample 0020  
               _PIR1bits 000C         __size_of_initOsc 005E         __size_of_spiInit 001E  
       __size_of_spiRead 0009            __size_of_main 0009                 _spiWrite 012A  
           spiInit@sType 0079        spiInit@sClockIdle 0021               _INTCONbits 000B  
               intlevel1 0000         ??_spiReceiveWait 0075               _OSCCONbits 008F  
             _OPTION_REG 0081  
