

Microchip MPLAB XC8 Assembler V2.31 build 20201012212115 
                                                                                               Sun Feb 07 02:18:02 2021

Microchip MPLAB XC8 C Compiler v2.31 (Free license) build 20201012212115 Og1 
     1                           	processor	16F887
     2                           	pagewidth 120
     3                           	opt	flic
     4                           	psect	strings,global,class=STRING,delta=2,noexec
     5                           	psect	cinit,global,class=CODE,merge=1,delta=2
     6                           	psect	bssCOMMON,global,class=COMMON,space=1,delta=1,noexec
     7                           	psect	bssBANK0,global,class=BANK0,space=1,delta=1,noexec
     8                           	psect	cstackCOMMON,global,class=COMMON,space=1,delta=1,noexec
     9                           	psect	cstackBANK0,global,class=BANK0,space=1,delta=1,noexec
    10                           	psect	maintext,global,class=CODE,split=1,delta=2
    11                           	psect	text1,local,class=CODE,merge=1,delta=2
    12                           	psect	text2,local,class=CODE,merge=1,delta=2
    13                           	psect	text3,local,class=CODE,merge=1,delta=2
    14                           	psect	text4,local,class=CODE,merge=1,delta=2
    15                           	psect	text5,local,class=CODE,merge=1,delta=2
    16                           	psect	text6,local,class=CODE,merge=1,delta=2
    17                           	psect	text7,local,class=CODE,merge=1,delta=2,group=1
    18                           	psect	text8,local,class=CODE,merge=1,delta=2
    19                           	psect	text9,local,class=CODE,merge=1,delta=2,group=1
    20                           	psect	text10,local,class=CODE,merge=1,delta=2,group=1
    21                           	psect	text11,local,class=CODE,merge=1,delta=2,group=1
    22                           	psect	text12,local,class=CODE,merge=1,delta=2
    23                           	psect	text13,local,class=CODE,merge=1,delta=2
    24                           	psect	text14,local,class=CODE,merge=1,delta=2
    25                           	psect	text15,local,class=CODE,merge=1,delta=2
    26                           	psect	text16,local,class=CODE,merge=1,delta=2
    27                           	psect	text17,local,class=CODE,merge=1,delta=2
    28                           	psect	text18,local,class=CODE,merge=1,delta=2
    29                           	psect	intentry,global,class=CODE,delta=2
    30                           	psect	text19,local,class=CODE,merge=1,delta=2
    31                           	psect	text20,local,class=CODE,merge=1,delta=2
    32                           	psect	text21,local,class=CODE,merge=1,delta=2
    33                           	psect	config,global,abs,ovrld,class=CONFIG,space=4,delta=2,noexec
    34                           	dabs	1,0x7E,2
    35  0000                     
    36                           ; Version 2.31
    37                           ; Generated 13/10/2020 GMT
    38                           ; 
    39                           ; Copyright © 2020, Microchip Technology Inc. and its subsidiaries ("Microchip")
    40                           ; All rights reserved.
    41                           ; 
    42                           ; This software is developed by Microchip Technology Inc. and its subsidiaries ("Microch
      +                          ip").
    43                           ; 
    44                           ; Redistribution and use in source and binary forms, with or without modification, are
    45                           ; permitted provided that the following conditions are met:
    46                           ; 
    47                           ;     1. Redistributions of source code must retain the above copyright notice, this lis
      +                          t of
    48                           ;        conditions and the following disclaimer.
    49                           ; 
    50                           ;     2. Redistributions in binary form must reproduce the above copyright notice, this 
      +                          list
    51                           ;        of conditions and the following disclaimer in the documentation and/or other
    52                           ;        materials provided with the distribution. Publication is not required when
    53                           ;        this file is used in an embedded application.
    54                           ; 
    55                           ;     3. Microchip's name may not be used to endorse or promote products derived from th
      +                          is
    56                           ;        software without specific prior written permission.
    57                           ; 
    58                           ; THIS SOFTWARE IS PROVIDED BY MICROCHIP "AS IS" AND ANY EXPRESS OR IMPLIED WARRANTIES,
    59                           ; INCLUDING, BUT NOT LIMITED TO, THE IMPLIED WARRANTIES OF MERCHANTABILITY AND FITNESS F
      +                          OR
    60                           ; PURPOSE ARE DISCLAIMED.  IN NO EVENT SHALL MICROCHIP BE LIABLE FOR ANY DIRECT, INDIREC
      +                          T,
    61                           ; INCIDENTAL, SPECIAL, EXEMPLARY, OR CONSEQUENTIAL DAMAGES (INCLUDING BUT NOT LIMITED TO
    62                           ; PROCUREMENT OF SUBSTITUTE GOODS OR SERVICES; LOSS OF USE, DATA OR PROFITS; OR BUSINESS
    63                           ; INTERRUPTION) HOWSOEVER CAUSED AND ON ANY THEORY OF LIABILITY, WHETHER IN CONTRACT, ST
      +                          RICT
    64                           ; LIABILITY, OR TORT (INCLUDING NEGLIGENCE OR OTHERWISE) ARISING IN ANY WAY OUT OF THE U
      +                          SE OF
    65                           ; THIS SOFTWARE, EVEN IF ADVISED OF THE POSSIBILITY OF SUCH DAMAGE.
    66                           ; 
    67                           ; 
    68                           ; Code-generator required, PIC16F887 Definitions
    69                           ; 
    70                           ; SFR Addresses
    71  0000                     	;# 
    72  0001                     	;# 
    73  0002                     	;# 
    74  0003                     	;# 
    75  0004                     	;# 
    76  0005                     	;# 
    77  0006                     	;# 
    78  0007                     	;# 
    79  0008                     	;# 
    80  0009                     	;# 
    81  000A                     	;# 
    82  000B                     	;# 
    83  000C                     	;# 
    84  000D                     	;# 
    85  000E                     	;# 
    86  000E                     	;# 
    87  000F                     	;# 
    88  0010                     	;# 
    89  0011                     	;# 
    90  0012                     	;# 
    91  0013                     	;# 
    92  0014                     	;# 
    93  0015                     	;# 
    94  0015                     	;# 
    95  0016                     	;# 
    96  0017                     	;# 
    97  0018                     	;# 
    98  0019                     	;# 
    99  001A                     	;# 
   100  001B                     	;# 
   101  001B                     	;# 
   102  001C                     	;# 
   103  001D                     	;# 
   104  001E                     	;# 
   105  001F                     	;# 
   106  0081                     	;# 
   107  0085                     	;# 
   108  0086                     	;# 
   109  0087                     	;# 
   110  0088                     	;# 
   111  0089                     	;# 
   112  008C                     	;# 
   113  008D                     	;# 
   114  008E                     	;# 
   115  008F                     	;# 
   116  0090                     	;# 
   117  0091                     	;# 
   118  0092                     	;# 
   119  0093                     	;# 
   120  0093                     	;# 
   121  0093                     	;# 
   122  0094                     	;# 
   123  0095                     	;# 
   124  0096                     	;# 
   125  0097                     	;# 
   126  0098                     	;# 
   127  0099                     	;# 
   128  009A                     	;# 
   129  009B                     	;# 
   130  009C                     	;# 
   131  009D                     	;# 
   132  009E                     	;# 
   133  009F                     	;# 
   134  0105                     	;# 
   135  0107                     	;# 
   136  0108                     	;# 
   137  0109                     	;# 
   138  010C                     	;# 
   139  010C                     	;# 
   140  010D                     	;# 
   141  010E                     	;# 
   142  010F                     	;# 
   143  0185                     	;# 
   144  0187                     	;# 
   145  0188                     	;# 
   146  0189                     	;# 
   147  018C                     	;# 
   148  018D                     	;# 
   149  0000                     	;# 
   150  0001                     	;# 
   151  0002                     	;# 
   152  0003                     	;# 
   153  0004                     	;# 
   154  0005                     	;# 
   155  0006                     	;# 
   156  0007                     	;# 
   157  0008                     	;# 
   158  0009                     	;# 
   159  000A                     	;# 
   160  000B                     	;# 
   161  000C                     	;# 
   162  000D                     	;# 
   163  000E                     	;# 
   164  000E                     	;# 
   165  000F                     	;# 
   166  0010                     	;# 
   167  0011                     	;# 
   168  0012                     	;# 
   169  0013                     	;# 
   170  0014                     	;# 
   171  0015                     	;# 
   172  0015                     	;# 
   173  0016                     	;# 
   174  0017                     	;# 
   175  0018                     	;# 
   176  0019                     	;# 
   177  001A                     	;# 
   178  001B                     	;# 
   179  001B                     	;# 
   180  001C                     	;# 
   181  001D                     	;# 
   182  001E                     	;# 
   183  001F                     	;# 
   184  0081                     	;# 
   185  0085                     	;# 
   186  0086                     	;# 
   187  0087                     	;# 
   188  0088                     	;# 
   189  0089                     	;# 
   190  008C                     	;# 
   191  008D                     	;# 
   192  008E                     	;# 
   193  008F                     	;# 
   194  0090                     	;# 
   195  0091                     	;# 
   196  0092                     	;# 
   197  0093                     	;# 
   198  0093                     	;# 
   199  0093                     	;# 
   200  0094                     	;# 
   201  0095                     	;# 
   202  0096                     	;# 
   203  0097                     	;# 
   204  0098                     	;# 
   205  0099                     	;# 
   206  009A                     	;# 
   207  009B                     	;# 
   208  009C                     	;# 
   209  009D                     	;# 
   210  009E                     	;# 
   211  009F                     	;# 
   212  0105                     	;# 
   213  0107                     	;# 
   214  0108                     	;# 
   215  0109                     	;# 
   216  010C                     	;# 
   217  010C                     	;# 
   218  010D                     	;# 
   219  010E                     	;# 
   220  010F                     	;# 
   221  0185                     	;# 
   222  0187                     	;# 
   223  0188                     	;# 
   224  0189                     	;# 
   225  018C                     	;# 
   226  018D                     	;# 
   227  0000                     	;# 
   228  0001                     	;# 
   229  0002                     	;# 
   230  0003                     	;# 
   231  0004                     	;# 
   232  0005                     	;# 
   233  0006                     	;# 
   234  0007                     	;# 
   235  0008                     	;# 
   236  0009                     	;# 
   237  000A                     	;# 
   238  000B                     	;# 
   239  000C                     	;# 
   240  000D                     	;# 
   241  000E                     	;# 
   242  000E                     	;# 
   243  000F                     	;# 
   244  0010                     	;# 
   245  0011                     	;# 
   246  0012                     	;# 
   247  0013                     	;# 
   248  0014                     	;# 
   249  0015                     	;# 
   250  0015                     	;# 
   251  0016                     	;# 
   252  0017                     	;# 
   253  0018                     	;# 
   254  0019                     	;# 
   255  001A                     	;# 
   256  001B                     	;# 
   257  001B                     	;# 
   258  001C                     	;# 
   259  001D                     	;# 
   260  001E                     	;# 
   261  001F                     	;# 
   262  0081                     	;# 
   263  0085                     	;# 
   264  0086                     	;# 
   265  0087                     	;# 
   266  0088                     	;# 
   267  0089                     	;# 
   268  008C                     	;# 
   269  008D                     	;# 
   270  008E                     	;# 
   271  008F                     	;# 
   272  0090                     	;# 
   273  0091                     	;# 
   274  0092                     	;# 
   275  0093                     	;# 
   276  0093                     	;# 
   277  0093                     	;# 
   278  0094                     	;# 
   279  0095                     	;# 
   280  0096                     	;# 
   281  0097                     	;# 
   282  0098                     	;# 
   283  0099                     	;# 
   284  009A                     	;# 
   285  009B                     	;# 
   286  009C                     	;# 
   287  009D                     	;# 
   288  009E                     	;# 
   289  009F                     	;# 
   290  0105                     	;# 
   291  0107                     	;# 
   292  0108                     	;# 
   293  0109                     	;# 
   294  010C                     	;# 
   295  010C                     	;# 
   296  010D                     	;# 
   297  010E                     	;# 
   298  010F                     	;# 
   299  0185                     	;# 
   300  0187                     	;# 
   301  0188                     	;# 
   302  0189                     	;# 
   303  018C                     	;# 
   304  018D                     	;# 
   305  0000                     	;# 
   306  0001                     	;# 
   307  0002                     	;# 
   308  0003                     	;# 
   309  0004                     	;# 
   310  0005                     	;# 
   311  0006                     	;# 
   312  0007                     	;# 
   313  0008                     	;# 
   314  0009                     	;# 
   315  000A                     	;# 
   316  000B                     	;# 
   317  000C                     	;# 
   318  000D                     	;# 
   319  000E                     	;# 
   320  000E                     	;# 
   321  000F                     	;# 
   322  0010                     	;# 
   323  0011                     	;# 
   324  0012                     	;# 
   325  0013                     	;# 
   326  0014                     	;# 
   327  0015                     	;# 
   328  0015                     	;# 
   329  0016                     	;# 
   330  0017                     	;# 
   331  0018                     	;# 
   332  0019                     	;# 
   333  001A                     	;# 
   334  001B                     	;# 
   335  001B                     	;# 
   336  001C                     	;# 
   337  001D                     	;# 
   338  001E                     	;# 
   339  001F                     	;# 
   340  0081                     	;# 
   341  0085                     	;# 
   342  0086                     	;# 
   343  0087                     	;# 
   344  0088                     	;# 
   345  0089                     	;# 
   346  008C                     	;# 
   347  008D                     	;# 
   348  008E                     	;# 
   349  008F                     	;# 
   350  0090                     	;# 
   351  0091                     	;# 
   352  0092                     	;# 
   353  0093                     	;# 
   354  0093                     	;# 
   355  0093                     	;# 
   356  0094                     	;# 
   357  0095                     	;# 
   358  0096                     	;# 
   359  0097                     	;# 
   360  0098                     	;# 
   361  0099                     	;# 
   362  009A                     	;# 
   363  009B                     	;# 
   364  009C                     	;# 
   365  009D                     	;# 
   366  009E                     	;# 
   367  009F                     	;# 
   368  0105                     	;# 
   369  0107                     	;# 
   370  0108                     	;# 
   371  0109                     	;# 
   372  010C                     	;# 
   373  010C                     	;# 
   374  010D                     	;# 
   375  010E                     	;# 
   376  010F                     	;# 
   377  0185                     	;# 
   378  0187                     	;# 
   379  0188                     	;# 
   380  0189                     	;# 
   381  018C                     	;# 
   382  018D                     	;# 
   383  0000                     	;# 
   384  0001                     	;# 
   385  0002                     	;# 
   386  0003                     	;# 
   387  0004                     	;# 
   388  0005                     	;# 
   389  0006                     	;# 
   390  0007                     	;# 
   391  0008                     	;# 
   392  0009                     	;# 
   393  000A                     	;# 
   394  000B                     	;# 
   395  000C                     	;# 
   396  000D                     	;# 
   397  000E                     	;# 
   398  000E                     	;# 
   399  000F                     	;# 
   400  0010                     	;# 
   401  0011                     	;# 
   402  0012                     	;# 
   403  0013                     	;# 
   404  0014                     	;# 
   405  0015                     	;# 
   406  0015                     	;# 
   407  0016                     	;# 
   408  0017                     	;# 
   409  0018                     	;# 
   410  0019                     	;# 
   411  001A                     	;# 
   412  001B                     	;# 
   413  001B                     	;# 
   414  001C                     	;# 
   415  001D                     	;# 
   416  001E                     	;# 
   417  001F                     	;# 
   418  0081                     	;# 
   419  0085                     	;# 
   420  0086                     	;# 
   421  0087                     	;# 
   422  0088                     	;# 
   423  0089                     	;# 
   424  008C                     	;# 
   425  008D                     	;# 
   426  008E                     	;# 
   427  008F                     	;# 
   428  0090                     	;# 
   429  0091                     	;# 
   430  0092                     	;# 
   431  0093                     	;# 
   432  0093                     	;# 
   433  0093                     	;# 
   434  0094                     	;# 
   435  0095                     	;# 
   436  0096                     	;# 
   437  0097                     	;# 
   438  0098                     	;# 
   439  0099                     	;# 
   440  009A                     	;# 
   441  009B                     	;# 
   442  009C                     	;# 
   443  009D                     	;# 
   444  009E                     	;# 
   445  009F                     	;# 
   446  0105                     	;# 
   447  0107                     	;# 
   448  0108                     	;# 
   449  0109                     	;# 
   450  010C                     	;# 
   451  010C                     	;# 
   452  010D                     	;# 
   453  010E                     	;# 
   454  010F                     	;# 
   455  0185                     	;# 
   456  0187                     	;# 
   457  0188                     	;# 
   458  0189                     	;# 
   459  018C                     	;# 
   460  018D                     	;# 
   461  0000                     	;# 
   462  0001                     	;# 
   463  0002                     	;# 
   464  0003                     	;# 
   465  0004                     	;# 
   466  0005                     	;# 
   467  0006                     	;# 
   468  0007                     	;# 
   469  0008                     	;# 
   470  0009                     	;# 
   471  000A                     	;# 
   472  000B                     	;# 
   473  000C                     	;# 
   474  000D                     	;# 
   475  000E                     	;# 
   476  000E                     	;# 
   477  000F                     	;# 
   478  0010                     	;# 
   479  0011                     	;# 
   480  0012                     	;# 
   481  0013                     	;# 
   482  0014                     	;# 
   483  0015                     	;# 
   484  0015                     	;# 
   485  0016                     	;# 
   486  0017                     	;# 
   487  0018                     	;# 
   488  0019                     	;# 
   489  001A                     	;# 
   490  001B                     	;# 
   491  001B                     	;# 
   492  001C                     	;# 
   493  001D                     	;# 
   494  001E                     	;# 
   495  001F                     	;# 
   496  0081                     	;# 
   497  0085                     	;# 
   498  0086                     	;# 
   499  0087                     	;# 
   500  0088                     	;# 
   501  0089                     	;# 
   502  008C                     	;# 
   503  008D                     	;# 
   504  008E                     	;# 
   505  008F                     	;# 
   506  0090                     	;# 
   507  0091                     	;# 
   508  0092                     	;# 
   509  0093                     	;# 
   510  0093                     	;# 
   511  0093                     	;# 
   512  0094                     	;# 
   513  0095                     	;# 
   514  0096                     	;# 
   515  0097                     	;# 
   516  0098                     	;# 
   517  0099                     	;# 
   518  009A                     	;# 
   519  009B                     	;# 
   520  009C                     	;# 
   521  009D                     	;# 
   522  009E                     	;# 
   523  009F                     	;# 
   524  0105                     	;# 
   525  0107                     	;# 
   526  0108                     	;# 
   527  0109                     	;# 
   528  010C                     	;# 
   529  010C                     	;# 
   530  010D                     	;# 
   531  010E                     	;# 
   532  010F                     	;# 
   533  0185                     	;# 
   534  0187                     	;# 
   535  0188                     	;# 
   536  0189                     	;# 
   537  018C                     	;# 
   538  018D                     	;# 
   539  0018                     _RCSTAbits	set	24
   540  0008                     _PORTDbits	set	8
   541  0009                     _PORTE	set	9
   542  0008                     _PORTD	set	8
   543  0007                     _PORTC	set	7
   544  0005                     _PORTA	set	5
   545  001F                     _ADCON0bits	set	31
   546  0019                     _TXREG	set	25
   547  0006                     _PORTB	set	6
   548  001A                     _RCREG	set	26
   549  001E                     _ADRESH	set	30
   550  000C                     _PIR1bits	set	12
   551  0001                     _TMR0	set	1
   552  000B                     _INTCONbits	set	11
   553  009A                     _SPBRGH	set	154
   554  0099                     _SPBRG	set	153
   555  0098                     _TXSTAbits	set	152
   556  008F                     _OSCCONbits	set	143
   557  009F                     _ADCON1	set	159
   558  0081                     _OPTION_REG	set	129
   559  0089                     _TRISE	set	137
   560  0088                     _TRISD	set	136
   561  0087                     _TRISC	set	135
   562  0086                     _TRISB	set	134
   563  0085                     _TRISA	set	133
   564  008C                     _PIE1bits	set	140
   565  0105                     _WDTCON	set	261
   566  0187                     _BAUDCTLbits	set	391
   567  0189                     _ANSELH	set	393
   568  0188                     _ANSELbits	set	392
   569  0188                     _ANSEL	set	392
   570                           
   571                           	psect	strings
   572  0800                     __pstrings:
   573  0800                     stringtab:
   574  0800                     __stringtab:
   575  0800                     stringcode:	
   576                           ;	String table - string pointers are 1 byte each
   577                           
   578  0800                     stringdir:
   579  0800  3008               	movlw	high stringdir
   580  0801  008A               	movwf	10
   581  0802  0804               	movf	4,w
   582  0803  0A84               	incf	4,f
   583  0804  0782               	addwf	2,f
   584  0805                     __stringbase:
   585  0805  3400               	retlw	0
   586  0806                     __end_of__stringtab:
   587  0806                     STR_1:
   588  0806  3453               	retlw	83	;'S'
   589  0807  3465               	retlw	101	;'e'
   590  0808  346E               	retlw	110	;'n'
   591  0809  3420               	retlw	32	;' '
   592  080A  3431               	retlw	49	;'1'
   593  080B  3400               	retlw	0
   594  080C                     STR_2:
   595  080C  3453               	retlw	83	;'S'
   596  080D  3465               	retlw	101	;'e'
   597  080E  346E               	retlw	110	;'n'
   598  080F  3420               	retlw	32	;' '
   599  0810  3432               	retlw	50	;'2'
   600  0811  3400               	retlw	0
   601  0812                     STR_3:
   602  0812  3443               	retlw	67	;'C'
   603  0813  346F               	retlw	111	;'o'
   604  0814  346E               	retlw	110	;'n'
   605  0815  3474               	retlw	116	;'t'
   606  0816  3400               	retlw	0
   607  0817                     STR_6:
   608  0817  3430               	retlw	48	;'0'
   609  0818  3400               	retlw	0
   610  0819                     STR_9:
   611  0819  3433               	retlw	51	;'3'
   612  081A  3400               	retlw	0
   613  081B                     STR_10:
   614  081B  3434               	retlw	52	;'4'
   615  081C  3400               	retlw	0
   616  081D                     STR_11:
   617  081D  3435               	retlw	53	;'5'
   618  081E  3400               	retlw	0
   619  081F                     STR_12:
   620  081F  3436               	retlw	54	;'6'
   621  0820  3400               	retlw	0
   622  0821                     STR_13:
   623  0821  3437               	retlw	55	;'7'
   624  0822  3400               	retlw	0
   625  0823                     STR_14:
   626  0823  3438               	retlw	56	;'8'
   627  0824  3400               	retlw	0
   628  0825                     STR_15:
   629  0825  3439               	retlw	57	;'9'
   630  0826  3400               	retlw	0
   631  0827                     STR_4:
   632  0827  342E               	retlw	46	;'.'
   633  0828  3400               	retlw	0
   634  0827                     
   635                           	psect	cinit
   636  0011                     start_initialization:	
   637                           ; #config settings
   638                           
   639  0011                     __initialization:
   640                           
   641                           ; Clear objects allocated to COMMON
   642  0011  01FA               	clrf	__pbssCOMMON& (0+127)
   643  0012  01FB               	clrf	(__pbssCOMMON+1)& (0+127)
   644  0013  01FC               	clrf	(__pbssCOMMON+2)& (0+127)
   645  0014  01FD               	clrf	(__pbssCOMMON+3)& (0+127)
   646                           
   647                           ; Clear objects allocated to BANK0
   648  0015  1283               	bcf	3,5	;RP0=0, select bank0
   649  0016  1303               	bcf	3,6	;RP1=0, select bank0
   650  0017  01B7               	clrf	__pbssBANK0& (0+127)
   651  0018  01B8               	clrf	(__pbssBANK0+1)& (0+127)
   652  0019  01B9               	clrf	(__pbssBANK0+2)& (0+127)
   653  001A  01BA               	clrf	(__pbssBANK0+3)& (0+127)
   654  001B  01BB               	clrf	(__pbssBANK0+4)& (0+127)
   655  001C                     end_of_initialization:	
   656                           ;End of C runtime variable initialization code
   657                           
   658  001C                     __end_of__initialization:
   659  001C  0183               	clrf	3
   660  001D  120A  118A  2F0B   	ljmp	_main	;jump to C main() function
   661                           
   662                           	psect	bssCOMMON
   663  007A                     __pbssCOMMON:
   664  007A                     _FLAGADC:
   665  007A                     	ds	1
   666  007B                     _RECEPCION:
   667  007B                     	ds	1
   668  007C                     _VAR_ADC2:
   669  007C                     	ds	1
   670  007D                     _VAR_ADC1:
   671  007D                     	ds	1
   672                           
   673                           	psect	bssBANK0
   674  0037                     __pbssBANK0:
   675  0037                     _FLAGI:
   676  0037                     	ds	1
   677  0038                     _FLAGD:
   678  0038                     	ds	1
   679  0039                     _FLAGTX:
   680  0039                     	ds	1
   681  003A                     _TOGGLE:
   682  003A                     	ds	1
   683  003B                     _CONTADOR:
   684  003B                     	ds	1
   685                           
   686                           	psect	cstackCOMMON
   687  0070                     __pcstackCOMMON:
   688  0070                     ?_Envio:
   689  0070                     ?_Setup:	
   690                           ; 1 bytes @ 0x0
   691                           
   692  0070                     ?_Lcd_Write_String:	
   693                           ; 1 bytes @ 0x0
   694                           
   695  0070                     ?_Conversiones:	
   696                           ; 1 bytes @ 0x0
   697                           
   698  0070                     ?_Envio_Contador:	
   699                           ; 1 bytes @ 0x0
   700                           
   701  0070                     ?_initOsc:	
   702                           ; 1 bytes @ 0x0
   703                           
   704  0070                     ?_initUART:	
   705                           ; 1 bytes @ 0x0
   706                           
   707  0070                     ?_Lcd_Init:	
   708                           ; 1 bytes @ 0x0
   709                           
   710  0070                     ?_ASCII:	
   711                           ; 1 bytes @ 0x0
   712                           
   713  0070                     ??_ASCII:	
   714                           ; 1 bytes @ 0x0
   715                           
   716  0070                     ?_Cambio:	
   717                           ; 1 bytes @ 0x0
   718                           
   719  0070                     ?_isr:	
   720                           ; 1 bytes @ 0x0
   721                           
   722  0070                     ?_main:	
   723                           ; 1 bytes @ 0x0
   724                           
   725  0070                     ?_Lcd_Port:	
   726                           ; 1 bytes @ 0x0
   727                           
   728  0070                     ?_Lcd_Cmd:	
   729                           ; 1 bytes @ 0x0
   730                           
   731  0070                     ?_Lcd_Write_Char:	
   732                           ; 1 bytes @ 0x0
   733                           
   734  0070                     ?i1_initADC:	
   735                           ; 1 bytes @ 0x0
   736                           
   737  0070                     i1initADC@CHS:	
   738                           ; 1 bytes @ 0x0
   739                           
   740                           
   741                           ; 1 bytes @ 0x0
   742  0070                     	ds	1
   743  0071                     ??i1_initADC:
   744                           
   745                           ; 1 bytes @ 0x1
   746  0071                     	ds	1
   747  0072                     ASCII@valor:
   748                           
   749                           ; 1 bytes @ 0x2
   750  0072                     	ds	1
   751  0073                     ??_Envio:
   752  0073                     i1initADC@ADCS:	
   753                           ; 1 bytes @ 0x3
   754                           
   755                           
   756                           ; 1 bytes @ 0x3
   757  0073                     	ds	2
   758  0075                     Envio@temporal:
   759                           
   760                           ; 1 bytes @ 0x5
   761  0075                     	ds	1
   762  0076                     ??_isr:
   763                           
   764                           ; 1 bytes @ 0x6
   765  0076                     	ds	4
   766                           
   767                           	psect	cstackBANK0
   768  0020                     __pcstackBANK0:
   769  0020                     ?_initADC:
   770  0020                     ??_initOsc:	
   771                           ; 1 bytes @ 0x0
   772                           
   773  0020                     ??_initUART:	
   774                           ; 1 bytes @ 0x0
   775                           
   776  0020                     ??_Cambio:	
   777                           ; 1 bytes @ 0x0
   778                           
   779  0020                     ??_Lcd_Port:	
   780                           ; 1 bytes @ 0x0
   781                           
   782  0020                     ?___bmul:	
   783                           ; 1 bytes @ 0x0
   784                           
   785  0020                     ?___wmul:	
   786                           ; 1 bytes @ 0x0
   787                           
   788  0020                     ?___lwdiv:	
   789                           ; 2 bytes @ 0x0
   790                           
   791  0020                     initADC@CHS:	
   792                           ; 2 bytes @ 0x0
   793                           
   794  0020                     Lcd_Port@a:	
   795                           ; 1 bytes @ 0x0
   796                           
   797  0020                     ___bmul@multiplicand:	
   798                           ; 1 bytes @ 0x0
   799                           
   800  0020                     ___wmul@multiplier:	
   801                           ; 1 bytes @ 0x0
   802                           
   803  0020                     ___lwdiv@divisor:	
   804                           ; 2 bytes @ 0x0
   805                           
   806                           
   807                           ; 2 bytes @ 0x0
   808  0020                     	ds	1
   809  0021                     ??_initADC:
   810  0021                     ??_Lcd_Cmd:	
   811                           ; 1 bytes @ 0x1
   812                           
   813  0021                     ??_Lcd_Write_Char:	
   814                           ; 1 bytes @ 0x1
   815                           
   816  0021                     ??___bmul:	
   817                           ; 1 bytes @ 0x1
   818                           
   819                           
   820                           ; 1 bytes @ 0x1
   821  0021                     	ds	1
   822  0022                     Lcd_Write_Char@a:
   823  0022                     Cambio@numero:	
   824                           ; 1 bytes @ 0x2
   825                           
   826  0022                     initOsc@IRCF:	
   827                           ; 1 bytes @ 0x2
   828                           
   829  0022                     ___bmul@product:	
   830                           ; 1 bytes @ 0x2
   831                           
   832  0022                     ___wmul@multiplicand:	
   833                           ; 1 bytes @ 0x2
   834                           
   835  0022                     ___lwdiv@dividend:	
   836                           ; 2 bytes @ 0x2
   837                           
   838                           
   839                           ; 2 bytes @ 0x2
   840  0022                     	ds	1
   841  0023                     ??_Lcd_Write_String:
   842  0023                     initADC@ADCS:	
   843                           ; 1 bytes @ 0x3
   844                           
   845  0023                     Lcd_Cmd@a:	
   846                           ; 1 bytes @ 0x3
   847                           
   848  0023                     ___bmul@multiplier:	
   849                           ; 1 bytes @ 0x3
   850                           
   851  0023                     Lcd_Write_String@i:	
   852                           ; 1 bytes @ 0x3
   853                           
   854                           
   855                           ; 2 bytes @ 0x3
   856  0023                     	ds	1
   857  0024                     ?_Lcd_Set_Cursor:
   858  0024                     ??_Lcd_Init:	
   859                           ; 1 bytes @ 0x4
   860                           
   861  0024                     ??___wmul:	
   862                           ; 1 bytes @ 0x4
   863                           
   864  0024                     ??___lwdiv:	
   865                           ; 1 bytes @ 0x4
   866                           
   867  0024                     Lcd_Set_Cursor@b:	
   868                           ; 1 bytes @ 0x4
   869                           
   870  0024                     ___wmul@product:	
   871                           ; 1 bytes @ 0x4
   872                           
   873                           
   874                           ; 2 bytes @ 0x4
   875  0024                     	ds	1
   876  0025                     ??_Lcd_Set_Cursor:
   877  0025                     Lcd_Set_Cursor@a:	
   878                           ; 1 bytes @ 0x5
   879                           
   880  0025                     Lcd_Write_String@a:	
   881                           ; 1 bytes @ 0x5
   882                           
   883  0025                     ___lwdiv@quotient:	
   884                           ; 1 bytes @ 0x5
   885                           
   886                           
   887                           ; 2 bytes @ 0x5
   888  0025                     	ds	1
   889  0026                     ??_Setup:
   890  0026                     ?___awdiv:	
   891                           ; 1 bytes @ 0x6
   892                           
   893  0026                     ___awdiv@divisor:	
   894                           ; 2 bytes @ 0x6
   895                           
   896                           
   897                           ; 2 bytes @ 0x6
   898  0026                     	ds	1
   899  0027                     ___lwdiv@counter:
   900                           
   901                           ; 1 bytes @ 0x7
   902  0027                     	ds	1
   903  0028                     ___awdiv@dividend:
   904                           
   905                           ; 2 bytes @ 0x8
   906  0028                     	ds	2
   907  002A                     ??___awdiv:
   908                           
   909                           ; 1 bytes @ 0xA
   910  002A                     	ds	1
   911  002B                     ___awdiv@counter:
   912                           
   913                           ; 1 bytes @ 0xB
   914  002B                     	ds	1
   915  002C                     ___awdiv@sign:
   916                           
   917                           ; 1 bytes @ 0xC
   918  002C                     	ds	1
   919  002D                     ___awdiv@quotient:
   920                           
   921                           ; 2 bytes @ 0xD
   922  002D                     	ds	2
   923  002F                     ??_Conversiones:
   924  002F                     ??_Envio_Contador:	
   925                           ; 1 bytes @ 0xF
   926                           
   927                           
   928                           ; 1 bytes @ 0xF
   929  002F                     	ds	2
   930  0031                     Conversiones@centimas:
   931                           
   932                           ; 1 bytes @ 0x11
   933  0031                     	ds	1
   934  0032                     Conversiones@unidades:
   935  0032                     Envio_Contador@centimas:	
   936                           ; 1 bytes @ 0x12
   937                           
   938                           
   939                           ; 1 bytes @ 0x12
   940  0032                     	ds	1
   941  0033                     Conversiones@decimas:
   942  0033                     Envio_Contador@unidades:	
   943                           ; 1 bytes @ 0x13
   944                           
   945                           
   946                           ; 1 bytes @ 0x13
   947  0033                     	ds	1
   948  0034                     Envio_Contador@decimas:
   949  0034                     Conversiones@temporal:	
   950                           ; 1 bytes @ 0x14
   951                           
   952                           
   953                           ; 2 bytes @ 0x14
   954  0034                     	ds	1
   955  0035                     Envio_Contador@temporal:
   956                           
   957                           ; 1 bytes @ 0x15
   958  0035                     	ds	1
   959  0036                     ??_main:
   960                           
   961                           ; 1 bytes @ 0x16
   962  0036                     	ds	1
   963                           
   964                           	psect	maintext
   965  070B                     __pmaintext:	
   966 ;;
   967 ;;Main: autosize = 0, tempsize = 1, incstack = 0, save=0
   968 ;;
   969 ;; *************** function _main *****************
   970 ;; Defined at:
   971 ;;		line 126 in file "code.c"
   972 ;; Parameters:    Size  Location     Type
   973 ;;		None
   974 ;; Auto vars:     Size  Location     Type
   975 ;;		None
   976 ;; Return value:  Size  Location     Type
   977 ;;                  1    wreg      void 
   978 ;; Registers used:
   979 ;;		wreg, fsr0l, fsr0h, status,2, status,0, pclath, cstack
   980 ;; Tracked objects:
   981 ;;		On entry : B00/0
   982 ;;		On exit  : 0/0
   983 ;;		Unchanged: 0/0
   984 ;; Data sizes:     COMMON   BANK0   BANK1   BANK3   BANK2
   985 ;;      Params:         0       0       0       0       0
   986 ;;      Locals:         0       0       0       0       0
   987 ;;      Temps:          0       1       0       0       0
   988 ;;      Totals:         0       1       0       0       0
   989 ;;Total ram usage:        1 bytes
   990 ;; Hardware stack levels required when called:    7
   991 ;; This function calls:
   992 ;;		_Conversiones
   993 ;;		_Envio_Contador
   994 ;;		_Lcd_Set_Cursor
   995 ;;		_Lcd_Write_String
   996 ;;		_Setup
   997 ;; This function is called by:
   998 ;;		Startup code after reset
   999 ;; This function uses a non-reentrant model
  1000 ;;
  1001                           
  1002                           
  1003                           ;psect for function _main
  1004  070B                     _main:
  1005  070B                     l2382:	
  1006                           ;incstack = 0
  1007                           ; Regs used in _main: [wreg-fsr0h+status,2+status,0+pclath+cstack]
  1008                           
  1009                           
  1010                           ;code.c: 127:     Setup();
  1011  070B  120A  118A  279D  120A  118A  	fcall	_Setup
  1012                           
  1013                           ;code.c: 128:     Lcd_Write_String("Sen 1");
  1014  0710  3001               	movlw	(low ((STR_1-__stringbase)| (0+32768)))& (0+255)
  1015  0711  120A  158A  2796  120A  118A  	fcall	_Lcd_Write_String
  1016  0716                     l2384:
  1017                           
  1018                           ;code.c: 129:     Lcd_Set_Cursor(1, 7);
  1019  0716  3007               	movlw	7
  1020  0717  1283               	bcf	3,5	;RP0=0, select bank0
  1021  0718  1303               	bcf	3,6	;RP1=0, select bank0
  1022  0719  00B6               	movwf	??_main
  1023  071A  0836               	movf	??_main,w
  1024  071B  00A4               	movwf	Lcd_Set_Cursor@b
  1025  071C  3001               	movlw	1
  1026  071D  120A  118A  27DE  120A  118A  	fcall	_Lcd_Set_Cursor
  1027  0722                     l2386:
  1028                           
  1029                           ;code.c: 130:     Lcd_Write_String("Sen 2");
  1030  0722  3007               	movlw	(low ((STR_2-__stringbase)| (0+32768)))& (0+255)
  1031  0723  120A  158A  2796  120A  118A  	fcall	_Lcd_Write_String
  1032                           
  1033                           ;code.c: 131:     Lcd_Set_Cursor(1, 13);
  1034  0728  300D               	movlw	13
  1035  0729  1283               	bcf	3,5	;RP0=0, select bank0
  1036  072A  1303               	bcf	3,6	;RP1=0, select bank0
  1037  072B  00B6               	movwf	??_main
  1038  072C  0836               	movf	??_main,w
  1039  072D  00A4               	movwf	Lcd_Set_Cursor@b
  1040  072E  3001               	movlw	1
  1041  072F  120A  118A  27DE  120A  118A  	fcall	_Lcd_Set_Cursor
  1042  0734                     l2388:
  1043                           
  1044                           ;code.c: 132:     Lcd_Write_String("Cont");
  1045  0734  300D               	movlw	(low ((STR_3-__stringbase)| (0+32768)))& (0+255)
  1046  0735  120A  158A  2796  120A  118A  	fcall	_Lcd_Write_String
  1047  073A                     l2390:
  1048                           
  1049                           ;code.c: 135:         if(CONTADOR>10){
  1050  073A  300B               	movlw	11
  1051  073B  1283               	bcf	3,5	;RP0=0, select bank0
  1052  073C  1303               	bcf	3,6	;RP1=0, select bank0
  1053  073D  023B               	subwf	_CONTADOR,w
  1054  073E  1C03               	skipc
  1055  073F  2F41               	goto	u881
  1056  0740  2F42               	goto	u880
  1057  0741                     u881:
  1058  0741  2F49               	goto	l2396
  1059  0742                     u880:
  1060  0742                     l2392:
  1061                           
  1062                           ;code.c: 136:             ADCON0bits.GO_nDONE = 1;
  1063  0742  149F               	bsf	31,1	;volatile
  1064                           
  1065                           ;code.c: 137:             PIE1bits.TXIE = 1;
  1066  0743  1683               	bsf	3,5	;RP0=1, select bank1
  1067  0744  1303               	bcf	3,6	;RP1=0, select bank1
  1068  0745  160C               	bsf	12,4	;volatile
  1069  0746                     l2394:
  1070                           
  1071                           ;code.c: 138:             CONTADOR = 0;
  1072  0746  1283               	bcf	3,5	;RP0=0, select bank0
  1073  0747  1303               	bcf	3,6	;RP1=0, select bank0
  1074  0748  01BB               	clrf	_CONTADOR
  1075  0749                     l2396:
  1076                           
  1077                           ;code.c: 140:         Conversiones();
  1078  0749  120A  118A  2020  120A  118A  	fcall	_Conversiones
  1079  074E                     l2398:
  1080                           
  1081                           ;code.c: 141:         Envio_Contador();
  1082  074E  120A  118A  23AC  120A  118A  	fcall	_Envio_Contador
  1083  0753  2F3A               	goto	l2390
  1084  0754  120A  118A  280E   	ljmp	start
  1085  0757                     __end_of_main:
  1086                           
  1087                           	psect	text1
  1088  079D                     __ptext1:	
  1089 ;; *************** function _Setup *****************
  1090 ;; Defined at:
  1091 ;;		line 148 in file "code.c"
  1092 ;; Parameters:    Size  Location     Type
  1093 ;;		None
  1094 ;; Auto vars:     Size  Location     Type
  1095 ;;		None
  1096 ;; Return value:  Size  Location     Type
  1097 ;;                  1    wreg      void 
  1098 ;; Registers used:
  1099 ;;		wreg, fsr0l, fsr0h, status,2, status,0, pclath, cstack
  1100 ;; Tracked objects:
  1101 ;;		On entry : 0/0
  1102 ;;		On exit  : 0/0
  1103 ;;		Unchanged: 0/0
  1104 ;; Data sizes:     COMMON   BANK0   BANK1   BANK3   BANK2
  1105 ;;      Params:         0       0       0       0       0
  1106 ;;      Locals:         0       0       0       0       0
  1107 ;;      Temps:          0       1       0       0       0
  1108 ;;      Totals:         0       1       0       0       0
  1109 ;;Total ram usage:        1 bytes
  1110 ;; Hardware stack levels used:    1
  1111 ;; Hardware stack levels required when called:    6
  1112 ;; This function calls:
  1113 ;;		_Lcd_Init
  1114 ;;		_initADC
  1115 ;;		_initOsc
  1116 ;;		_initUART
  1117 ;; This function is called by:
  1118 ;;		_main
  1119 ;; This function uses a non-reentrant model
  1120 ;;
  1121                           
  1122                           
  1123                           ;psect for function _Setup
  1124  079D                     _Setup:
  1125  079D                     l2182:	
  1126                           ;incstack = 0
  1127                           ; Regs used in _Setup: [wreg-fsr0h+status,2+status,0+pclath+cstack]
  1128                           
  1129                           
  1130                           ;code.c: 150:     PORTA = 0;
  1131  079D  1283               	bcf	3,5	;RP0=0, select bank0
  1132  079E  1303               	bcf	3,6	;RP1=0, select bank0
  1133  079F  0185               	clrf	5	;volatile
  1134                           
  1135                           ;code.c: 151:     PORTB = 0;
  1136  07A0  0186               	clrf	6	;volatile
  1137                           
  1138                           ;code.c: 152:     PORTC = 0;
  1139  07A1  0187               	clrf	7	;volatile
  1140                           
  1141                           ;code.c: 153:     PORTD = 0;
  1142  07A2  0188               	clrf	8	;volatile
  1143                           
  1144                           ;code.c: 154:     PORTE = 0;
  1145  07A3  0189               	clrf	9	;volatile
  1146                           
  1147                           ;code.c: 156:     ANSEL = 0;
  1148  07A4  1683               	bsf	3,5	;RP0=1, select bank3
  1149  07A5  1703               	bsf	3,6	;RP1=1, select bank3
  1150  07A6  0188               	clrf	8	;volatile
  1151  07A7                     l2184:
  1152                           
  1153                           ;code.c: 157:     ANSELbits.ANS5 = 1;
  1154  07A7  1688               	bsf	8,5	;volatile
  1155  07A8                     l2186:
  1156                           
  1157                           ;code.c: 158:     ANSELbits.ANS6 = 1;
  1158  07A8  1708               	bsf	8,6	;volatile
  1159                           
  1160                           ;code.c: 159:     ANSELH = 0;
  1161  07A9  0189               	clrf	9	;volatile
  1162                           
  1163                           ;code.c: 161:     TRISA = 0;
  1164  07AA  1683               	bsf	3,5	;RP0=1, select bank1
  1165  07AB  1303               	bcf	3,6	;RP1=0, select bank1
  1166  07AC  0185               	clrf	5	;volatile
  1167                           
  1168                           ;code.c: 162:     TRISB = 0;
  1169  07AD  0186               	clrf	6	;volatile
  1170  07AE                     l2188:
  1171                           
  1172                           ;code.c: 163:     TRISC = 0b10000000;
  1173  07AE  3080               	movlw	128
  1174  07AF  0087               	movwf	7	;volatile
  1175  07B0                     l2190:
  1176                           
  1177                           ;code.c: 164:     TRISD = 0;
  1178  07B0  0188               	clrf	8	;volatile
  1179                           
  1180                           ;code.c: 165:     TRISE = 3;
  1181  07B1  3003               	movlw	3
  1182  07B2  0089               	movwf	9	;volatile
  1183  07B3                     l2192:
  1184                           
  1185                           ;code.c: 168:     INTCONbits.GIE = 1;
  1186  07B3  178B               	bsf	11,7	;volatile
  1187  07B4                     l2194:
  1188                           
  1189                           ;code.c: 169:     INTCONbits.PEIE = 1;
  1190  07B4  170B               	bsf	11,6	;volatile
  1191  07B5                     l2196:
  1192                           
  1193                           ;code.c: 170:     INTCONbits.T0IE = 1;
  1194  07B5  168B               	bsf	11,5	;volatile
  1195  07B6                     l2198:
  1196                           
  1197                           ;code.c: 171:     INTCONbits.T0IF = 0;
  1198  07B6  110B               	bcf	11,2	;volatile
  1199  07B7                     l2200:
  1200                           
  1201                           ;code.c: 172:     PIE1bits.ADIE = 1;
  1202  07B7  170C               	bsf	12,6	;volatile
  1203  07B8                     l2202:
  1204                           
  1205                           ;code.c: 173:     PIE1bits.RCIE = 1;
  1206  07B8  168C               	bsf	12,5	;volatile
  1207  07B9                     l2204:
  1208                           
  1209                           ;code.c: 174:     PIE1bits.TXIE = 1;
  1210  07B9  160C               	bsf	12,4	;volatile
  1211  07BA                     l2206:
  1212                           
  1213                           ;code.c: 177:     initOsc(6);
  1214  07BA  3006               	movlw	6
  1215  07BB  120A  118A  25F2  120A  118A  	fcall	_initOsc
  1216  07C0                     l2208:
  1217                           
  1218                           ;code.c: 179:     initADC(2,5);
  1219  07C0  3005               	movlw	5
  1220  07C1  1283               	bcf	3,5	;RP0=0, select bank0
  1221  07C2  1303               	bcf	3,6	;RP1=0, select bank0
  1222  07C3  00A6               	movwf	??_Setup
  1223  07C4  0826               	movf	??_Setup,w
  1224  07C5  00A0               	movwf	initADC@CHS
  1225  07C6  3002               	movlw	2
  1226  07C7  120A  118A  22E4  120A  118A  	fcall	_initADC
  1227  07CC                     l2210:
  1228                           
  1229                           ;code.c: 181:     initUART();
  1230  07CC  120A  158A  2711  120A  118A  	fcall	_initUART
  1231  07D1                     l2212:
  1232                           
  1233                           ;code.c: 183:     Lcd_Init();
  1234  07D1  120A  118A  2650  120A  118A  	fcall	_Lcd_Init
  1235  07D6                     l2214:
  1236                           
  1237                           ;code.c: 185:     WDTCON = 0;
  1238  07D6  1283               	bcf	3,5	;RP0=0, select bank2
  1239  07D7  1703               	bsf	3,6	;RP1=1, select bank2
  1240  07D8  0185               	clrf	5	;volatile
  1241  07D9                     l2216:
  1242                           
  1243                           ;code.c: 186:     OPTION_REG = 0b11010111;
  1244  07D9  30D7               	movlw	215
  1245  07DA  1683               	bsf	3,5	;RP0=1, select bank1
  1246  07DB  1303               	bcf	3,6	;RP1=0, select bank1
  1247  07DC  0081               	movwf	1	;volatile
  1248  07DD                     l120:
  1249  07DD  0008               	return
  1250  07DE                     __end_of_Setup:
  1251                           
  1252                           	psect	text2
  1253  0F11                     __ptext2:	
  1254 ;; *************** function _initUART *****************
  1255 ;; Defined at:
  1256 ;;		line 6 in file "E:/UVG/Semestre 5/Digital2/Lab3/Lab3.X/USART.c"
  1257 ;; Parameters:    Size  Location     Type
  1258 ;;		None
  1259 ;; Auto vars:     Size  Location     Type
  1260 ;;		None
  1261 ;; Return value:  Size  Location     Type
  1262 ;;                  1    wreg      void 
  1263 ;; Registers used:
  1264 ;;		wreg, status,2
  1265 ;; Tracked objects:
  1266 ;;		On entry : 0/0
  1267 ;;		On exit  : 0/0
  1268 ;;		Unchanged: 0/0
  1269 ;; Data sizes:     COMMON   BANK0   BANK1   BANK3   BANK2
  1270 ;;      Params:         0       0       0       0       0
  1271 ;;      Locals:         0       0       0       0       0
  1272 ;;      Temps:          0       0       0       0       0
  1273 ;;      Totals:         0       0       0       0       0
  1274 ;;Total ram usage:        0 bytes
  1275 ;; Hardware stack levels used:    1
  1276 ;; Hardware stack levels required when called:    3
  1277 ;; This function calls:
  1278 ;;		Nothing
  1279 ;; This function is called by:
  1280 ;;		_Setup
  1281 ;; This function uses a non-reentrant model
  1282 ;;
  1283                           
  1284                           
  1285                           ;psect for function _initUART
  1286  0F11                     _initUART:
  1287  0F11                     l1790:	
  1288                           ;incstack = 0
  1289                           ; Regs used in _initUART: [wreg+status,2]
  1290                           
  1291                           
  1292                           ;E:/UVG/Semestre 5/Digital2/Lab3/Lab3.X/USART.c: 8:     TXSTAbits.TX9 = 0;
  1293  0F11  1683               	bsf	3,5	;RP0=1, select bank1
  1294  0F12  1303               	bcf	3,6	;RP1=0, select bank1
  1295  0F13  1318               	bcf	24,6	;volatile
  1296                           
  1297                           ;E:/UVG/Semestre 5/Digital2/Lab3/Lab3.X/USART.c: 9:     TXSTAbits.SYNC = 0;
  1298  0F14  1218               	bcf	24,4	;volatile
  1299                           
  1300                           ;E:/UVG/Semestre 5/Digital2/Lab3/Lab3.X/USART.c: 10:     TXSTAbits.BRGH = 1;
  1301  0F15  1518               	bsf	24,2	;volatile
  1302                           
  1303                           ;E:/UVG/Semestre 5/Digital2/Lab3/Lab3.X/USART.c: 11:     BAUDCTLbits.BRG16 = 0;
  1304  0F16  1683               	bsf	3,5	;RP0=1, select bank3
  1305  0F17  1703               	bsf	3,6	;RP1=1, select bank3
  1306  0F18  1187               	bcf	7,3	;volatile
  1307  0F19                     l1792:
  1308                           
  1309                           ;E:/UVG/Semestre 5/Digital2/Lab3/Lab3.X/USART.c: 12:     SPBRG = 25;
  1310  0F19  3019               	movlw	25
  1311  0F1A  1683               	bsf	3,5	;RP0=1, select bank1
  1312  0F1B  1303               	bcf	3,6	;RP1=0, select bank1
  1313  0F1C  0099               	movwf	25	;volatile
  1314  0F1D                     l1794:
  1315                           
  1316                           ;E:/UVG/Semestre 5/Digital2/Lab3/Lab3.X/USART.c: 13:     SPBRGH = 0;
  1317  0F1D  019A               	clrf	26	;volatile
  1318  0F1E                     l1796:
  1319                           
  1320                           ;E:/UVG/Semestre 5/Digital2/Lab3/Lab3.X/USART.c: 14:     TXSTAbits.TXEN = 1;
  1321  0F1E  1698               	bsf	24,5	;volatile
  1322  0F1F                     l1798:
  1323                           
  1324                           ;E:/UVG/Semestre 5/Digital2/Lab3/Lab3.X/USART.c: 17:     RCSTAbits.SPEN = 1;
  1325  0F1F  1283               	bcf	3,5	;RP0=0, select bank0
  1326  0F20  1303               	bcf	3,6	;RP1=0, select bank0
  1327  0F21  1798               	bsf	24,7	;volatile
  1328  0F22                     l1800:
  1329                           
  1330                           ;E:/UVG/Semestre 5/Digital2/Lab3/Lab3.X/USART.c: 18:     RCSTAbits.RX9 = 0;
  1331  0F22  1318               	bcf	24,6	;volatile
  1332  0F23                     l1802:
  1333                           
  1334                           ;E:/UVG/Semestre 5/Digital2/Lab3/Lab3.X/USART.c: 19:     RCSTAbits.CREN = 1;
  1335  0F23  1618               	bsf	24,4	;volatile
  1336  0F24                     l259:
  1337  0F24  0008               	return
  1338  0F25                     __end_of_initUART:
  1339                           
  1340                           	psect	text3
  1341  05F2                     __ptext3:	
  1342 ;; *************** function _initOsc *****************
  1343 ;; Defined at:
  1344 ;;		line 6 in file "E:/UVG/Semestre 5/Digital2/Lab3/Lab3.X/Oscilador.c"
  1345 ;; Parameters:    Size  Location     Type
  1346 ;;  IRCF            1    wreg     unsigned char 
  1347 ;; Auto vars:     Size  Location     Type
  1348 ;;  IRCF            1    2[BANK0 ] unsigned char 
  1349 ;; Return value:  Size  Location     Type
  1350 ;;                  1    wreg      void 
  1351 ;; Registers used:
  1352 ;;		wreg, fsr0l, fsr0h, status,2, status,0
  1353 ;; Tracked objects:
  1354 ;;		On entry : 0/0
  1355 ;;		On exit  : 0/0
  1356 ;;		Unchanged: 0/0
  1357 ;; Data sizes:     COMMON   BANK0   BANK1   BANK3   BANK2
  1358 ;;      Params:         0       0       0       0       0
  1359 ;;      Locals:         0       1       0       0       0
  1360 ;;      Temps:          0       2       0       0       0
  1361 ;;      Totals:         0       3       0       0       0
  1362 ;;Total ram usage:        3 bytes
  1363 ;; Hardware stack levels used:    1
  1364 ;; Hardware stack levels required when called:    3
  1365 ;; This function calls:
  1366 ;;		Nothing
  1367 ;; This function is called by:
  1368 ;;		_Setup
  1369 ;; This function uses a non-reentrant model
  1370 ;;
  1371                           
  1372                           
  1373                           ;psect for function _initOsc
  1374  05F2                     _initOsc:
  1375                           
  1376                           ;incstack = 0
  1377                           ; Regs used in _initOsc: [wreg-fsr0h+status,2+status,0]
  1378                           ;initOsc@IRCF stored from wreg
  1379  05F2  1283               	bcf	3,5	;RP0=0, select bank0
  1380  05F3  1303               	bcf	3,6	;RP1=0, select bank0
  1381  05F4  00A2               	movwf	initOsc@IRCF
  1382  05F5                     l1778:
  1383                           
  1384                           ;E:/UVG/Semestre 5/Digital2/Lab3/Lab3.X/Oscilador.c: 8:     switch(IRCF){
  1385  05F5  2E2C               	goto	l1782
  1386  05F6                     l236:	
  1387                           ;E:/UVG/Semestre 5/Digital2/Lab3/Lab3.X/Oscilador.c: 9:         case 0:
  1388                           
  1389                           
  1390                           ;E:/UVG/Semestre 5/Digital2/Lab3/Lab3.X/Oscilador.c: 10:             OSCCONbits.IRCF2 = 
      +                          0;
  1391  05F6  1683               	bsf	3,5	;RP0=1, select bank1
  1392  05F7  1303               	bcf	3,6	;RP1=0, select bank1
  1393  05F8  130F               	bcf	15,6	;volatile
  1394                           
  1395                           ;E:/UVG/Semestre 5/Digital2/Lab3/Lab3.X/Oscilador.c: 11:             OSCCONbits.IRCF1 = 
      +                          0;
  1396  05F9  128F               	bcf	15,5	;volatile
  1397                           
  1398                           ;E:/UVG/Semestre 5/Digital2/Lab3/Lab3.X/Oscilador.c: 12:             OSCCONbits.IRCF0 = 
      +                          0;
  1399  05FA  120F               	bcf	15,4	;volatile
  1400                           
  1401                           ;E:/UVG/Semestre 5/Digital2/Lab3/Lab3.X/Oscilador.c: 13:             break;
  1402  05FB  2E4E               	goto	l237
  1403  05FC                     l238:	
  1404                           ;E:/UVG/Semestre 5/Digital2/Lab3/Lab3.X/Oscilador.c: 14:         case 1:
  1405                           
  1406                           
  1407                           ;E:/UVG/Semestre 5/Digital2/Lab3/Lab3.X/Oscilador.c: 15:             OSCCONbits.IRCF2 = 
      +                          0;
  1408  05FC  1683               	bsf	3,5	;RP0=1, select bank1
  1409  05FD  1303               	bcf	3,6	;RP1=0, select bank1
  1410  05FE  130F               	bcf	15,6	;volatile
  1411                           
  1412                           ;E:/UVG/Semestre 5/Digital2/Lab3/Lab3.X/Oscilador.c: 16:             OSCCONbits.IRCF1 = 
      +                          0;
  1413  05FF  128F               	bcf	15,5	;volatile
  1414                           
  1415                           ;E:/UVG/Semestre 5/Digital2/Lab3/Lab3.X/Oscilador.c: 17:             OSCCONbits.IRCF0 = 
      +                          1;
  1416  0600  160F               	bsf	15,4	;volatile
  1417                           
  1418                           ;E:/UVG/Semestre 5/Digital2/Lab3/Lab3.X/Oscilador.c: 18:             break;
  1419  0601  2E4E               	goto	l237
  1420  0602                     l239:	
  1421                           ;E:/UVG/Semestre 5/Digital2/Lab3/Lab3.X/Oscilador.c: 19:         case 2:
  1422                           
  1423                           
  1424                           ;E:/UVG/Semestre 5/Digital2/Lab3/Lab3.X/Oscilador.c: 20:             OSCCONbits.IRCF2 = 
      +                          0;
  1425  0602  1683               	bsf	3,5	;RP0=1, select bank1
  1426  0603  1303               	bcf	3,6	;RP1=0, select bank1
  1427  0604  130F               	bcf	15,6	;volatile
  1428                           
  1429                           ;E:/UVG/Semestre 5/Digital2/Lab3/Lab3.X/Oscilador.c: 21:             OSCCONbits.IRCF1 = 
      +                          1;
  1430  0605  168F               	bsf	15,5	;volatile
  1431                           
  1432                           ;E:/UVG/Semestre 5/Digital2/Lab3/Lab3.X/Oscilador.c: 22:             OSCCONbits.IRCF0 = 
      +                          0;
  1433  0606  120F               	bcf	15,4	;volatile
  1434                           
  1435                           ;E:/UVG/Semestre 5/Digital2/Lab3/Lab3.X/Oscilador.c: 23:             break;
  1436  0607  2E4E               	goto	l237
  1437  0608                     l240:	
  1438                           ;E:/UVG/Semestre 5/Digital2/Lab3/Lab3.X/Oscilador.c: 24:         case 3:
  1439                           
  1440                           
  1441                           ;E:/UVG/Semestre 5/Digital2/Lab3/Lab3.X/Oscilador.c: 25:             OSCCONbits.IRCF2 = 
      +                          0;
  1442  0608  1683               	bsf	3,5	;RP0=1, select bank1
  1443  0609  1303               	bcf	3,6	;RP1=0, select bank1
  1444  060A  130F               	bcf	15,6	;volatile
  1445                           
  1446                           ;E:/UVG/Semestre 5/Digital2/Lab3/Lab3.X/Oscilador.c: 26:             OSCCONbits.IRCF1 = 
      +                          1;
  1447  060B  168F               	bsf	15,5	;volatile
  1448                           
  1449                           ;E:/UVG/Semestre 5/Digital2/Lab3/Lab3.X/Oscilador.c: 27:             OSCCONbits.IRCF0 = 
      +                          1;
  1450  060C  160F               	bsf	15,4	;volatile
  1451                           
  1452                           ;E:/UVG/Semestre 5/Digital2/Lab3/Lab3.X/Oscilador.c: 28:             break;
  1453  060D  2E4E               	goto	l237
  1454  060E                     l241:	
  1455                           ;E:/UVG/Semestre 5/Digital2/Lab3/Lab3.X/Oscilador.c: 29:         case 4:
  1456                           
  1457                           
  1458                           ;E:/UVG/Semestre 5/Digital2/Lab3/Lab3.X/Oscilador.c: 30:             OSCCONbits.IRCF2 = 
      +                          1;
  1459  060E  1683               	bsf	3,5	;RP0=1, select bank1
  1460  060F  1303               	bcf	3,6	;RP1=0, select bank1
  1461  0610  170F               	bsf	15,6	;volatile
  1462                           
  1463                           ;E:/UVG/Semestre 5/Digital2/Lab3/Lab3.X/Oscilador.c: 31:             OSCCONbits.IRCF1 = 
      +                          0;
  1464  0611  128F               	bcf	15,5	;volatile
  1465                           
  1466                           ;E:/UVG/Semestre 5/Digital2/Lab3/Lab3.X/Oscilador.c: 32:             OSCCONbits.IRCF0 = 
      +                          0;
  1467  0612  120F               	bcf	15,4	;volatile
  1468                           
  1469                           ;E:/UVG/Semestre 5/Digital2/Lab3/Lab3.X/Oscilador.c: 33:             break;
  1470  0613  2E4E               	goto	l237
  1471  0614                     l242:	
  1472                           ;E:/UVG/Semestre 5/Digital2/Lab3/Lab3.X/Oscilador.c: 34:         case 5:
  1473                           
  1474                           
  1475                           ;E:/UVG/Semestre 5/Digital2/Lab3/Lab3.X/Oscilador.c: 35:             OSCCONbits.IRCF2 = 
      +                          1;
  1476  0614  1683               	bsf	3,5	;RP0=1, select bank1
  1477  0615  1303               	bcf	3,6	;RP1=0, select bank1
  1478  0616  170F               	bsf	15,6	;volatile
  1479                           
  1480                           ;E:/UVG/Semestre 5/Digital2/Lab3/Lab3.X/Oscilador.c: 36:             OSCCONbits.IRCF1 = 
      +                          0;
  1481  0617  128F               	bcf	15,5	;volatile
  1482                           
  1483                           ;E:/UVG/Semestre 5/Digital2/Lab3/Lab3.X/Oscilador.c: 37:             OSCCONbits.IRCF0 = 
      +                          1;
  1484  0618  160F               	bsf	15,4	;volatile
  1485                           
  1486                           ;E:/UVG/Semestre 5/Digital2/Lab3/Lab3.X/Oscilador.c: 38:             break;
  1487  0619  2E4E               	goto	l237
  1488  061A                     l243:	
  1489                           ;E:/UVG/Semestre 5/Digital2/Lab3/Lab3.X/Oscilador.c: 39:         case 6:
  1490                           
  1491                           
  1492                           ;E:/UVG/Semestre 5/Digital2/Lab3/Lab3.X/Oscilador.c: 40:             OSCCONbits.IRCF2 = 
      +                          1;
  1493  061A  1683               	bsf	3,5	;RP0=1, select bank1
  1494  061B  1303               	bcf	3,6	;RP1=0, select bank1
  1495  061C  170F               	bsf	15,6	;volatile
  1496                           
  1497                           ;E:/UVG/Semestre 5/Digital2/Lab3/Lab3.X/Oscilador.c: 41:             OSCCONbits.IRCF1 = 
      +                          1;
  1498  061D  168F               	bsf	15,5	;volatile
  1499                           
  1500                           ;E:/UVG/Semestre 5/Digital2/Lab3/Lab3.X/Oscilador.c: 42:             OSCCONbits.IRCF0 = 
      +                          0;
  1501  061E  120F               	bcf	15,4	;volatile
  1502                           
  1503                           ;E:/UVG/Semestre 5/Digital2/Lab3/Lab3.X/Oscilador.c: 43:             break;
  1504  061F  2E4E               	goto	l237
  1505  0620                     l244:	
  1506                           ;E:/UVG/Semestre 5/Digital2/Lab3/Lab3.X/Oscilador.c: 44:         case 7:
  1507                           
  1508                           
  1509                           ;E:/UVG/Semestre 5/Digital2/Lab3/Lab3.X/Oscilador.c: 45:             OSCCONbits.IRCF2 = 
      +                          1;
  1510  0620  1683               	bsf	3,5	;RP0=1, select bank1
  1511  0621  1303               	bcf	3,6	;RP1=0, select bank1
  1512  0622  170F               	bsf	15,6	;volatile
  1513                           
  1514                           ;E:/UVG/Semestre 5/Digital2/Lab3/Lab3.X/Oscilador.c: 46:             OSCCONbits.IRCF1 = 
      +                          1;
  1515  0623  168F               	bsf	15,5	;volatile
  1516                           
  1517                           ;E:/UVG/Semestre 5/Digital2/Lab3/Lab3.X/Oscilador.c: 47:             OSCCONbits.IRCF0 = 
      +                          1;
  1518  0624  160F               	bsf	15,4	;volatile
  1519                           
  1520                           ;E:/UVG/Semestre 5/Digital2/Lab3/Lab3.X/Oscilador.c: 48:             break;
  1521  0625  2E4E               	goto	l237
  1522  0626                     l245:	
  1523                           ;E:/UVG/Semestre 5/Digital2/Lab3/Lab3.X/Oscilador.c: 49:         default:
  1524                           
  1525                           
  1526                           ;E:/UVG/Semestre 5/Digital2/Lab3/Lab3.X/Oscilador.c: 50:             OSCCONbits.IRCF2 = 
      +                          1;
  1527  0626  1683               	bsf	3,5	;RP0=1, select bank1
  1528  0627  1303               	bcf	3,6	;RP1=0, select bank1
  1529  0628  170F               	bsf	15,6	;volatile
  1530                           
  1531                           ;E:/UVG/Semestre 5/Digital2/Lab3/Lab3.X/Oscilador.c: 51:             OSCCONbits.IRCF1 = 
      +                          1;
  1532  0629  168F               	bsf	15,5	;volatile
  1533                           
  1534                           ;E:/UVG/Semestre 5/Digital2/Lab3/Lab3.X/Oscilador.c: 52:             OSCCONbits.IRCF0 = 
      +                          0;
  1535  062A  120F               	bcf	15,4	;volatile
  1536                           
  1537                           ;E:/UVG/Semestre 5/Digital2/Lab3/Lab3.X/Oscilador.c: 53:             break;
  1538  062B  2E4E               	goto	l237
  1539  062C                     l1782:
  1540  062C  0822               	movf	initOsc@IRCF,w
  1541  062D  00A0               	movwf	??_initOsc
  1542  062E  01A1               	clrf	??_initOsc+1
  1543                           
  1544                           ; Switch on 2 bytes has been partitioned into a top level switch of size 1, and 1 sub-sw
      +                          itches
  1545                           ; Switch size 1, requested type "simple"
  1546                           ; Number of cases is 1, Range of values is 0 to 0
  1547                           ; switch strategies available:
  1548                           ; Name         Instructions Cycles
  1549                           ; simple_byte            4     3 (average)
  1550                           ; direct_byte           11     8 (fixed)
  1551                           ; jumptable            260     6 (fixed)
  1552                           ;	Chosen strategy is simple_byte
  1553  062F  0821               	movf	??_initOsc+1,w
  1554  0630  3A00               	xorlw	0	; case 0
  1555  0631  1903               	skipnz
  1556  0632  2E34               	goto	l2616
  1557  0633  2E26               	goto	l245
  1558  0634                     l2616:
  1559                           
  1560                           ; Switch size 1, requested type "simple"
  1561                           ; Number of cases is 8, Range of values is 0 to 7
  1562                           ; switch strategies available:
  1563                           ; Name         Instructions Cycles
  1564                           ; simple_byte           25    13 (average)
  1565                           ; direct_byte           32     8 (fixed)
  1566                           ; jumptable            260     6 (fixed)
  1567                           ;	Chosen strategy is simple_byte
  1568  0634  0820               	movf	??_initOsc,w
  1569  0635  3A00               	xorlw	0	; case 0
  1570  0636  1903               	skipnz
  1571  0637  2DF6               	goto	l236
  1572  0638  3A01               	xorlw	1	; case 1
  1573  0639  1903               	skipnz
  1574  063A  2DFC               	goto	l238
  1575  063B  3A03               	xorlw	3	; case 2
  1576  063C  1903               	skipnz
  1577  063D  2E02               	goto	l239
  1578  063E  3A01               	xorlw	1	; case 3
  1579  063F  1903               	skipnz
  1580  0640  2E08               	goto	l240
  1581  0641  3A07               	xorlw	7	; case 4
  1582  0642  1903               	skipnz
  1583  0643  2E0E               	goto	l241
  1584  0644  3A01               	xorlw	1	; case 5
  1585  0645  1903               	skipnz
  1586  0646  2E14               	goto	l242
  1587  0647  3A03               	xorlw	3	; case 6
  1588  0648  1903               	skipnz
  1589  0649  2E1A               	goto	l243
  1590  064A  3A01               	xorlw	1	; case 7
  1591  064B  1903               	skipnz
  1592  064C  2E20               	goto	l244
  1593  064D  2E26               	goto	l245
  1594  064E                     l237:
  1595                           
  1596                           ;E:/UVG/Semestre 5/Digital2/Lab3/Lab3.X/Oscilador.c: 56:     OSCCONbits.SCS = 1;
  1597  064E  140F               	bsf	15,0	;volatile
  1598  064F                     l246:
  1599  064F  0008               	return
  1600  0650                     __end_of_initOsc:
  1601                           
  1602                           	psect	text4
  1603  02E4                     __ptext4:	
  1604 ;; *************** function _initADC *****************
  1605 ;; Defined at:
  1606 ;;		line 6 in file "E:/UVG/Semestre 5/Digital2/Lab3/Lab3.X/ADC.c"
  1607 ;; Parameters:    Size  Location     Type
  1608 ;;  ADCS            1    wreg     unsigned char 
  1609 ;;  CHS             1    0[BANK0 ] unsigned char 
  1610 ;; Auto vars:     Size  Location     Type
  1611 ;;  ADCS            1    3[BANK0 ] unsigned char 
  1612 ;; Return value:  Size  Location     Type
  1613 ;;                  1    wreg      void 
  1614 ;; Registers used:
  1615 ;;		wreg, fsr0l, fsr0h, status,2, status,0
  1616 ;; Tracked objects:
  1617 ;;		On entry : 0/0
  1618 ;;		On exit  : 0/0
  1619 ;;		Unchanged: 0/0
  1620 ;; Data sizes:     COMMON   BANK0   BANK1   BANK3   BANK2
  1621 ;;      Params:         0       1       0       0       0
  1622 ;;      Locals:         0       1       0       0       0
  1623 ;;      Temps:          0       2       0       0       0
  1624 ;;      Totals:         0       4       0       0       0
  1625 ;;Total ram usage:        4 bytes
  1626 ;; Hardware stack levels used:    1
  1627 ;; Hardware stack levels required when called:    3
  1628 ;; This function calls:
  1629 ;;		Nothing
  1630 ;; This function is called by:
  1631 ;;		_Setup
  1632 ;; This function uses a non-reentrant model
  1633 ;;
  1634                           
  1635                           
  1636                           ;psect for function _initADC
  1637  02E4                     _initADC:
  1638                           
  1639                           ;incstack = 0
  1640                           ; Regs used in _initADC: [wreg-fsr0h+status,2+status,0]
  1641                           ;initADC@ADCS stored from wreg
  1642  02E4  1283               	bcf	3,5	;RP0=0, select bank0
  1643  02E5  1303               	bcf	3,6	;RP1=0, select bank0
  1644  02E6  00A3               	movwf	initADC@ADCS
  1645  02E7                     l1736:
  1646                           
  1647                           ;E:/UVG/Semestre 5/Digital2/Lab3/Lab3.X/ADC.c: 8:     switch(CHS){
  1648  02E7  2B3D               	goto	l1740
  1649  02E8                     l151:	
  1650                           ;E:/UVG/Semestre 5/Digital2/Lab3/Lab3.X/ADC.c: 9:         case 0:
  1651                           
  1652                           
  1653                           ;E:/UVG/Semestre 5/Digital2/Lab3/Lab3.X/ADC.c: 10:             ADCON0bits.CHS3 = 0;
  1654  02E8  129F               	bcf	31,5	;volatile
  1655                           
  1656                           ;E:/UVG/Semestre 5/Digital2/Lab3/Lab3.X/ADC.c: 11:             ADCON0bits.CHS2 = 0;
  1657  02E9  121F               	bcf	31,4	;volatile
  1658                           
  1659                           ;E:/UVG/Semestre 5/Digital2/Lab3/Lab3.X/ADC.c: 12:             ADCON0bits.CHS1 = 0;
  1660  02EA  119F               	bcf	31,3	;volatile
  1661                           
  1662                           ;E:/UVG/Semestre 5/Digital2/Lab3/Lab3.X/ADC.c: 13:             ADCON0bits.CHS0 = 0;
  1663  02EB  111F               	bcf	31,2	;volatile
  1664                           
  1665                           ;E:/UVG/Semestre 5/Digital2/Lab3/Lab3.X/ADC.c: 14:             break;
  1666  02EC  2B86               	goto	l1744
  1667  02ED                     l153:	
  1668                           ;E:/UVG/Semestre 5/Digital2/Lab3/Lab3.X/ADC.c: 15:         case 1:
  1669                           
  1670                           
  1671                           ;E:/UVG/Semestre 5/Digital2/Lab3/Lab3.X/ADC.c: 16:             ADCON0bits.CHS3 = 0;
  1672  02ED  129F               	bcf	31,5	;volatile
  1673                           
  1674                           ;E:/UVG/Semestre 5/Digital2/Lab3/Lab3.X/ADC.c: 17:             ADCON0bits.CHS2 = 0;
  1675  02EE  121F               	bcf	31,4	;volatile
  1676                           
  1677                           ;E:/UVG/Semestre 5/Digital2/Lab3/Lab3.X/ADC.c: 18:             ADCON0bits.CHS1 = 0;
  1678  02EF  119F               	bcf	31,3	;volatile
  1679                           
  1680                           ;E:/UVG/Semestre 5/Digital2/Lab3/Lab3.X/ADC.c: 19:             ADCON0bits.CHS0 = 1;
  1681  02F0  151F               	bsf	31,2	;volatile
  1682                           
  1683                           ;E:/UVG/Semestre 5/Digital2/Lab3/Lab3.X/ADC.c: 20:             break;
  1684  02F1  2B86               	goto	l1744
  1685  02F2                     l154:	
  1686                           ;E:/UVG/Semestre 5/Digital2/Lab3/Lab3.X/ADC.c: 21:         case 2:
  1687                           
  1688                           
  1689                           ;E:/UVG/Semestre 5/Digital2/Lab3/Lab3.X/ADC.c: 22:             ADCON0bits.CHS3 = 0;
  1690  02F2  129F               	bcf	31,5	;volatile
  1691                           
  1692                           ;E:/UVG/Semestre 5/Digital2/Lab3/Lab3.X/ADC.c: 23:             ADCON0bits.CHS2 = 0;
  1693  02F3  121F               	bcf	31,4	;volatile
  1694                           
  1695                           ;E:/UVG/Semestre 5/Digital2/Lab3/Lab3.X/ADC.c: 24:             ADCON0bits.CHS1 = 1;
  1696  02F4  159F               	bsf	31,3	;volatile
  1697                           
  1698                           ;E:/UVG/Semestre 5/Digital2/Lab3/Lab3.X/ADC.c: 25:             ADCON0bits.CHS0 = 0;
  1699  02F5  111F               	bcf	31,2	;volatile
  1700                           
  1701                           ;E:/UVG/Semestre 5/Digital2/Lab3/Lab3.X/ADC.c: 26:             break;
  1702  02F6  2B86               	goto	l1744
  1703  02F7                     l155:	
  1704                           ;E:/UVG/Semestre 5/Digital2/Lab3/Lab3.X/ADC.c: 27:         case 3:
  1705                           
  1706                           
  1707                           ;E:/UVG/Semestre 5/Digital2/Lab3/Lab3.X/ADC.c: 28:             ADCON0bits.CHS3 = 0;
  1708  02F7  129F               	bcf	31,5	;volatile
  1709                           
  1710                           ;E:/UVG/Semestre 5/Digital2/Lab3/Lab3.X/ADC.c: 29:             ADCON0bits.CHS2 = 0;
  1711  02F8  121F               	bcf	31,4	;volatile
  1712                           
  1713                           ;E:/UVG/Semestre 5/Digital2/Lab3/Lab3.X/ADC.c: 30:             ADCON0bits.CHS1 = 1;
  1714  02F9  159F               	bsf	31,3	;volatile
  1715                           
  1716                           ;E:/UVG/Semestre 5/Digital2/Lab3/Lab3.X/ADC.c: 31:             ADCON0bits.CHS0 = 1;
  1717  02FA  151F               	bsf	31,2	;volatile
  1718                           
  1719                           ;E:/UVG/Semestre 5/Digital2/Lab3/Lab3.X/ADC.c: 32:             break;
  1720  02FB  2B86               	goto	l1744
  1721  02FC                     l156:	
  1722                           ;E:/UVG/Semestre 5/Digital2/Lab3/Lab3.X/ADC.c: 33:         case 4:
  1723                           
  1724                           
  1725                           ;E:/UVG/Semestre 5/Digital2/Lab3/Lab3.X/ADC.c: 34:             ADCON0bits.CHS3 = 0;
  1726  02FC  129F               	bcf	31,5	;volatile
  1727                           
  1728                           ;E:/UVG/Semestre 5/Digital2/Lab3/Lab3.X/ADC.c: 35:             ADCON0bits.CHS2 = 1;
  1729  02FD  161F               	bsf	31,4	;volatile
  1730                           
  1731                           ;E:/UVG/Semestre 5/Digital2/Lab3/Lab3.X/ADC.c: 36:             ADCON0bits.CHS1 = 0;
  1732  02FE  119F               	bcf	31,3	;volatile
  1733                           
  1734                           ;E:/UVG/Semestre 5/Digital2/Lab3/Lab3.X/ADC.c: 37:             ADCON0bits.CHS0 = 0;
  1735  02FF  111F               	bcf	31,2	;volatile
  1736                           
  1737                           ;E:/UVG/Semestre 5/Digital2/Lab3/Lab3.X/ADC.c: 38:             break;
  1738  0300  2B86               	goto	l1744
  1739  0301                     l157:	
  1740                           ;E:/UVG/Semestre 5/Digital2/Lab3/Lab3.X/ADC.c: 39:         case 5:
  1741                           
  1742                           
  1743                           ;E:/UVG/Semestre 5/Digital2/Lab3/Lab3.X/ADC.c: 40:             ADCON0bits.CHS3 = 0;
  1744  0301  129F               	bcf	31,5	;volatile
  1745                           
  1746                           ;E:/UVG/Semestre 5/Digital2/Lab3/Lab3.X/ADC.c: 41:             ADCON0bits.CHS2 = 1;
  1747  0302  161F               	bsf	31,4	;volatile
  1748                           
  1749                           ;E:/UVG/Semestre 5/Digital2/Lab3/Lab3.X/ADC.c: 42:             ADCON0bits.CHS1 = 0;
  1750  0303  119F               	bcf	31,3	;volatile
  1751                           
  1752                           ;E:/UVG/Semestre 5/Digital2/Lab3/Lab3.X/ADC.c: 43:             ADCON0bits.CHS0 = 1;
  1753  0304  151F               	bsf	31,2	;volatile
  1754                           
  1755                           ;E:/UVG/Semestre 5/Digital2/Lab3/Lab3.X/ADC.c: 44:             break;
  1756  0305  2B86               	goto	l1744
  1757  0306                     l158:	
  1758                           ;E:/UVG/Semestre 5/Digital2/Lab3/Lab3.X/ADC.c: 45:         case 6:
  1759                           
  1760                           
  1761                           ;E:/UVG/Semestre 5/Digital2/Lab3/Lab3.X/ADC.c: 46:             ADCON0bits.CHS3 = 0;
  1762  0306  129F               	bcf	31,5	;volatile
  1763                           
  1764                           ;E:/UVG/Semestre 5/Digital2/Lab3/Lab3.X/ADC.c: 47:             ADCON0bits.CHS2 = 1;
  1765  0307  161F               	bsf	31,4	;volatile
  1766                           
  1767                           ;E:/UVG/Semestre 5/Digital2/Lab3/Lab3.X/ADC.c: 48:             ADCON0bits.CHS1 = 1;
  1768  0308  159F               	bsf	31,3	;volatile
  1769                           
  1770                           ;E:/UVG/Semestre 5/Digital2/Lab3/Lab3.X/ADC.c: 49:             ADCON0bits.CHS0 = 0;
  1771  0309  111F               	bcf	31,2	;volatile
  1772                           
  1773                           ;E:/UVG/Semestre 5/Digital2/Lab3/Lab3.X/ADC.c: 50:             break;
  1774  030A  2B86               	goto	l1744
  1775  030B                     l159:	
  1776                           ;E:/UVG/Semestre 5/Digital2/Lab3/Lab3.X/ADC.c: 51:         case 7:
  1777                           
  1778                           
  1779                           ;E:/UVG/Semestre 5/Digital2/Lab3/Lab3.X/ADC.c: 52:             ADCON0bits.CHS3 = 0;
  1780  030B  129F               	bcf	31,5	;volatile
  1781                           
  1782                           ;E:/UVG/Semestre 5/Digital2/Lab3/Lab3.X/ADC.c: 53:             ADCON0bits.CHS2 = 1;
  1783  030C  161F               	bsf	31,4	;volatile
  1784                           
  1785                           ;E:/UVG/Semestre 5/Digital2/Lab3/Lab3.X/ADC.c: 54:             ADCON0bits.CHS1 = 1;
  1786  030D  159F               	bsf	31,3	;volatile
  1787                           
  1788                           ;E:/UVG/Semestre 5/Digital2/Lab3/Lab3.X/ADC.c: 55:             ADCON0bits.CHS0 = 1;
  1789  030E  151F               	bsf	31,2	;volatile
  1790                           
  1791                           ;E:/UVG/Semestre 5/Digital2/Lab3/Lab3.X/ADC.c: 56:             break;
  1792  030F  2B86               	goto	l1744
  1793  0310                     l160:	
  1794                           ;E:/UVG/Semestre 5/Digital2/Lab3/Lab3.X/ADC.c: 57:         case 8:
  1795                           
  1796                           
  1797                           ;E:/UVG/Semestre 5/Digital2/Lab3/Lab3.X/ADC.c: 58:             ADCON0bits.CHS3 = 1;
  1798  0310  169F               	bsf	31,5	;volatile
  1799                           
  1800                           ;E:/UVG/Semestre 5/Digital2/Lab3/Lab3.X/ADC.c: 59:             ADCON0bits.CHS2 = 0;
  1801  0311  121F               	bcf	31,4	;volatile
  1802                           
  1803                           ;E:/UVG/Semestre 5/Digital2/Lab3/Lab3.X/ADC.c: 60:             ADCON0bits.CHS1 = 0;
  1804  0312  119F               	bcf	31,3	;volatile
  1805                           
  1806                           ;E:/UVG/Semestre 5/Digital2/Lab3/Lab3.X/ADC.c: 61:             ADCON0bits.CHS0 = 0;
  1807  0313  111F               	bcf	31,2	;volatile
  1808                           
  1809                           ;E:/UVG/Semestre 5/Digital2/Lab3/Lab3.X/ADC.c: 62:             break;
  1810  0314  2B86               	goto	l1744
  1811  0315                     l161:	
  1812                           ;E:/UVG/Semestre 5/Digital2/Lab3/Lab3.X/ADC.c: 63:         case 9:
  1813                           
  1814                           
  1815                           ;E:/UVG/Semestre 5/Digital2/Lab3/Lab3.X/ADC.c: 64:             ADCON0bits.CHS3 = 1;
  1816  0315  169F               	bsf	31,5	;volatile
  1817                           
  1818                           ;E:/UVG/Semestre 5/Digital2/Lab3/Lab3.X/ADC.c: 65:             ADCON0bits.CHS2 = 0;
  1819  0316  121F               	bcf	31,4	;volatile
  1820                           
  1821                           ;E:/UVG/Semestre 5/Digital2/Lab3/Lab3.X/ADC.c: 66:             ADCON0bits.CHS1 = 0;
  1822  0317  119F               	bcf	31,3	;volatile
  1823                           
  1824                           ;E:/UVG/Semestre 5/Digital2/Lab3/Lab3.X/ADC.c: 67:             ADCON0bits.CHS0 = 1;
  1825  0318  151F               	bsf	31,2	;volatile
  1826                           
  1827                           ;E:/UVG/Semestre 5/Digital2/Lab3/Lab3.X/ADC.c: 68:             break;
  1828  0319  2B86               	goto	l1744
  1829  031A                     l162:	
  1830                           ;E:/UVG/Semestre 5/Digital2/Lab3/Lab3.X/ADC.c: 69:         case 10:
  1831                           
  1832                           
  1833                           ;E:/UVG/Semestre 5/Digital2/Lab3/Lab3.X/ADC.c: 70:             ADCON0bits.CHS3 = 1;
  1834  031A  169F               	bsf	31,5	;volatile
  1835                           
  1836                           ;E:/UVG/Semestre 5/Digital2/Lab3/Lab3.X/ADC.c: 71:             ADCON0bits.CHS2 = 0;
  1837  031B  121F               	bcf	31,4	;volatile
  1838                           
  1839                           ;E:/UVG/Semestre 5/Digital2/Lab3/Lab3.X/ADC.c: 72:             ADCON0bits.CHS1 = 1;
  1840  031C  159F               	bsf	31,3	;volatile
  1841                           
  1842                           ;E:/UVG/Semestre 5/Digital2/Lab3/Lab3.X/ADC.c: 73:             ADCON0bits.CHS0 = 0;
  1843  031D  111F               	bcf	31,2	;volatile
  1844                           
  1845                           ;E:/UVG/Semestre 5/Digital2/Lab3/Lab3.X/ADC.c: 74:             break;
  1846  031E  2B86               	goto	l1744
  1847  031F                     l163:	
  1848                           ;E:/UVG/Semestre 5/Digital2/Lab3/Lab3.X/ADC.c: 75:         case 11:
  1849                           
  1850                           
  1851                           ;E:/UVG/Semestre 5/Digital2/Lab3/Lab3.X/ADC.c: 76:             ADCON0bits.CHS3 = 1;
  1852  031F  169F               	bsf	31,5	;volatile
  1853                           
  1854                           ;E:/UVG/Semestre 5/Digital2/Lab3/Lab3.X/ADC.c: 77:             ADCON0bits.CHS2 = 0;
  1855  0320  121F               	bcf	31,4	;volatile
  1856                           
  1857                           ;E:/UVG/Semestre 5/Digital2/Lab3/Lab3.X/ADC.c: 78:             ADCON0bits.CHS1 = 1;
  1858  0321  159F               	bsf	31,3	;volatile
  1859                           
  1860                           ;E:/UVG/Semestre 5/Digital2/Lab3/Lab3.X/ADC.c: 79:             ADCON0bits.CHS0 = 1;
  1861  0322  151F               	bsf	31,2	;volatile
  1862                           
  1863                           ;E:/UVG/Semestre 5/Digital2/Lab3/Lab3.X/ADC.c: 80:             break;
  1864  0323  2B86               	goto	l1744
  1865  0324                     l164:	
  1866                           ;E:/UVG/Semestre 5/Digital2/Lab3/Lab3.X/ADC.c: 81:         case 12:
  1867                           
  1868                           
  1869                           ;E:/UVG/Semestre 5/Digital2/Lab3/Lab3.X/ADC.c: 82:             ADCON0bits.CHS3 = 1;
  1870  0324  169F               	bsf	31,5	;volatile
  1871                           
  1872                           ;E:/UVG/Semestre 5/Digital2/Lab3/Lab3.X/ADC.c: 83:             ADCON0bits.CHS2 = 1;
  1873  0325  161F               	bsf	31,4	;volatile
  1874                           
  1875                           ;E:/UVG/Semestre 5/Digital2/Lab3/Lab3.X/ADC.c: 84:             ADCON0bits.CHS1 = 0;
  1876  0326  119F               	bcf	31,3	;volatile
  1877                           
  1878                           ;E:/UVG/Semestre 5/Digital2/Lab3/Lab3.X/ADC.c: 85:             ADCON0bits.CHS0 = 0;
  1879  0327  111F               	bcf	31,2	;volatile
  1880                           
  1881                           ;E:/UVG/Semestre 5/Digital2/Lab3/Lab3.X/ADC.c: 86:             break;
  1882  0328  2B86               	goto	l1744
  1883  0329                     l165:	
  1884                           ;E:/UVG/Semestre 5/Digital2/Lab3/Lab3.X/ADC.c: 87:         case 13:
  1885                           
  1886                           
  1887                           ;E:/UVG/Semestre 5/Digital2/Lab3/Lab3.X/ADC.c: 88:             ADCON0bits.CHS3 = 1;
  1888  0329  169F               	bsf	31,5	;volatile
  1889                           
  1890                           ;E:/UVG/Semestre 5/Digital2/Lab3/Lab3.X/ADC.c: 89:             ADCON0bits.CHS2 = 1;
  1891  032A  161F               	bsf	31,4	;volatile
  1892                           
  1893                           ;E:/UVG/Semestre 5/Digital2/Lab3/Lab3.X/ADC.c: 90:             ADCON0bits.CHS1 = 0;
  1894  032B  119F               	bcf	31,3	;volatile
  1895                           
  1896                           ;E:/UVG/Semestre 5/Digital2/Lab3/Lab3.X/ADC.c: 91:             ADCON0bits.CHS0 = 1;
  1897  032C  151F               	bsf	31,2	;volatile
  1898                           
  1899                           ;E:/UVG/Semestre 5/Digital2/Lab3/Lab3.X/ADC.c: 92:             break;
  1900  032D  2B86               	goto	l1744
  1901  032E                     l166:	
  1902                           ;E:/UVG/Semestre 5/Digital2/Lab3/Lab3.X/ADC.c: 93:         case 14:
  1903                           
  1904                           
  1905                           ;E:/UVG/Semestre 5/Digital2/Lab3/Lab3.X/ADC.c: 94:             ADCON0bits.CHS3 = 1;
  1906  032E  169F               	bsf	31,5	;volatile
  1907                           
  1908                           ;E:/UVG/Semestre 5/Digital2/Lab3/Lab3.X/ADC.c: 95:             ADCON0bits.CHS2 = 1;
  1909  032F  161F               	bsf	31,4	;volatile
  1910                           
  1911                           ;E:/UVG/Semestre 5/Digital2/Lab3/Lab3.X/ADC.c: 96:             ADCON0bits.CHS1 = 1;
  1912  0330  159F               	bsf	31,3	;volatile
  1913                           
  1914                           ;E:/UVG/Semestre 5/Digital2/Lab3/Lab3.X/ADC.c: 97:             ADCON0bits.CHS0 = 0;
  1915  0331  111F               	bcf	31,2	;volatile
  1916                           
  1917                           ;E:/UVG/Semestre 5/Digital2/Lab3/Lab3.X/ADC.c: 98:             break;
  1918  0332  2B86               	goto	l1744
  1919  0333                     l167:	
  1920                           ;E:/UVG/Semestre 5/Digital2/Lab3/Lab3.X/ADC.c: 99:         case 15:
  1921                           
  1922                           
  1923                           ;E:/UVG/Semestre 5/Digital2/Lab3/Lab3.X/ADC.c: 100:             ADCON0bits.CHS3 = 1;
  1924  0333  169F               	bsf	31,5	;volatile
  1925                           
  1926                           ;E:/UVG/Semestre 5/Digital2/Lab3/Lab3.X/ADC.c: 101:             ADCON0bits.CHS2 = 1;
  1927  0334  161F               	bsf	31,4	;volatile
  1928                           
  1929                           ;E:/UVG/Semestre 5/Digital2/Lab3/Lab3.X/ADC.c: 102:             ADCON0bits.CHS1 = 1;
  1930  0335  159F               	bsf	31,3	;volatile
  1931                           
  1932                           ;E:/UVG/Semestre 5/Digital2/Lab3/Lab3.X/ADC.c: 103:             ADCON0bits.CHS0 = 1;
  1933  0336  151F               	bsf	31,2	;volatile
  1934                           
  1935                           ;E:/UVG/Semestre 5/Digital2/Lab3/Lab3.X/ADC.c: 104:             break;
  1936  0337  2B86               	goto	l1744
  1937  0338                     l168:	
  1938                           ;E:/UVG/Semestre 5/Digital2/Lab3/Lab3.X/ADC.c: 105:         default:
  1939                           
  1940                           
  1941                           ;E:/UVG/Semestre 5/Digital2/Lab3/Lab3.X/ADC.c: 106:             ADCON0bits.CHS3 = 0;
  1942  0338  129F               	bcf	31,5	;volatile
  1943                           
  1944                           ;E:/UVG/Semestre 5/Digital2/Lab3/Lab3.X/ADC.c: 107:             ADCON0bits.CHS2 = 0;
  1945  0339  121F               	bcf	31,4	;volatile
  1946                           
  1947                           ;E:/UVG/Semestre 5/Digital2/Lab3/Lab3.X/ADC.c: 108:             ADCON0bits.CHS1 = 0;
  1948  033A  119F               	bcf	31,3	;volatile
  1949                           
  1950                           ;E:/UVG/Semestre 5/Digital2/Lab3/Lab3.X/ADC.c: 109:             ADCON0bits.CHS0 = 0;
  1951  033B  111F               	bcf	31,2	;volatile
  1952                           
  1953                           ;E:/UVG/Semestre 5/Digital2/Lab3/Lab3.X/ADC.c: 110:             break;
  1954  033C  2B86               	goto	l1744
  1955  033D                     l1740:
  1956  033D  0820               	movf	initADC@CHS,w
  1957  033E  00A1               	movwf	??_initADC
  1958  033F  01A2               	clrf	??_initADC+1
  1959                           
  1960                           ; Switch on 2 bytes has been partitioned into a top level switch of size 1, and 1 sub-sw
      +                          itches
  1961                           ; Switch size 1, requested type "simple"
  1962                           ; Number of cases is 1, Range of values is 0 to 0
  1963                           ; switch strategies available:
  1964                           ; Name         Instructions Cycles
  1965                           ; simple_byte            4     3 (average)
  1966                           ; direct_byte           11     8 (fixed)
  1967                           ; jumptable            260     6 (fixed)
  1968                           ;	Chosen strategy is simple_byte
  1969  0340  0822               	movf	??_initADC+1,w
  1970  0341  3A00               	xorlw	0	; case 0
  1971  0342  1903               	skipnz
  1972  0343  2B45               	goto	l2618
  1973  0344  2B38               	goto	l168
  1974  0345                     l2618:
  1975                           
  1976                           ; Switch size 1, requested type "simple"
  1977                           ; Number of cases is 16, Range of values is 0 to 15
  1978                           ; switch strategies available:
  1979                           ; Name         Instructions Cycles
  1980                           ; simple_byte           49    25 (average)
  1981                           ; direct_byte           56     8 (fixed)
  1982                           ; jumptable            260     6 (fixed)
  1983                           ;	Chosen strategy is simple_byte
  1984  0345  0821               	movf	??_initADC,w
  1985  0346  3A00               	xorlw	0	; case 0
  1986  0347  1903               	skipnz
  1987  0348  2AE8               	goto	l151
  1988  0349  3A01               	xorlw	1	; case 1
  1989  034A  1903               	skipnz
  1990  034B  2AED               	goto	l153
  1991  034C  3A03               	xorlw	3	; case 2
  1992  034D  1903               	skipnz
  1993  034E  2AF2               	goto	l154
  1994  034F  3A01               	xorlw	1	; case 3
  1995  0350  1903               	skipnz
  1996  0351  2AF7               	goto	l155
  1997  0352  3A07               	xorlw	7	; case 4
  1998  0353  1903               	skipnz
  1999  0354  2AFC               	goto	l156
  2000  0355  3A01               	xorlw	1	; case 5
  2001  0356  1903               	skipnz
  2002  0357  2B01               	goto	l157
  2003  0358  3A03               	xorlw	3	; case 6
  2004  0359  1903               	skipnz
  2005  035A  2B06               	goto	l158
  2006  035B  3A01               	xorlw	1	; case 7
  2007  035C  1903               	skipnz
  2008  035D  2B0B               	goto	l159
  2009  035E  3A0F               	xorlw	15	; case 8
  2010  035F  1903               	skipnz
  2011  0360  2B10               	goto	l160
  2012  0361  3A01               	xorlw	1	; case 9
  2013  0362  1903               	skipnz
  2014  0363  2B15               	goto	l161
  2015  0364  3A03               	xorlw	3	; case 10
  2016  0365  1903               	skipnz
  2017  0366  2B1A               	goto	l162
  2018  0367  3A01               	xorlw	1	; case 11
  2019  0368  1903               	skipnz
  2020  0369  2B1F               	goto	l163
  2021  036A  3A07               	xorlw	7	; case 12
  2022  036B  1903               	skipnz
  2023  036C  2B24               	goto	l164
  2024  036D  3A01               	xorlw	1	; case 13
  2025  036E  1903               	skipnz
  2026  036F  2B29               	goto	l165
  2027  0370  3A03               	xorlw	3	; case 14
  2028  0371  1903               	skipnz
  2029  0372  2B2E               	goto	l166
  2030  0373  3A01               	xorlw	1	; case 15
  2031  0374  1903               	skipnz
  2032  0375  2B33               	goto	l167
  2033  0376  2B38               	goto	l168
  2034  0377                     l170:	
  2035                           ;E:/UVG/Semestre 5/Digital2/Lab3/Lab3.X/ADC.c: 114:         case 0:
  2036                           
  2037                           
  2038                           ;E:/UVG/Semestre 5/Digital2/Lab3/Lab3.X/ADC.c: 115:             ADCON0bits.ADCS0 = 0;
  2039  0377  131F               	bcf	31,6	;volatile
  2040                           
  2041                           ;E:/UVG/Semestre 5/Digital2/Lab3/Lab3.X/ADC.c: 116:             ADCON0bits.ADCS0 = 0;
  2042  0378  131F               	bcf	31,6	;volatile
  2043                           
  2044                           ;E:/UVG/Semestre 5/Digital2/Lab3/Lab3.X/ADC.c: 117:             break;
  2045  0379  2B9C               	goto	l171
  2046  037A                     l172:	
  2047                           ;E:/UVG/Semestre 5/Digital2/Lab3/Lab3.X/ADC.c: 118:         case 1:
  2048                           
  2049                           
  2050                           ;E:/UVG/Semestre 5/Digital2/Lab3/Lab3.X/ADC.c: 119:             ADCON0bits.ADCS0 = 0;
  2051  037A  131F               	bcf	31,6	;volatile
  2052                           
  2053                           ;E:/UVG/Semestre 5/Digital2/Lab3/Lab3.X/ADC.c: 120:             ADCON0bits.ADCS0 = 1;
  2054  037B  171F               	bsf	31,6	;volatile
  2055                           
  2056                           ;E:/UVG/Semestre 5/Digital2/Lab3/Lab3.X/ADC.c: 121:             break;
  2057  037C  2B9C               	goto	l171
  2058  037D                     l173:	
  2059                           ;E:/UVG/Semestre 5/Digital2/Lab3/Lab3.X/ADC.c: 122:         case 2:
  2060                           
  2061                           
  2062                           ;E:/UVG/Semestre 5/Digital2/Lab3/Lab3.X/ADC.c: 123:             ADCON0bits.ADCS0 = 1;
  2063  037D  171F               	bsf	31,6	;volatile
  2064                           
  2065                           ;E:/UVG/Semestre 5/Digital2/Lab3/Lab3.X/ADC.c: 124:             ADCON0bits.ADCS0 = 0;
  2066  037E  131F               	bcf	31,6	;volatile
  2067                           
  2068                           ;E:/UVG/Semestre 5/Digital2/Lab3/Lab3.X/ADC.c: 125:             break;
  2069  037F  2B9C               	goto	l171
  2070  0380                     l174:	
  2071                           ;E:/UVG/Semestre 5/Digital2/Lab3/Lab3.X/ADC.c: 126:         case 3:
  2072                           
  2073                           
  2074                           ;E:/UVG/Semestre 5/Digital2/Lab3/Lab3.X/ADC.c: 127:             ADCON0bits.ADCS0 = 1;
  2075  0380  171F               	bsf	31,6	;volatile
  2076                           
  2077                           ;E:/UVG/Semestre 5/Digital2/Lab3/Lab3.X/ADC.c: 128:             ADCON0bits.ADCS0 = 1;
  2078  0381  171F               	bsf	31,6	;volatile
  2079                           
  2080                           ;E:/UVG/Semestre 5/Digital2/Lab3/Lab3.X/ADC.c: 129:             break;
  2081  0382  2B9C               	goto	l171
  2082  0383                     l175:	
  2083                           ;E:/UVG/Semestre 5/Digital2/Lab3/Lab3.X/ADC.c: 130:         default:
  2084                           
  2085                           
  2086                           ;E:/UVG/Semestre 5/Digital2/Lab3/Lab3.X/ADC.c: 131:             ADCON0bits.ADCS0 = 0;
  2087  0383  131F               	bcf	31,6	;volatile
  2088                           
  2089                           ;E:/UVG/Semestre 5/Digital2/Lab3/Lab3.X/ADC.c: 132:             ADCON0bits.ADCS0 = 0;
  2090  0384  131F               	bcf	31,6	;volatile
  2091                           
  2092                           ;E:/UVG/Semestre 5/Digital2/Lab3/Lab3.X/ADC.c: 133:             break;
  2093  0385  2B9C               	goto	l171
  2094  0386                     l1744:
  2095  0386  0823               	movf	initADC@ADCS,w
  2096  0387  00A1               	movwf	??_initADC
  2097  0388  01A2               	clrf	??_initADC+1
  2098                           
  2099                           ; Switch on 2 bytes has been partitioned into a top level switch of size 1, and 1 sub-sw
      +                          itches
  2100                           ; Switch size 1, requested type "simple"
  2101                           ; Number of cases is 1, Range of values is 0 to 0
  2102                           ; switch strategies available:
  2103                           ; Name         Instructions Cycles
  2104                           ; simple_byte            4     3 (average)
  2105                           ; direct_byte           11     8 (fixed)
  2106                           ; jumptable            260     6 (fixed)
  2107                           ;	Chosen strategy is simple_byte
  2108  0389  0822               	movf	??_initADC+1,w
  2109  038A  3A00               	xorlw	0	; case 0
  2110  038B  1903               	skipnz
  2111  038C  2B8E               	goto	l2620
  2112  038D  2B83               	goto	l175
  2113  038E                     l2620:
  2114                           
  2115                           ; Switch size 1, requested type "simple"
  2116                           ; Number of cases is 4, Range of values is 0 to 3
  2117                           ; switch strategies available:
  2118                           ; Name         Instructions Cycles
  2119                           ; simple_byte           13     7 (average)
  2120                           ; direct_byte           20     8 (fixed)
  2121                           ; jumptable            260     6 (fixed)
  2122                           ;	Chosen strategy is simple_byte
  2123  038E  0821               	movf	??_initADC,w
  2124  038F  3A00               	xorlw	0	; case 0
  2125  0390  1903               	skipnz
  2126  0391  2B77               	goto	l170
  2127  0392  3A01               	xorlw	1	; case 1
  2128  0393  1903               	skipnz
  2129  0394  2B7A               	goto	l172
  2130  0395  3A03               	xorlw	3	; case 2
  2131  0396  1903               	skipnz
  2132  0397  2B7D               	goto	l173
  2133  0398  3A01               	xorlw	1	; case 3
  2134  0399  1903               	skipnz
  2135  039A  2B80               	goto	l174
  2136  039B  2B83               	goto	l175
  2137  039C                     l171:
  2138                           
  2139                           ;E:/UVG/Semestre 5/Digital2/Lab3/Lab3.X/ADC.c: 136:     ADCON0bits.ADON = 1;
  2140  039C  141F               	bsf	31,0	;volatile
  2141                           
  2142                           ;E:/UVG/Semestre 5/Digital2/Lab3/Lab3.X/ADC.c: 138:     ADCON0bits.GO_nDONE = 1;
  2143  039D  149F               	bsf	31,1	;volatile
  2144  039E                     l1746:
  2145                           
  2146                           ;E:/UVG/Semestre 5/Digital2/Lab3/Lab3.X/ADC.c: 140:     ADCON1 = 0b00000000;
  2147  039E  1683               	bsf	3,5	;RP0=1, select bank1
  2148  039F  1303               	bcf	3,6	;RP1=0, select bank1
  2149  03A0  019F               	clrf	31	;volatile
  2150  03A1                     l1748:
  2151                           
  2152                           ;E:/UVG/Semestre 5/Digital2/Lab3/Lab3.X/ADC.c: 142:     _delay((unsigned long)((10)*(400
      +                          0000/4000.0)));
  2153  03A1  300D               	movlw	13
  2154  03A2  1283               	bcf	3,5	;RP0=0, select bank0
  2155  03A3  1303               	bcf	3,6	;RP1=0, select bank0
  2156  03A4  00A2               	movwf	??_initADC+1
  2157  03A5  30FB               	movlw	251
  2158  03A6  00A1               	movwf	??_initADC
  2159  03A7                     u897:
  2160  03A7  0BA1               	decfsz	??_initADC,f
  2161  03A8  2BA7               	goto	u897
  2162  03A9  0BA2               	decfsz	??_initADC+1,f
  2163  03AA  2BA7               	goto	u897
  2164  03AB                     l176:
  2165  03AB  0008               	return
  2166  03AC                     __end_of_initADC:
  2167                           
  2168                           	psect	text5
  2169  0650                     __ptext5:	
  2170 ;; *************** function _Lcd_Init *****************
  2171 ;; Defined at:
  2172 ;;		line 38 in file "E:/UVG/Semestre 5/Digital2/Lab3/Lab3.X/LCD.c"
  2173 ;; Parameters:    Size  Location     Type
  2174 ;;		None
  2175 ;; Auto vars:     Size  Location     Type
  2176 ;;		None
  2177 ;; Return value:  Size  Location     Type
  2178 ;;                  1    wreg      void 
  2179 ;; Registers used:
  2180 ;;		wreg, status,2, status,0, pclath, cstack
  2181 ;; Tracked objects:
  2182 ;;		On entry : 0/0
  2183 ;;		On exit  : 0/0
  2184 ;;		Unchanged: 0/0
  2185 ;; Data sizes:     COMMON   BANK0   BANK1   BANK3   BANK2
  2186 ;;      Params:         0       0       0       0       0
  2187 ;;      Locals:         0       0       0       0       0
  2188 ;;      Temps:          0       2       0       0       0
  2189 ;;      Totals:         0       2       0       0       0
  2190 ;;Total ram usage:        2 bytes
  2191 ;; Hardware stack levels used:    1
  2192 ;; Hardware stack levels required when called:    5
  2193 ;; This function calls:
  2194 ;;		_Lcd_Cmd
  2195 ;;		_Lcd_Port
  2196 ;; This function is called by:
  2197 ;;		_Setup
  2198 ;; This function uses a non-reentrant model
  2199 ;;
  2200                           
  2201                           
  2202                           ;psect for function _Lcd_Init
  2203  0650                     _Lcd_Init:
  2204  0650                     l1804:	
  2205                           ;incstack = 0
  2206                           ; Regs used in _Lcd_Init: [wreg+status,2+status,0+pclath+cstack]
  2207                           
  2208                           
  2209                           ;E:/UVG/Semestre 5/Digital2/Lab3/Lab3.X/LCD.c: 39:     _delay((unsigned long)((15)*(4000
      +                          000/4000.0)));
  2210  0650  3014               	movlw	20
  2211  0651  1283               	bcf	3,5	;RP0=0, select bank0
  2212  0652  1303               	bcf	3,6	;RP1=0, select bank0
  2213  0653  00A5               	movwf	??_Lcd_Init+1
  2214  0654  3079               	movlw	121
  2215  0655  00A4               	movwf	??_Lcd_Init
  2216  0656                     u907:
  2217  0656  0BA4               	decfsz	??_Lcd_Init,f
  2218  0657  2E56               	goto	u907
  2219  0658  0BA5               	decfsz	??_Lcd_Init+1,f
  2220  0659  2E56               	goto	u907
  2221  065A                     l1806:
  2222                           
  2223                           ;E:/UVG/Semestre 5/Digital2/Lab3/Lab3.X/LCD.c: 40:     Lcd_Port(0x00);
  2224  065A  3000               	movlw	0
  2225  065B  120A  158A  270B  120A  118A  	fcall	_Lcd_Port
  2226  0660                     l1808:
  2227                           
  2228                           ;E:/UVG/Semestre 5/Digital2/Lab3/Lab3.X/LCD.c: 41:     _delay((unsigned long)((20)*(4000
      +                          000/4000.0)));
  2229  0660  301A               	movlw	26
  2230  0661  1283               	bcf	3,5	;RP0=0, select bank0
  2231  0662  1303               	bcf	3,6	;RP1=0, select bank0
  2232  0663  00A5               	movwf	??_Lcd_Init+1
  2233  0664  30F7               	movlw	247
  2234  0665  00A4               	movwf	??_Lcd_Init
  2235  0666                     u917:
  2236  0666  0BA4               	decfsz	??_Lcd_Init,f
  2237  0667  2E66               	goto	u917
  2238  0668  0BA5               	decfsz	??_Lcd_Init+1,f
  2239  0669  2E66               	goto	u917
  2240  066A  2E6B               	nop2
  2241                           
  2242                           ;E:/UVG/Semestre 5/Digital2/Lab3/Lab3.X/LCD.c: 42:     Lcd_Cmd(0x30);
  2243  066B  3030               	movlw	48
  2244  066C  120A  158A  2754  120A  118A  	fcall	_Lcd_Cmd
  2245  0671                     l1810:
  2246                           
  2247                           ;E:/UVG/Semestre 5/Digital2/Lab3/Lab3.X/LCD.c: 43:     _delay((unsigned long)((5)*(40000
      +                          00/4000.0)));
  2248  0671  3007               	movlw	7
  2249  0672  1283               	bcf	3,5	;RP0=0, select bank0
  2250  0673  1303               	bcf	3,6	;RP1=0, select bank0
  2251  0674  00A5               	movwf	??_Lcd_Init+1
  2252  0675  307C               	movlw	124
  2253  0676  00A4               	movwf	??_Lcd_Init
  2254  0677                     u927:
  2255  0677  0BA4               	decfsz	??_Lcd_Init,f
  2256  0678  2E77               	goto	u927
  2257  0679  0BA5               	decfsz	??_Lcd_Init+1,f
  2258  067A  2E77               	goto	u927
  2259  067B  0000               	nop
  2260  067C                     l1812:
  2261                           
  2262                           ;E:/UVG/Semestre 5/Digital2/Lab3/Lab3.X/LCD.c: 44:     Lcd_Cmd(0x30);
  2263  067C  3030               	movlw	48
  2264  067D  120A  158A  2754  120A  118A  	fcall	_Lcd_Cmd
  2265                           
  2266                           ;E:/UVG/Semestre 5/Digital2/Lab3/Lab3.X/LCD.c: 45:     _delay((unsigned long)((160)*(400
      +                          0000/4000000.0)));
  2267  0682  3034               	movlw	52
  2268  0683  1283               	bcf	3,5	;RP0=0, select bank0
  2269  0684  1303               	bcf	3,6	;RP1=0, select bank0
  2270  0685  00A4               	movwf	??_Lcd_Init
  2271  0686                     u937:
  2272  0686  0BA4               	decfsz	??_Lcd_Init,f
  2273  0687  2E86               	goto	u937
  2274  0688  0000               	nop
  2275  0689                     l1814:
  2276                           
  2277                           ;E:/UVG/Semestre 5/Digital2/Lab3/Lab3.X/LCD.c: 46:     Lcd_Cmd(0x30);
  2278  0689  3030               	movlw	48
  2279  068A  120A  158A  2754  120A  118A  	fcall	_Lcd_Cmd
  2280  068F                     l1816:
  2281                           
  2282                           ;E:/UVG/Semestre 5/Digital2/Lab3/Lab3.X/LCD.c: 48:     Lcd_Cmd(0x38);
  2283  068F  3038               	movlw	56
  2284  0690  120A  158A  2754  120A  118A  	fcall	_Lcd_Cmd
  2285  0695                     l1818:
  2286                           
  2287                           ;E:/UVG/Semestre 5/Digital2/Lab3/Lab3.X/LCD.c: 49:     Lcd_Cmd(0x10);
  2288  0695  3010               	movlw	16
  2289  0696  120A  158A  2754  120A  118A  	fcall	_Lcd_Cmd
  2290  069B                     l1820:
  2291                           
  2292                           ;E:/UVG/Semestre 5/Digital2/Lab3/Lab3.X/LCD.c: 50:     Lcd_Cmd(0x01);
  2293  069B  3001               	movlw	1
  2294  069C  120A  158A  2754  120A  118A  	fcall	_Lcd_Cmd
  2295  06A1                     l1822:
  2296                           
  2297                           ;E:/UVG/Semestre 5/Digital2/Lab3/Lab3.X/LCD.c: 51:     Lcd_Cmd(0x06);
  2298  06A1  3006               	movlw	6
  2299  06A2  120A  158A  2754  120A  118A  	fcall	_Lcd_Cmd
  2300  06A7                     l1824:
  2301                           
  2302                           ;E:/UVG/Semestre 5/Digital2/Lab3/Lab3.X/LCD.c: 53:     Lcd_Cmd(0x0C);
  2303  06A7  300C               	movlw	12
  2304  06A8  120A  158A  2754  120A  118A  	fcall	_Lcd_Cmd
  2305  06AD                     l200:
  2306  06AD  0008               	return
  2307  06AE                     __end_of_Lcd_Init:
  2308                           
  2309                           	psect	text6
  2310  03AC                     __ptext6:	
  2311 ;; *************** function _Envio_Contador *****************
  2312 ;; Defined at:
  2313 ;;		line 284 in file "code.c"
  2314 ;; Parameters:    Size  Location     Type
  2315 ;;		None
  2316 ;; Auto vars:     Size  Location     Type
  2317 ;;  temporal        1   21[BANK0 ] unsigned char 
  2318 ;;  decimas         1   20[BANK0 ] unsigned char 
  2319 ;;  unidades        1   19[BANK0 ] unsigned char 
  2320 ;;  centimas        1   18[BANK0 ] unsigned char 
  2321 ;; Return value:  Size  Location     Type
  2322 ;;                  1    wreg      void 
  2323 ;; Registers used:
  2324 ;;		wreg, fsr0l, fsr0h, status,2, status,0, pclath, cstack
  2325 ;; Tracked objects:
  2326 ;;		On entry : 0/0
  2327 ;;		On exit  : 0/0
  2328 ;;		Unchanged: 0/0
  2329 ;; Data sizes:     COMMON   BANK0   BANK1   BANK3   BANK2
  2330 ;;      Params:         0       0       0       0       0
  2331 ;;      Locals:         0       4       0       0       0
  2332 ;;      Temps:          0       3       0       0       0
  2333 ;;      Totals:         0       7       0       0       0
  2334 ;;Total ram usage:        7 bytes
  2335 ;; Hardware stack levels used:    1
  2336 ;; Hardware stack levels required when called:    6
  2337 ;; This function calls:
  2338 ;;		_Cambio
  2339 ;;		_Lcd_Set_Cursor
  2340 ;;		_Lcd_Write_String
  2341 ;;		___awdiv
  2342 ;;		___bmul
  2343 ;; This function is called by:
  2344 ;;		_main
  2345 ;; This function uses a non-reentrant model
  2346 ;;
  2347                           
  2348                           
  2349                           ;psect for function _Envio_Contador
  2350  03AC                     _Envio_Contador:
  2351  03AC                     l2264:	
  2352                           ;incstack = 0
  2353                           ; Regs used in _Envio_Contador: [wreg-fsr0h+status,2+status,0+pclath+cstack]
  2354                           
  2355                           
  2356                           ;code.c: 285:     uint8_t temporal;;code.c: 286:     uint8_t unidades;;code.c: 287:     
      +                          uint8_t decimas;;code.c: 288:     uint8_t centimas;;code.c: 289:     temporal = PORTB;
  2357  03AC  1283               	bcf	3,5	;RP0=0, select bank0
  2358  03AD  1303               	bcf	3,6	;RP1=0, select bank0
  2359  03AE  0806               	movf	6,w	;volatile
  2360  03AF  00AF               	movwf	??_Envio_Contador
  2361  03B0  082F               	movf	??_Envio_Contador,w
  2362  03B1  00B5               	movwf	Envio_Contador@temporal
  2363  03B2                     l2266:
  2364                           
  2365                           ;code.c: 291:     unidades = temporal/100;
  2366  03B2  3064               	movlw	100
  2367  03B3  00A6               	movwf	___awdiv@divisor
  2368  03B4  3000               	movlw	0
  2369  03B5  00A7               	movwf	___awdiv@divisor+1
  2370  03B6  0835               	movf	Envio_Contador@temporal,w
  2371  03B7  00AF               	movwf	??_Envio_Contador
  2372  03B8  01B0               	clrf	??_Envio_Contador+1
  2373  03B9  082F               	movf	??_Envio_Contador,w
  2374  03BA  00A8               	movwf	___awdiv@dividend
  2375  03BB  0830               	movf	??_Envio_Contador+1,w
  2376  03BC  00A9               	movwf	___awdiv@dividend+1
  2377  03BD  120A  118A  2589  120A  118A  	fcall	___awdiv
  2378  03C2  1283               	bcf	3,5	;RP0=0, select bank0
  2379  03C3  1303               	bcf	3,6	;RP1=0, select bank0
  2380  03C4  0826               	movf	?___awdiv,w
  2381  03C5  00B1               	movwf	??_Envio_Contador+2
  2382  03C6  0831               	movf	??_Envio_Contador+2,w
  2383  03C7  00B3               	movwf	Envio_Contador@unidades
  2384  03C8                     l2268:
  2385                           
  2386                           ;code.c: 292:     temporal = temporal - 100*unidades;
  2387  03C8  309C               	movlw	156
  2388  03C9  00AF               	movwf	??_Envio_Contador
  2389  03CA  082F               	movf	??_Envio_Contador,w
  2390  03CB  00A0               	movwf	___bmul@multiplicand
  2391  03CC  0833               	movf	Envio_Contador@unidades,w
  2392  03CD  120A  158A  2725  120A  118A  	fcall	___bmul
  2393  03D2  1283               	bcf	3,5	;RP0=0, select bank0
  2394  03D3  1303               	bcf	3,6	;RP1=0, select bank0
  2395  03D4  0735               	addwf	Envio_Contador@temporal,w
  2396  03D5  00B0               	movwf	??_Envio_Contador+1
  2397  03D6  0830               	movf	??_Envio_Contador+1,w
  2398  03D7  00B5               	movwf	Envio_Contador@temporal
  2399  03D8                     l2270:
  2400                           
  2401                           ;code.c: 294:     decimas = temporal/10;
  2402  03D8  300A               	movlw	10
  2403  03D9  00A6               	movwf	___awdiv@divisor
  2404  03DA  3000               	movlw	0
  2405  03DB  00A7               	movwf	___awdiv@divisor+1
  2406  03DC  0835               	movf	Envio_Contador@temporal,w
  2407  03DD  00AF               	movwf	??_Envio_Contador
  2408  03DE  01B0               	clrf	??_Envio_Contador+1
  2409  03DF  082F               	movf	??_Envio_Contador,w
  2410  03E0  00A8               	movwf	___awdiv@dividend
  2411  03E1  0830               	movf	??_Envio_Contador+1,w
  2412  03E2  00A9               	movwf	___awdiv@dividend+1
  2413  03E3  120A  118A  2589  120A  118A  	fcall	___awdiv
  2414  03E8  1283               	bcf	3,5	;RP0=0, select bank0
  2415  03E9  1303               	bcf	3,6	;RP1=0, select bank0
  2416  03EA  0826               	movf	?___awdiv,w
  2417  03EB  00B1               	movwf	??_Envio_Contador+2
  2418  03EC  0831               	movf	??_Envio_Contador+2,w
  2419  03ED  00B4               	movwf	Envio_Contador@decimas
  2420  03EE                     l2272:
  2421                           
  2422                           ;code.c: 295:     temporal = temporal - 10*decimas;
  2423  03EE  30F6               	movlw	246
  2424  03EF  00AF               	movwf	??_Envio_Contador
  2425  03F0  082F               	movf	??_Envio_Contador,w
  2426  03F1  00A0               	movwf	___bmul@multiplicand
  2427  03F2  0834               	movf	Envio_Contador@decimas,w
  2428  03F3  120A  158A  2725  120A  118A  	fcall	___bmul
  2429  03F8  1283               	bcf	3,5	;RP0=0, select bank0
  2430  03F9  1303               	bcf	3,6	;RP1=0, select bank0
  2431  03FA  0735               	addwf	Envio_Contador@temporal,w
  2432  03FB  00B0               	movwf	??_Envio_Contador+1
  2433  03FC  0830               	movf	??_Envio_Contador+1,w
  2434  03FD  00B5               	movwf	Envio_Contador@temporal
  2435                           
  2436                           ;code.c: 297:     centimas = temporal;
  2437  03FE  0835               	movf	Envio_Contador@temporal,w
  2438  03FF  00AF               	movwf	??_Envio_Contador
  2439  0400  082F               	movf	??_Envio_Contador,w
  2440  0401  00B2               	movwf	Envio_Contador@centimas
  2441  0402                     l2274:
  2442                           
  2443                           ;code.c: 299:     Lcd_Set_Cursor(2,13);
  2444  0402  300D               	movlw	13
  2445  0403  00AF               	movwf	??_Envio_Contador
  2446  0404  082F               	movf	??_Envio_Contador,w
  2447  0405  00A4               	movwf	Lcd_Set_Cursor@b
  2448  0406  3002               	movlw	2
  2449  0407  120A  118A  27DE  120A  118A  	fcall	_Lcd_Set_Cursor
  2450  040C                     l2276:
  2451                           
  2452                           ;code.c: 300:     Lcd_Write_String(Cambio(unidades));
  2453  040C  1283               	bcf	3,5	;RP0=0, select bank0
  2454  040D  1303               	bcf	3,6	;RP1=0, select bank0
  2455  040E  0833               	movf	Envio_Contador@unidades,w
  2456  040F  120A  158A  27BF  120A  118A  	fcall	_Cambio
  2457  0414  120A  158A  2796  120A  118A  	fcall	_Lcd_Write_String
  2458  0419                     l2278:
  2459                           
  2460                           ;code.c: 301:     Lcd_Set_Cursor(2,14);
  2461  0419  300E               	movlw	14
  2462  041A  1283               	bcf	3,5	;RP0=0, select bank0
  2463  041B  1303               	bcf	3,6	;RP1=0, select bank0
  2464  041C  00AF               	movwf	??_Envio_Contador
  2465  041D  082F               	movf	??_Envio_Contador,w
  2466  041E  00A4               	movwf	Lcd_Set_Cursor@b
  2467  041F  3002               	movlw	2
  2468  0420  120A  118A  27DE  120A  118A  	fcall	_Lcd_Set_Cursor
  2469  0425                     l2280:
  2470                           
  2471                           ;code.c: 302:     Lcd_Write_String(Cambio(decimas));
  2472  0425  1283               	bcf	3,5	;RP0=0, select bank0
  2473  0426  1303               	bcf	3,6	;RP1=0, select bank0
  2474  0427  0834               	movf	Envio_Contador@decimas,w
  2475  0428  120A  158A  27BF  120A  118A  	fcall	_Cambio
  2476  042D  120A  158A  2796  120A  118A  	fcall	_Lcd_Write_String
  2477  0432                     l2282:
  2478                           
  2479                           ;code.c: 303:     Lcd_Set_Cursor(2,15);
  2480  0432  300F               	movlw	15
  2481  0433  1283               	bcf	3,5	;RP0=0, select bank0
  2482  0434  1303               	bcf	3,6	;RP1=0, select bank0
  2483  0435  00AF               	movwf	??_Envio_Contador
  2484  0436  082F               	movf	??_Envio_Contador,w
  2485  0437  00A4               	movwf	Lcd_Set_Cursor@b
  2486  0438  3002               	movlw	2
  2487  0439  120A  118A  27DE  120A  118A  	fcall	_Lcd_Set_Cursor
  2488  043E                     l2284:
  2489                           
  2490                           ;code.c: 304:     Lcd_Write_String(Cambio(centimas));
  2491  043E  1283               	bcf	3,5	;RP0=0, select bank0
  2492  043F  1303               	bcf	3,6	;RP1=0, select bank0
  2493  0440  0832               	movf	Envio_Contador@centimas,w
  2494  0441  120A  158A  27BF  120A  118A  	fcall	_Cambio
  2495  0446  120A  158A  2796  120A  118A  	fcall	_Lcd_Write_String
  2496  044B                     l2286:
  2497                           
  2498                           ;code.c: 305:     Lcd_Set_Cursor(2,16);
  2499  044B  3010               	movlw	16
  2500  044C  1283               	bcf	3,5	;RP0=0, select bank0
  2501  044D  1303               	bcf	3,6	;RP1=0, select bank0
  2502  044E  00AF               	movwf	??_Envio_Contador
  2503  044F  082F               	movf	??_Envio_Contador,w
  2504  0450  00A4               	movwf	Lcd_Set_Cursor@b
  2505  0451  3002               	movlw	2
  2506  0452  120A  118A  27DE  120A  118A  	fcall	_Lcd_Set_Cursor
  2507  0457                     l141:
  2508  0457  0008               	return
  2509  0458                     __end_of_Envio_Contador:
  2510                           
  2511                           	psect	text7
  2512  0F25                     __ptext7:	
  2513 ;; *************** function ___bmul *****************
  2514 ;; Defined at:
  2515 ;;		line 4 in file "C:\Program Files\Microchip\xc8\v2.31\pic\sources\c90\common\Umul8.c"
  2516 ;; Parameters:    Size  Location     Type
  2517 ;;  multiplier      1    wreg     unsigned char 
  2518 ;;  multiplicand    1    0[BANK0 ] unsigned char 
  2519 ;; Auto vars:     Size  Location     Type
  2520 ;;  multiplier      1    3[BANK0 ] unsigned char 
  2521 ;;  product         1    2[BANK0 ] unsigned char 
  2522 ;; Return value:  Size  Location     Type
  2523 ;;                  1    wreg      unsigned char 
  2524 ;; Registers used:
  2525 ;;		wreg, status,2, status,0
  2526 ;; Tracked objects:
  2527 ;;		On entry : 0/0
  2528 ;;		On exit  : 0/0
  2529 ;;		Unchanged: 0/0
  2530 ;; Data sizes:     COMMON   BANK0   BANK1   BANK3   BANK2
  2531 ;;      Params:         0       1       0       0       0
  2532 ;;      Locals:         0       2       0       0       0
  2533 ;;      Temps:          0       1       0       0       0
  2534 ;;      Totals:         0       4       0       0       0
  2535 ;;Total ram usage:        4 bytes
  2536 ;; Hardware stack levels used:    1
  2537 ;; Hardware stack levels required when called:    3
  2538 ;; This function calls:
  2539 ;;		Nothing
  2540 ;; This function is called by:
  2541 ;;		_Envio_Contador
  2542 ;; This function uses a non-reentrant model
  2543 ;;
  2544                           
  2545                           
  2546                           ;psect for function ___bmul
  2547  0F25                     ___bmul:
  2548                           
  2549                           ;incstack = 0
  2550                           ; Regs used in ___bmul: [wreg+status,2+status,0]
  2551                           ;___bmul@multiplier stored from wreg
  2552  0F25  1283               	bcf	3,5	;RP0=0, select bank0
  2553  0F26  1303               	bcf	3,6	;RP1=0, select bank0
  2554  0F27  00A3               	movwf	___bmul@multiplier
  2555  0F28                     l2018:
  2556  0F28  01A2               	clrf	___bmul@product
  2557  0F29                     l2020:
  2558  0F29  1C23               	btfss	___bmul@multiplier,0
  2559  0F2A  2F2C               	goto	u521
  2560  0F2B  2F2D               	goto	u520
  2561  0F2C                     u521:
  2562  0F2C  2F31               	goto	l2024
  2563  0F2D                     u520:
  2564  0F2D                     l2022:
  2565  0F2D  0820               	movf	___bmul@multiplicand,w
  2566  0F2E  00A1               	movwf	??___bmul
  2567  0F2F  0821               	movf	??___bmul,w
  2568  0F30  07A2               	addwf	___bmul@product,f
  2569  0F31                     l2024:
  2570  0F31  1003               	clrc
  2571  0F32  0DA0               	rlf	___bmul@multiplicand,f
  2572  0F33                     l2026:
  2573  0F33  1003               	clrc
  2574  0F34  0CA3               	rrf	___bmul@multiplier,f
  2575  0F35  0823               	movf	___bmul@multiplier,w
  2576  0F36  1D03               	btfss	3,2
  2577  0F37  2F39               	goto	u531
  2578  0F38  2F3A               	goto	u530
  2579  0F39                     u531:
  2580  0F39  2F29               	goto	l2020
  2581  0F3A                     u530:
  2582  0F3A                     l2028:
  2583  0F3A  0822               	movf	___bmul@product,w
  2584  0F3B                     l392:
  2585  0F3B  0008               	return
  2586  0F3C                     __end_of___bmul:
  2587                           
  2588                           	psect	text8
  2589  0020                     __ptext8:	
  2590 ;; *************** function _Conversiones *****************
  2591 ;; Defined at:
  2592 ;;		line 234 in file "code.c"
  2593 ;; Parameters:    Size  Location     Type
  2594 ;;		None
  2595 ;; Auto vars:     Size  Location     Type
  2596 ;;  temporal        2   20[BANK0 ] unsigned int 
  2597 ;;  decimas         1   19[BANK0 ] unsigned char 
  2598 ;;  unidades        1   18[BANK0 ] unsigned char 
  2599 ;;  centimas        1   17[BANK0 ] unsigned char 
  2600 ;; Return value:  Size  Location     Type
  2601 ;;                  1    wreg      void 
  2602 ;; Registers used:
  2603 ;;		wreg, fsr0l, fsr0h, status,2, status,0, pclath, cstack
  2604 ;; Tracked objects:
  2605 ;;		On entry : 0/0
  2606 ;;		On exit  : 0/0
  2607 ;;		Unchanged: 0/0
  2608 ;; Data sizes:     COMMON   BANK0   BANK1   BANK3   BANK2
  2609 ;;      Params:         0       0       0       0       0
  2610 ;;      Locals:         0       5       0       0       0
  2611 ;;      Temps:          0       2       0       0       0
  2612 ;;      Totals:         0       7       0       0       0
  2613 ;;Total ram usage:        7 bytes
  2614 ;; Hardware stack levels used:    1
  2615 ;; Hardware stack levels required when called:    6
  2616 ;; This function calls:
  2617 ;;		_Cambio
  2618 ;;		_Lcd_Set_Cursor
  2619 ;;		_Lcd_Write_String
  2620 ;;		___awdiv
  2621 ;;		___lwdiv
  2622 ;;		___wmul
  2623 ;; This function is called by:
  2624 ;;		_main
  2625 ;; This function uses a non-reentrant model
  2626 ;;
  2627                           
  2628                           
  2629                           ;psect for function _Conversiones
  2630  0020                     _Conversiones:
  2631  0020                     l2218:	
  2632                           ;incstack = 0
  2633                           ; Regs used in _Conversiones: [wreg-fsr0h+status,2+status,0+pclath+cstack]
  2634                           
  2635                           
  2636                           ;code.c: 235:     uint16_t temporal;;code.c: 236:     uint8_t unidades;;code.c: 237:    
      +                           uint8_t decimas;;code.c: 238:     uint8_t centimas;;code.c: 239:     if(FLAGADC == 0){
  2637  0020  087A               	movf	_FLAGADC,w
  2638  0021  1D03               	btfss	3,2
  2639  0022  2824               	goto	u731
  2640  0023  2825               	goto	u730
  2641  0024                     u731:
  2642  0024  2910               	goto	l2242
  2643  0025                     u730:
  2644  0025                     l2220:
  2645                           
  2646                           ;code.c: 241:         temporal = (VAR_ADC1*100)/51;
  2647  0025  3033               	movlw	51
  2648  0026  1283               	bcf	3,5	;RP0=0, select bank0
  2649  0027  1303               	bcf	3,6	;RP1=0, select bank0
  2650  0028  00A6               	movwf	___awdiv@divisor
  2651  0029  3000               	movlw	0
  2652  002A  00A7               	movwf	___awdiv@divisor+1
  2653  002B  087D               	movf	_VAR_ADC1,w
  2654  002C  00AF               	movwf	??_Conversiones
  2655  002D  01B0               	clrf	??_Conversiones+1
  2656  002E  082F               	movf	??_Conversiones,w
  2657  002F  00A0               	movwf	___wmul@multiplier
  2658  0030  0830               	movf	??_Conversiones+1,w
  2659  0031  00A1               	movwf	___wmul@multiplier+1
  2660  0032  3064               	movlw	100
  2661  0033  00A2               	movwf	___wmul@multiplicand
  2662  0034  3000               	movlw	0
  2663  0035  00A3               	movwf	___wmul@multiplicand+1
  2664  0036  120A  158A  276F  120A  118A  	fcall	___wmul
  2665  003B  1283               	bcf	3,5	;RP0=0, select bank0
  2666  003C  1303               	bcf	3,6	;RP1=0, select bank0
  2667  003D  0821               	movf	?___wmul+1,w
  2668  003E  00A9               	movwf	___awdiv@dividend+1
  2669  003F  0820               	movf	?___wmul,w
  2670  0040  00A8               	movwf	___awdiv@dividend
  2671  0041  120A  118A  2589  120A  118A  	fcall	___awdiv
  2672  0046  1283               	bcf	3,5	;RP0=0, select bank0
  2673  0047  1303               	bcf	3,6	;RP1=0, select bank0
  2674  0048  0827               	movf	?___awdiv+1,w
  2675  0049  00B5               	movwf	Conversiones@temporal+1
  2676  004A  0826               	movf	?___awdiv,w
  2677  004B  00B4               	movwf	Conversiones@temporal
  2678                           
  2679                           ;code.c: 243:         unidades = temporal/100;
  2680  004C  3064               	movlw	100
  2681  004D  00A0               	movwf	___lwdiv@divisor
  2682  004E  3000               	movlw	0
  2683  004F  00A1               	movwf	___lwdiv@divisor+1
  2684  0050  0835               	movf	Conversiones@temporal+1,w
  2685  0051  00A3               	movwf	___lwdiv@dividend+1
  2686  0052  0834               	movf	Conversiones@temporal,w
  2687  0053  00A2               	movwf	___lwdiv@dividend
  2688  0054  120A  118A  2757  120A  118A  	fcall	___lwdiv
  2689  0059  1283               	bcf	3,5	;RP0=0, select bank0
  2690  005A  1303               	bcf	3,6	;RP1=0, select bank0
  2691  005B  0820               	movf	?___lwdiv,w
  2692  005C  00AF               	movwf	??_Conversiones
  2693  005D  082F               	movf	??_Conversiones,w
  2694  005E  00B2               	movwf	Conversiones@unidades
  2695                           
  2696                           ;code.c: 244:         temporal = temporal - 100*unidades;
  2697  005F  0832               	movf	Conversiones@unidades,w
  2698  0060  00AF               	movwf	??_Conversiones
  2699  0061  01B0               	clrf	??_Conversiones+1
  2700  0062  082F               	movf	??_Conversiones,w
  2701  0063  00A0               	movwf	___wmul@multiplier
  2702  0064  0830               	movf	??_Conversiones+1,w
  2703  0065  00A1               	movwf	___wmul@multiplier+1
  2704  0066  309C               	movlw	156
  2705  0067  00A2               	movwf	___wmul@multiplicand
  2706  0068  30FF               	movlw	255
  2707  0069  00A3               	movwf	___wmul@multiplicand+1
  2708  006A  120A  158A  276F  120A  118A  	fcall	___wmul
  2709  006F  1283               	bcf	3,5	;RP0=0, select bank0
  2710  0070  1303               	bcf	3,6	;RP1=0, select bank0
  2711  0071  0834               	movf	Conversiones@temporal,w
  2712  0072  0720               	addwf	?___wmul,w
  2713  0073  00B4               	movwf	Conversiones@temporal
  2714  0074  0835               	movf	Conversiones@temporal+1,w
  2715  0075  1803               	skipnc
  2716  0076  0A35               	incf	Conversiones@temporal+1,w
  2717  0077  0721               	addwf	?___wmul+1,w
  2718  0078  00B5               	movwf	Conversiones@temporal+1
  2719                           
  2720                           ;code.c: 246:         decimas = temporal/10;
  2721  0079  300A               	movlw	10
  2722  007A  00A0               	movwf	___lwdiv@divisor
  2723  007B  3000               	movlw	0
  2724  007C  00A1               	movwf	___lwdiv@divisor+1
  2725  007D  0835               	movf	Conversiones@temporal+1,w
  2726  007E  00A3               	movwf	___lwdiv@dividend+1
  2727  007F  0834               	movf	Conversiones@temporal,w
  2728  0080  00A2               	movwf	___lwdiv@dividend
  2729  0081  120A  118A  2757  120A  118A  	fcall	___lwdiv
  2730  0086  1283               	bcf	3,5	;RP0=0, select bank0
  2731  0087  1303               	bcf	3,6	;RP1=0, select bank0
  2732  0088  0820               	movf	?___lwdiv,w
  2733  0089  00AF               	movwf	??_Conversiones
  2734  008A  082F               	movf	??_Conversiones,w
  2735  008B  00B3               	movwf	Conversiones@decimas
  2736                           
  2737                           ;code.c: 247:         temporal = temporal - 10*decimas;
  2738  008C  0833               	movf	Conversiones@decimas,w
  2739  008D  00AF               	movwf	??_Conversiones
  2740  008E  01B0               	clrf	??_Conversiones+1
  2741  008F  082F               	movf	??_Conversiones,w
  2742  0090  00A0               	movwf	___wmul@multiplier
  2743  0091  0830               	movf	??_Conversiones+1,w
  2744  0092  00A1               	movwf	___wmul@multiplier+1
  2745  0093  30F6               	movlw	246
  2746  0094  00A2               	movwf	___wmul@multiplicand
  2747  0095  30FF               	movlw	255
  2748  0096  00A3               	movwf	___wmul@multiplicand+1
  2749  0097  120A  158A  276F  120A  118A  	fcall	___wmul
  2750  009C  1283               	bcf	3,5	;RP0=0, select bank0
  2751  009D  1303               	bcf	3,6	;RP1=0, select bank0
  2752  009E  0834               	movf	Conversiones@temporal,w
  2753  009F  0720               	addwf	?___wmul,w
  2754  00A0  00B4               	movwf	Conversiones@temporal
  2755  00A1  0835               	movf	Conversiones@temporal+1,w
  2756  00A2  1803               	skipnc
  2757  00A3  0A35               	incf	Conversiones@temporal+1,w
  2758  00A4  0721               	addwf	?___wmul+1,w
  2759  00A5  00B5               	movwf	Conversiones@temporal+1
  2760  00A6                     l2222:
  2761                           
  2762                           ;code.c: 249:         centimas = temporal;
  2763  00A6  0834               	movf	Conversiones@temporal,w
  2764  00A7  00AF               	movwf	??_Conversiones
  2765  00A8  082F               	movf	??_Conversiones,w
  2766  00A9  00B1               	movwf	Conversiones@centimas
  2767  00AA                     l2224:
  2768                           
  2769                           ;code.c: 251:         Lcd_Set_Cursor(2,1);
  2770  00AA  01A4               	clrf	Lcd_Set_Cursor@b
  2771  00AB  0AA4               	incf	Lcd_Set_Cursor@b,f
  2772  00AC  3002               	movlw	2
  2773  00AD  120A  118A  27DE  120A  118A  	fcall	_Lcd_Set_Cursor
  2774  00B2                     l2226:
  2775                           
  2776                           ;code.c: 252:         Lcd_Write_String(Cambio(unidades));
  2777  00B2  1283               	bcf	3,5	;RP0=0, select bank0
  2778  00B3  1303               	bcf	3,6	;RP1=0, select bank0
  2779  00B4  0832               	movf	Conversiones@unidades,w
  2780  00B5  120A  158A  27BF  120A  118A  	fcall	_Cambio
  2781  00BA  120A  158A  2796  120A  118A  	fcall	_Lcd_Write_String
  2782  00BF                     l2228:
  2783                           
  2784                           ;code.c: 253:         Lcd_Set_Cursor(2,2);
  2785  00BF  3002               	movlw	2
  2786  00C0  1283               	bcf	3,5	;RP0=0, select bank0
  2787  00C1  1303               	bcf	3,6	;RP1=0, select bank0
  2788  00C2  00AF               	movwf	??_Conversiones
  2789  00C3  082F               	movf	??_Conversiones,w
  2790  00C4  00A4               	movwf	Lcd_Set_Cursor@b
  2791  00C5  3002               	movlw	2
  2792  00C6  120A  118A  27DE  120A  118A  	fcall	_Lcd_Set_Cursor
  2793  00CB                     l2230:
  2794                           
  2795                           ;code.c: 254:         Lcd_Write_String(".");
  2796  00CB  3022               	movlw	(low ((STR_4-__stringbase)| (0+32768)))& (0+255)
  2797  00CC  120A  158A  2796  120A  118A  	fcall	_Lcd_Write_String
  2798  00D1                     l2232:
  2799                           
  2800                           ;code.c: 255:         Lcd_Set_Cursor(2,3);
  2801  00D1  3003               	movlw	3
  2802  00D2  1283               	bcf	3,5	;RP0=0, select bank0
  2803  00D3  1303               	bcf	3,6	;RP1=0, select bank0
  2804  00D4  00AF               	movwf	??_Conversiones
  2805  00D5  082F               	movf	??_Conversiones,w
  2806  00D6  00A4               	movwf	Lcd_Set_Cursor@b
  2807  00D7  3002               	movlw	2
  2808  00D8  120A  118A  27DE  120A  118A  	fcall	_Lcd_Set_Cursor
  2809  00DD                     l2234:
  2810                           
  2811                           ;code.c: 256:         Lcd_Write_String(Cambio(decimas));
  2812  00DD  1283               	bcf	3,5	;RP0=0, select bank0
  2813  00DE  1303               	bcf	3,6	;RP1=0, select bank0
  2814  00DF  0833               	movf	Conversiones@decimas,w
  2815  00E0  120A  158A  27BF  120A  118A  	fcall	_Cambio
  2816  00E5  120A  158A  2796  120A  118A  	fcall	_Lcd_Write_String
  2817  00EA                     l2236:
  2818                           
  2819                           ;code.c: 257:         Lcd_Set_Cursor(2,4);
  2820  00EA  3004               	movlw	4
  2821  00EB  1283               	bcf	3,5	;RP0=0, select bank0
  2822  00EC  1303               	bcf	3,6	;RP1=0, select bank0
  2823  00ED  00AF               	movwf	??_Conversiones
  2824  00EE  082F               	movf	??_Conversiones,w
  2825  00EF  00A4               	movwf	Lcd_Set_Cursor@b
  2826  00F0  3002               	movlw	2
  2827  00F1  120A  118A  27DE  120A  118A  	fcall	_Lcd_Set_Cursor
  2828  00F6                     l2238:
  2829                           
  2830                           ;code.c: 258:         Lcd_Write_String(Cambio(centimas));
  2831  00F6  1283               	bcf	3,5	;RP0=0, select bank0
  2832  00F7  1303               	bcf	3,6	;RP1=0, select bank0
  2833  00F8  0831               	movf	Conversiones@centimas,w
  2834  00F9  120A  158A  27BF  120A  118A  	fcall	_Cambio
  2835  00FE  120A  158A  2796  120A  118A  	fcall	_Lcd_Write_String
  2836  0103                     l2240:
  2837                           
  2838                           ;code.c: 259:         Lcd_Set_Cursor(2,5);
  2839  0103  3005               	movlw	5
  2840  0104  1283               	bcf	3,5	;RP0=0, select bank0
  2841  0105  1303               	bcf	3,6	;RP1=0, select bank0
  2842  0106  00AF               	movwf	??_Conversiones
  2843  0107  082F               	movf	??_Conversiones,w
  2844  0108  00A4               	movwf	Lcd_Set_Cursor@b
  2845  0109  3002               	movlw	2
  2846  010A  120A  118A  27DE  120A  118A  	fcall	_Lcd_Set_Cursor
  2847                           
  2848                           ;code.c: 260:     }
  2849  010F  29FC               	goto	l138
  2850  0110                     l2242:
  2851                           
  2852                           ;code.c: 263:         temporal = (VAR_ADC2*100)/51;
  2853  0110  3033               	movlw	51
  2854  0111  1283               	bcf	3,5	;RP0=0, select bank0
  2855  0112  1303               	bcf	3,6	;RP1=0, select bank0
  2856  0113  00A6               	movwf	___awdiv@divisor
  2857  0114  3000               	movlw	0
  2858  0115  00A7               	movwf	___awdiv@divisor+1
  2859  0116  087C               	movf	_VAR_ADC2,w
  2860  0117  00AF               	movwf	??_Conversiones
  2861  0118  01B0               	clrf	??_Conversiones+1
  2862  0119  082F               	movf	??_Conversiones,w
  2863  011A  00A0               	movwf	___wmul@multiplier
  2864  011B  0830               	movf	??_Conversiones+1,w
  2865  011C  00A1               	movwf	___wmul@multiplier+1
  2866  011D  3064               	movlw	100
  2867  011E  00A2               	movwf	___wmul@multiplicand
  2868  011F  3000               	movlw	0
  2869  0120  00A3               	movwf	___wmul@multiplicand+1
  2870  0121  120A  158A  276F  120A  118A  	fcall	___wmul
  2871  0126  1283               	bcf	3,5	;RP0=0, select bank0
  2872  0127  1303               	bcf	3,6	;RP1=0, select bank0
  2873  0128  0821               	movf	?___wmul+1,w
  2874  0129  00A9               	movwf	___awdiv@dividend+1
  2875  012A  0820               	movf	?___wmul,w
  2876  012B  00A8               	movwf	___awdiv@dividend
  2877  012C  120A  118A  2589  120A  118A  	fcall	___awdiv
  2878  0131  1283               	bcf	3,5	;RP0=0, select bank0
  2879  0132  1303               	bcf	3,6	;RP1=0, select bank0
  2880  0133  0827               	movf	?___awdiv+1,w
  2881  0134  00B5               	movwf	Conversiones@temporal+1
  2882  0135  0826               	movf	?___awdiv,w
  2883  0136  00B4               	movwf	Conversiones@temporal
  2884                           
  2885                           ;code.c: 265:         unidades = temporal/100;
  2886  0137  3064               	movlw	100
  2887  0138  00A0               	movwf	___lwdiv@divisor
  2888  0139  3000               	movlw	0
  2889  013A  00A1               	movwf	___lwdiv@divisor+1
  2890  013B  0835               	movf	Conversiones@temporal+1,w
  2891  013C  00A3               	movwf	___lwdiv@dividend+1
  2892  013D  0834               	movf	Conversiones@temporal,w
  2893  013E  00A2               	movwf	___lwdiv@dividend
  2894  013F  120A  118A  2757  120A  118A  	fcall	___lwdiv
  2895  0144  1283               	bcf	3,5	;RP0=0, select bank0
  2896  0145  1303               	bcf	3,6	;RP1=0, select bank0
  2897  0146  0820               	movf	?___lwdiv,w
  2898  0147  00AF               	movwf	??_Conversiones
  2899  0148  082F               	movf	??_Conversiones,w
  2900  0149  00B2               	movwf	Conversiones@unidades
  2901                           
  2902                           ;code.c: 266:         temporal = temporal - 100*unidades;
  2903  014A  0832               	movf	Conversiones@unidades,w
  2904  014B  00AF               	movwf	??_Conversiones
  2905  014C  01B0               	clrf	??_Conversiones+1
  2906  014D  082F               	movf	??_Conversiones,w
  2907  014E  00A0               	movwf	___wmul@multiplier
  2908  014F  0830               	movf	??_Conversiones+1,w
  2909  0150  00A1               	movwf	___wmul@multiplier+1
  2910  0151  309C               	movlw	156
  2911  0152  00A2               	movwf	___wmul@multiplicand
  2912  0153  30FF               	movlw	255
  2913  0154  00A3               	movwf	___wmul@multiplicand+1
  2914  0155  120A  158A  276F  120A  118A  	fcall	___wmul
  2915  015A  1283               	bcf	3,5	;RP0=0, select bank0
  2916  015B  1303               	bcf	3,6	;RP1=0, select bank0
  2917  015C  0834               	movf	Conversiones@temporal,w
  2918  015D  0720               	addwf	?___wmul,w
  2919  015E  00B4               	movwf	Conversiones@temporal
  2920  015F  0835               	movf	Conversiones@temporal+1,w
  2921  0160  1803               	skipnc
  2922  0161  0A35               	incf	Conversiones@temporal+1,w
  2923  0162  0721               	addwf	?___wmul+1,w
  2924  0163  00B5               	movwf	Conversiones@temporal+1
  2925                           
  2926                           ;code.c: 268:         decimas = temporal/10;
  2927  0164  300A               	movlw	10
  2928  0165  00A0               	movwf	___lwdiv@divisor
  2929  0166  3000               	movlw	0
  2930  0167  00A1               	movwf	___lwdiv@divisor+1
  2931  0168  0835               	movf	Conversiones@temporal+1,w
  2932  0169  00A3               	movwf	___lwdiv@dividend+1
  2933  016A  0834               	movf	Conversiones@temporal,w
  2934  016B  00A2               	movwf	___lwdiv@dividend
  2935  016C  120A  118A  2757  120A  118A  	fcall	___lwdiv
  2936  0171  1283               	bcf	3,5	;RP0=0, select bank0
  2937  0172  1303               	bcf	3,6	;RP1=0, select bank0
  2938  0173  0820               	movf	?___lwdiv,w
  2939  0174  00AF               	movwf	??_Conversiones
  2940  0175  082F               	movf	??_Conversiones,w
  2941  0176  00B3               	movwf	Conversiones@decimas
  2942                           
  2943                           ;code.c: 269:         temporal = temporal - 10*decimas;
  2944  0177  0833               	movf	Conversiones@decimas,w
  2945  0178  00AF               	movwf	??_Conversiones
  2946  0179  01B0               	clrf	??_Conversiones+1
  2947  017A  082F               	movf	??_Conversiones,w
  2948  017B  00A0               	movwf	___wmul@multiplier
  2949  017C  0830               	movf	??_Conversiones+1,w
  2950  017D  00A1               	movwf	___wmul@multiplier+1
  2951  017E  30F6               	movlw	246
  2952  017F  00A2               	movwf	___wmul@multiplicand
  2953  0180  30FF               	movlw	255
  2954  0181  00A3               	movwf	___wmul@multiplicand+1
  2955  0182  120A  158A  276F  120A  118A  	fcall	___wmul
  2956  0187  1283               	bcf	3,5	;RP0=0, select bank0
  2957  0188  1303               	bcf	3,6	;RP1=0, select bank0
  2958  0189  0834               	movf	Conversiones@temporal,w
  2959  018A  0720               	addwf	?___wmul,w
  2960  018B  00B4               	movwf	Conversiones@temporal
  2961  018C  0835               	movf	Conversiones@temporal+1,w
  2962  018D  1803               	skipnc
  2963  018E  0A35               	incf	Conversiones@temporal+1,w
  2964  018F  0721               	addwf	?___wmul+1,w
  2965  0190  00B5               	movwf	Conversiones@temporal+1
  2966  0191                     l2244:
  2967                           
  2968                           ;code.c: 271:         centimas = temporal;
  2969  0191  0834               	movf	Conversiones@temporal,w
  2970  0192  00AF               	movwf	??_Conversiones
  2971  0193  082F               	movf	??_Conversiones,w
  2972  0194  00B1               	movwf	Conversiones@centimas
  2973  0195                     l2246:
  2974                           
  2975                           ;code.c: 272:         Lcd_Set_Cursor(2,7);
  2976  0195  3007               	movlw	7
  2977  0196  00AF               	movwf	??_Conversiones
  2978  0197  082F               	movf	??_Conversiones,w
  2979  0198  00A4               	movwf	Lcd_Set_Cursor@b
  2980  0199  3002               	movlw	2
  2981  019A  120A  118A  27DE  120A  118A  	fcall	_Lcd_Set_Cursor
  2982  019F                     l2248:
  2983                           
  2984                           ;code.c: 273:         Lcd_Write_String(Cambio(unidades));
  2985  019F  1283               	bcf	3,5	;RP0=0, select bank0
  2986  01A0  1303               	bcf	3,6	;RP1=0, select bank0
  2987  01A1  0832               	movf	Conversiones@unidades,w
  2988  01A2  120A  158A  27BF  120A  118A  	fcall	_Cambio
  2989  01A7  120A  158A  2796  120A  118A  	fcall	_Lcd_Write_String
  2990  01AC                     l2250:
  2991                           
  2992                           ;code.c: 274:         Lcd_Set_Cursor(2,8);
  2993  01AC  3008               	movlw	8
  2994  01AD  1283               	bcf	3,5	;RP0=0, select bank0
  2995  01AE  1303               	bcf	3,6	;RP1=0, select bank0
  2996  01AF  00AF               	movwf	??_Conversiones
  2997  01B0  082F               	movf	??_Conversiones,w
  2998  01B1  00A4               	movwf	Lcd_Set_Cursor@b
  2999  01B2  3002               	movlw	2
  3000  01B3  120A  118A  27DE  120A  118A  	fcall	_Lcd_Set_Cursor
  3001  01B8                     l2252:
  3002                           
  3003                           ;code.c: 275:         Lcd_Write_String(".");
  3004  01B8  3022               	movlw	(low ((STR_4-__stringbase)| (0+32768)))& (0+255)
  3005  01B9  120A  158A  2796  120A  118A  	fcall	_Lcd_Write_String
  3006  01BE                     l2254:
  3007                           
  3008                           ;code.c: 276:         Lcd_Set_Cursor(2,9);
  3009  01BE  3009               	movlw	9
  3010  01BF  1283               	bcf	3,5	;RP0=0, select bank0
  3011  01C0  1303               	bcf	3,6	;RP1=0, select bank0
  3012  01C1  00AF               	movwf	??_Conversiones
  3013  01C2  082F               	movf	??_Conversiones,w
  3014  01C3  00A4               	movwf	Lcd_Set_Cursor@b
  3015  01C4  3002               	movlw	2
  3016  01C5  120A  118A  27DE  120A  118A  	fcall	_Lcd_Set_Cursor
  3017  01CA                     l2256:
  3018                           
  3019                           ;code.c: 277:         Lcd_Write_String(Cambio(decimas));
  3020  01CA  1283               	bcf	3,5	;RP0=0, select bank0
  3021  01CB  1303               	bcf	3,6	;RP1=0, select bank0
  3022  01CC  0833               	movf	Conversiones@decimas,w
  3023  01CD  120A  158A  27BF  120A  118A  	fcall	_Cambio
  3024  01D2  120A  158A  2796  120A  118A  	fcall	_Lcd_Write_String
  3025  01D7                     l2258:
  3026                           
  3027                           ;code.c: 278:         Lcd_Set_Cursor(2,10);
  3028  01D7  300A               	movlw	10
  3029  01D8  1283               	bcf	3,5	;RP0=0, select bank0
  3030  01D9  1303               	bcf	3,6	;RP1=0, select bank0
  3031  01DA  00AF               	movwf	??_Conversiones
  3032  01DB  082F               	movf	??_Conversiones,w
  3033  01DC  00A4               	movwf	Lcd_Set_Cursor@b
  3034  01DD  3002               	movlw	2
  3035  01DE  120A  118A  27DE  120A  118A  	fcall	_Lcd_Set_Cursor
  3036  01E3                     l2260:
  3037                           
  3038                           ;code.c: 279:         Lcd_Write_String(Cambio(centimas));
  3039  01E3  1283               	bcf	3,5	;RP0=0, select bank0
  3040  01E4  1303               	bcf	3,6	;RP1=0, select bank0
  3041  01E5  0831               	movf	Conversiones@centimas,w
  3042  01E6  120A  158A  27BF  120A  118A  	fcall	_Cambio
  3043  01EB  120A  158A  2796  120A  118A  	fcall	_Lcd_Write_String
  3044  01F0                     l2262:
  3045                           
  3046                           ;code.c: 280:         Lcd_Set_Cursor(2,11);
  3047  01F0  300B               	movlw	11
  3048  01F1  1283               	bcf	3,5	;RP0=0, select bank0
  3049  01F2  1303               	bcf	3,6	;RP1=0, select bank0
  3050  01F3  00AF               	movwf	??_Conversiones
  3051  01F4  082F               	movf	??_Conversiones,w
  3052  01F5  00A4               	movwf	Lcd_Set_Cursor@b
  3053  01F6  3002               	movlw	2
  3054  01F7  120A  118A  27DE  120A  118A  	fcall	_Lcd_Set_Cursor
  3055  01FC                     l138:
  3056  01FC  0008               	return
  3057  01FD                     __end_of_Conversiones:
  3058                           
  3059                           	psect	text9
  3060  0F6F                     __ptext9:	
  3061 ;; *************** function ___wmul *****************
  3062 ;; Defined at:
  3063 ;;		line 15 in file "C:\Program Files\Microchip\xc8\v2.31\pic\sources\c90\common\Umul16.c"
  3064 ;; Parameters:    Size  Location     Type
  3065 ;;  multiplier      2    0[BANK0 ] unsigned int 
  3066 ;;  multiplicand    2    2[BANK0 ] unsigned int 
  3067 ;; Auto vars:     Size  Location     Type
  3068 ;;  product         2    4[BANK0 ] unsigned int 
  3069 ;; Return value:  Size  Location     Type
  3070 ;;                  2    0[BANK0 ] unsigned int 
  3071 ;; Registers used:
  3072 ;;		wreg, status,2, status,0
  3073 ;; Tracked objects:
  3074 ;;		On entry : 0/0
  3075 ;;		On exit  : 0/0
  3076 ;;		Unchanged: 0/0
  3077 ;; Data sizes:     COMMON   BANK0   BANK1   BANK3   BANK2
  3078 ;;      Params:         0       4       0       0       0
  3079 ;;      Locals:         0       2       0       0       0
  3080 ;;      Temps:          0       0       0       0       0
  3081 ;;      Totals:         0       6       0       0       0
  3082 ;;Total ram usage:        6 bytes
  3083 ;; Hardware stack levels used:    1
  3084 ;; Hardware stack levels required when called:    3
  3085 ;; This function calls:
  3086 ;;		Nothing
  3087 ;; This function is called by:
  3088 ;;		_Conversiones
  3089 ;; This function uses a non-reentrant model
  3090 ;;
  3091                           
  3092                           
  3093                           ;psect for function ___wmul
  3094  0F6F                     ___wmul:
  3095  0F6F                     l2004:	
  3096                           ;incstack = 0
  3097                           ; Regs used in ___wmul: [wreg+status,2+status,0]
  3098                           
  3099  0F6F  1283               	bcf	3,5	;RP0=0, select bank0
  3100  0F70  1303               	bcf	3,6	;RP1=0, select bank0
  3101  0F71  01A4               	clrf	___wmul@product
  3102  0F72  01A5               	clrf	___wmul@product+1
  3103  0F73                     l2006:
  3104  0F73  1C20               	btfss	___wmul@multiplier,0
  3105  0F74  2F76               	goto	u481
  3106  0F75  2F77               	goto	u480
  3107  0F76                     u481:
  3108  0F76  2F7D               	goto	l366
  3109  0F77                     u480:
  3110  0F77                     l2008:
  3111  0F77  0822               	movf	___wmul@multiplicand,w
  3112  0F78  07A4               	addwf	___wmul@product,f
  3113  0F79  1803               	skipnc
  3114  0F7A  0AA5               	incf	___wmul@product+1,f
  3115  0F7B  0823               	movf	___wmul@multiplicand+1,w
  3116  0F7C  07A5               	addwf	___wmul@product+1,f
  3117  0F7D                     l366:
  3118  0F7D  3001               	movlw	1
  3119  0F7E                     u495:
  3120  0F7E  1003               	clrc
  3121  0F7F  0DA2               	rlf	___wmul@multiplicand,f
  3122  0F80  0DA3               	rlf	___wmul@multiplicand+1,f
  3123  0F81  3EFF               	addlw	-1
  3124  0F82  1D03               	skipz
  3125  0F83  2F7E               	goto	u495
  3126  0F84                     l2010:
  3127  0F84  3001               	movlw	1
  3128  0F85                     u505:
  3129  0F85  1003               	clrc
  3130  0F86  0CA1               	rrf	___wmul@multiplier+1,f
  3131  0F87  0CA0               	rrf	___wmul@multiplier,f
  3132  0F88  3EFF               	addlw	-1
  3133  0F89  1D03               	skipz
  3134  0F8A  2F85               	goto	u505
  3135  0F8B                     l2012:
  3136  0F8B  0820               	movf	___wmul@multiplier,w
  3137  0F8C  0421               	iorwf	___wmul@multiplier+1,w
  3138  0F8D  1D03               	btfss	3,2
  3139  0F8E  2F90               	goto	u511
  3140  0F8F  2F91               	goto	u510
  3141  0F90                     u511:
  3142  0F90  2F73               	goto	l2006
  3143  0F91                     u510:
  3144  0F91                     l2014:
  3145  0F91  0825               	movf	___wmul@product+1,w
  3146  0F92  00A1               	movwf	?___wmul+1
  3147  0F93  0824               	movf	___wmul@product,w
  3148  0F94  00A0               	movwf	?___wmul
  3149  0F95                     l368:
  3150  0F95  0008               	return
  3151  0F96                     __end_of___wmul:
  3152                           
  3153                           	psect	text10
  3154  0757                     __ptext10:	
  3155 ;; *************** function ___lwdiv *****************
  3156 ;; Defined at:
  3157 ;;		line 5 in file "C:\Program Files\Microchip\xc8\v2.31\pic\sources\c90\common\lwdiv.c"
  3158 ;; Parameters:    Size  Location     Type
  3159 ;;  divisor         2    0[BANK0 ] unsigned int 
  3160 ;;  dividend        2    2[BANK0 ] unsigned int 
  3161 ;; Auto vars:     Size  Location     Type
  3162 ;;  quotient        2    5[BANK0 ] unsigned int 
  3163 ;;  counter         1    7[BANK0 ] unsigned char 
  3164 ;; Return value:  Size  Location     Type
  3165 ;;                  2    0[BANK0 ] unsigned int 
  3166 ;; Registers used:
  3167 ;;		wreg, status,2, status,0
  3168 ;; Tracked objects:
  3169 ;;		On entry : 0/0
  3170 ;;		On exit  : 0/0
  3171 ;;		Unchanged: 0/0
  3172 ;; Data sizes:     COMMON   BANK0   BANK1   BANK3   BANK2
  3173 ;;      Params:         0       4       0       0       0
  3174 ;;      Locals:         0       3       0       0       0
  3175 ;;      Temps:          0       1       0       0       0
  3176 ;;      Totals:         0       8       0       0       0
  3177 ;;Total ram usage:        8 bytes
  3178 ;; Hardware stack levels used:    1
  3179 ;; Hardware stack levels required when called:    3
  3180 ;; This function calls:
  3181 ;;		Nothing
  3182 ;; This function is called by:
  3183 ;;		_Conversiones
  3184 ;; This function uses a non-reentrant model
  3185 ;;
  3186                           
  3187                           
  3188                           ;psect for function ___lwdiv
  3189  0757                     ___lwdiv:
  3190  0757                     l2076:	
  3191                           ;incstack = 0
  3192                           ; Regs used in ___lwdiv: [wreg+status,2+status,0]
  3193                           
  3194  0757  1283               	bcf	3,5	;RP0=0, select bank0
  3195  0758  1303               	bcf	3,6	;RP1=0, select bank0
  3196  0759  01A5               	clrf	___lwdiv@quotient
  3197  075A  01A6               	clrf	___lwdiv@quotient+1
  3198  075B                     l2078:
  3199  075B  0820               	movf	___lwdiv@divisor,w
  3200  075C  0421               	iorwf	___lwdiv@divisor+1,w
  3201  075D  1903               	btfsc	3,2
  3202  075E  2F60               	goto	u641
  3203  075F  2F61               	goto	u640
  3204  0760                     u641:
  3205  0760  2F98               	goto	l2098
  3206  0761                     u640:
  3207  0761                     l2080:
  3208  0761  01A7               	clrf	___lwdiv@counter
  3209  0762  0AA7               	incf	___lwdiv@counter,f
  3210  0763  2F6F               	goto	l2086
  3211  0764                     l2082:
  3212  0764  3001               	movlw	1
  3213  0765                     u655:
  3214  0765  1003               	clrc
  3215  0766  0DA0               	rlf	___lwdiv@divisor,f
  3216  0767  0DA1               	rlf	___lwdiv@divisor+1,f
  3217  0768  3EFF               	addlw	-1
  3218  0769  1D03               	skipz
  3219  076A  2F65               	goto	u655
  3220  076B                     l2084:
  3221  076B  3001               	movlw	1
  3222  076C  00A4               	movwf	??___lwdiv
  3223  076D  0824               	movf	??___lwdiv,w
  3224  076E  07A7               	addwf	___lwdiv@counter,f
  3225  076F                     l2086:
  3226  076F  1FA1               	btfss	___lwdiv@divisor+1,7
  3227  0770  2F72               	goto	u661
  3228  0771  2F73               	goto	u660
  3229  0772                     u661:
  3230  0772  2F64               	goto	l2082
  3231  0773                     u660:
  3232  0773                     l2088:
  3233  0773  3001               	movlw	1
  3234  0774                     u675:
  3235  0774  1003               	clrc
  3236  0775  0DA5               	rlf	___lwdiv@quotient,f
  3237  0776  0DA6               	rlf	___lwdiv@quotient+1,f
  3238  0777  3EFF               	addlw	-1
  3239  0778  1D03               	skipz
  3240  0779  2F74               	goto	u675
  3241  077A  0821               	movf	___lwdiv@divisor+1,w
  3242  077B  0223               	subwf	___lwdiv@dividend+1,w
  3243  077C  1D03               	skipz
  3244  077D  2F80               	goto	u685
  3245  077E  0820               	movf	___lwdiv@divisor,w
  3246  077F  0222               	subwf	___lwdiv@dividend,w
  3247  0780                     u685:
  3248  0780  1C03               	skipc
  3249  0781  2F83               	goto	u681
  3250  0782  2F84               	goto	u680
  3251  0783                     u681:
  3252  0783  2F8B               	goto	l2094
  3253  0784                     u680:
  3254  0784                     l2090:
  3255  0784  0820               	movf	___lwdiv@divisor,w
  3256  0785  02A2               	subwf	___lwdiv@dividend,f
  3257  0786  0821               	movf	___lwdiv@divisor+1,w
  3258  0787  1C03               	skipc
  3259  0788  03A3               	decf	___lwdiv@dividend+1,f
  3260  0789  02A3               	subwf	___lwdiv@dividend+1,f
  3261  078A                     l2092:
  3262  078A  1425               	bsf	___lwdiv@quotient,0
  3263  078B                     l2094:
  3264  078B  3001               	movlw	1
  3265  078C                     u695:
  3266  078C  1003               	clrc
  3267  078D  0CA1               	rrf	___lwdiv@divisor+1,f
  3268  078E  0CA0               	rrf	___lwdiv@divisor,f
  3269  078F  3EFF               	addlw	-1
  3270  0790  1D03               	skipz
  3271  0791  2F8C               	goto	u695
  3272  0792                     l2096:
  3273  0792  3001               	movlw	1
  3274  0793  02A7               	subwf	___lwdiv@counter,f
  3275  0794  1D03               	btfss	3,2
  3276  0795  2F97               	goto	u701
  3277  0796  2F98               	goto	u700
  3278  0797                     u701:
  3279  0797  2F73               	goto	l2088
  3280  0798                     u700:
  3281  0798                     l2098:
  3282  0798  0826               	movf	___lwdiv@quotient+1,w
  3283  0799  00A1               	movwf	?___lwdiv+1
  3284  079A  0825               	movf	___lwdiv@quotient,w
  3285  079B  00A0               	movwf	?___lwdiv
  3286  079C                     l638:
  3287  079C  0008               	return
  3288  079D                     __end_of___lwdiv:
  3289                           
  3290                           	psect	text11
  3291  0589                     __ptext11:	
  3292 ;; *************** function ___awdiv *****************
  3293 ;; Defined at:
  3294 ;;		line 5 in file "C:\Program Files\Microchip\xc8\v2.31\pic\sources\c90\common\awdiv.c"
  3295 ;; Parameters:    Size  Location     Type
  3296 ;;  divisor         2    6[BANK0 ] int 
  3297 ;;  dividend        2    8[BANK0 ] int 
  3298 ;; Auto vars:     Size  Location     Type
  3299 ;;  quotient        2   13[BANK0 ] int 
  3300 ;;  sign            1   12[BANK0 ] unsigned char 
  3301 ;;  counter         1   11[BANK0 ] unsigned char 
  3302 ;; Return value:  Size  Location     Type
  3303 ;;                  2    6[BANK0 ] int 
  3304 ;; Registers used:
  3305 ;;		wreg, status,2, status,0
  3306 ;; Tracked objects:
  3307 ;;		On entry : 0/0
  3308 ;;		On exit  : 0/0
  3309 ;;		Unchanged: 0/0
  3310 ;; Data sizes:     COMMON   BANK0   BANK1   BANK3   BANK2
  3311 ;;      Params:         0       4       0       0       0
  3312 ;;      Locals:         0       4       0       0       0
  3313 ;;      Temps:          0       1       0       0       0
  3314 ;;      Totals:         0       9       0       0       0
  3315 ;;Total ram usage:        9 bytes
  3316 ;; Hardware stack levels used:    1
  3317 ;; Hardware stack levels required when called:    3
  3318 ;; This function calls:
  3319 ;;		Nothing
  3320 ;; This function is called by:
  3321 ;;		_Conversiones
  3322 ;;		_Envio_Contador
  3323 ;; This function uses a non-reentrant model
  3324 ;;
  3325                           
  3326                           
  3327                           ;psect for function ___awdiv
  3328  0589                     ___awdiv:
  3329  0589                     l2032:	
  3330                           ;incstack = 0
  3331                           ; Regs used in ___awdiv: [wreg+status,2+status,0]
  3332                           
  3333  0589  1283               	bcf	3,5	;RP0=0, select bank0
  3334  058A  1303               	bcf	3,6	;RP1=0, select bank0
  3335  058B  01AC               	clrf	___awdiv@sign
  3336  058C                     l2034:
  3337  058C  1FA7               	btfss	___awdiv@divisor+1,7
  3338  058D  2D8F               	goto	u541
  3339  058E  2D90               	goto	u540
  3340  058F                     u541:
  3341  058F  2D97               	goto	l2040
  3342  0590                     u540:
  3343  0590                     l2036:
  3344  0590  09A6               	comf	___awdiv@divisor,f
  3345  0591  09A7               	comf	___awdiv@divisor+1,f
  3346  0592  0AA6               	incf	___awdiv@divisor,f
  3347  0593  1903               	skipnz
  3348  0594  0AA7               	incf	___awdiv@divisor+1,f
  3349  0595                     l2038:
  3350  0595  01AC               	clrf	___awdiv@sign
  3351  0596  0AAC               	incf	___awdiv@sign,f
  3352  0597                     l2040:
  3353  0597  1FA9               	btfss	___awdiv@dividend+1,7
  3354  0598  2D9A               	goto	u551
  3355  0599  2D9B               	goto	u550
  3356  059A                     u551:
  3357  059A  2DA4               	goto	l2046
  3358  059B                     u550:
  3359  059B                     l2042:
  3360  059B  09A8               	comf	___awdiv@dividend,f
  3361  059C  09A9               	comf	___awdiv@dividend+1,f
  3362  059D  0AA8               	incf	___awdiv@dividend,f
  3363  059E  1903               	skipnz
  3364  059F  0AA9               	incf	___awdiv@dividend+1,f
  3365  05A0                     l2044:
  3366  05A0  3001               	movlw	1
  3367  05A1  00AA               	movwf	??___awdiv
  3368  05A2  082A               	movf	??___awdiv,w
  3369  05A3  06AC               	xorwf	___awdiv@sign,f
  3370  05A4                     l2046:
  3371  05A4  01AD               	clrf	___awdiv@quotient
  3372  05A5  01AE               	clrf	___awdiv@quotient+1
  3373  05A6                     l2048:
  3374  05A6  0826               	movf	___awdiv@divisor,w
  3375  05A7  0427               	iorwf	___awdiv@divisor+1,w
  3376  05A8  1903               	btfsc	3,2
  3377  05A9  2DAB               	goto	u561
  3378  05AA  2DAC               	goto	u560
  3379  05AB                     u561:
  3380  05AB  2DE3               	goto	l2068
  3381  05AC                     u560:
  3382  05AC                     l2050:
  3383  05AC  01AB               	clrf	___awdiv@counter
  3384  05AD  0AAB               	incf	___awdiv@counter,f
  3385  05AE  2DBA               	goto	l2056
  3386  05AF                     l2052:
  3387  05AF  3001               	movlw	1
  3388  05B0                     u575:
  3389  05B0  1003               	clrc
  3390  05B1  0DA6               	rlf	___awdiv@divisor,f
  3391  05B2  0DA7               	rlf	___awdiv@divisor+1,f
  3392  05B3  3EFF               	addlw	-1
  3393  05B4  1D03               	skipz
  3394  05B5  2DB0               	goto	u575
  3395  05B6                     l2054:
  3396  05B6  3001               	movlw	1
  3397  05B7  00AA               	movwf	??___awdiv
  3398  05B8  082A               	movf	??___awdiv,w
  3399  05B9  07AB               	addwf	___awdiv@counter,f
  3400  05BA                     l2056:
  3401  05BA  1FA7               	btfss	___awdiv@divisor+1,7
  3402  05BB  2DBD               	goto	u581
  3403  05BC  2DBE               	goto	u580
  3404  05BD                     u581:
  3405  05BD  2DAF               	goto	l2052
  3406  05BE                     u580:
  3407  05BE                     l2058:
  3408  05BE  3001               	movlw	1
  3409  05BF                     u595:
  3410  05BF  1003               	clrc
  3411  05C0  0DAD               	rlf	___awdiv@quotient,f
  3412  05C1  0DAE               	rlf	___awdiv@quotient+1,f
  3413  05C2  3EFF               	addlw	-1
  3414  05C3  1D03               	skipz
  3415  05C4  2DBF               	goto	u595
  3416  05C5  0827               	movf	___awdiv@divisor+1,w
  3417  05C6  0229               	subwf	___awdiv@dividend+1,w
  3418  05C7  1D03               	skipz
  3419  05C8  2DCB               	goto	u605
  3420  05C9  0826               	movf	___awdiv@divisor,w
  3421  05CA  0228               	subwf	___awdiv@dividend,w
  3422  05CB                     u605:
  3423  05CB  1C03               	skipc
  3424  05CC  2DCE               	goto	u601
  3425  05CD  2DCF               	goto	u600
  3426  05CE                     u601:
  3427  05CE  2DD6               	goto	l2064
  3428  05CF                     u600:
  3429  05CF                     l2060:
  3430  05CF  0826               	movf	___awdiv@divisor,w
  3431  05D0  02A8               	subwf	___awdiv@dividend,f
  3432  05D1  0827               	movf	___awdiv@divisor+1,w
  3433  05D2  1C03               	skipc
  3434  05D3  03A9               	decf	___awdiv@dividend+1,f
  3435  05D4  02A9               	subwf	___awdiv@dividend+1,f
  3436  05D5                     l2062:
  3437  05D5  142D               	bsf	___awdiv@quotient,0
  3438  05D6                     l2064:
  3439  05D6  3001               	movlw	1
  3440  05D7                     u615:
  3441  05D7  1003               	clrc
  3442  05D8  0CA7               	rrf	___awdiv@divisor+1,f
  3443  05D9  0CA6               	rrf	___awdiv@divisor,f
  3444  05DA  3EFF               	addlw	-1
  3445  05DB  1D03               	skipz
  3446  05DC  2DD7               	goto	u615
  3447  05DD                     l2066:
  3448  05DD  3001               	movlw	1
  3449  05DE  02AB               	subwf	___awdiv@counter,f
  3450  05DF  1D03               	btfss	3,2
  3451  05E0  2DE2               	goto	u621
  3452  05E1  2DE3               	goto	u620
  3453  05E2                     u621:
  3454  05E2  2DBE               	goto	l2058
  3455  05E3                     u620:
  3456  05E3                     l2068:
  3457  05E3  082C               	movf	___awdiv@sign,w
  3458  05E4  1903               	btfsc	3,2
  3459  05E5  2DE7               	goto	u631
  3460  05E6  2DE8               	goto	u630
  3461  05E7                     u631:
  3462  05E7  2DED               	goto	l2072
  3463  05E8                     u630:
  3464  05E8                     l2070:
  3465  05E8  09AD               	comf	___awdiv@quotient,f
  3466  05E9  09AE               	comf	___awdiv@quotient+1,f
  3467  05EA  0AAD               	incf	___awdiv@quotient,f
  3468  05EB  1903               	skipnz
  3469  05EC  0AAE               	incf	___awdiv@quotient+1,f
  3470  05ED                     l2072:
  3471  05ED  082E               	movf	___awdiv@quotient+1,w
  3472  05EE  00A7               	movwf	?___awdiv+1
  3473  05EF  082D               	movf	___awdiv@quotient,w
  3474  05F0  00A6               	movwf	?___awdiv
  3475  05F1                     l519:
  3476  05F1  0008               	return
  3477  05F2                     __end_of___awdiv:
  3478                           
  3479                           	psect	text12
  3480  0F96                     __ptext12:	
  3481 ;; *************** function _Lcd_Write_String *****************
  3482 ;; Defined at:
  3483 ;;		line 64 in file "E:/UVG/Semestre 5/Digital2/Lab3/Lab3.X/LCD.c"
  3484 ;; Parameters:    Size  Location     Type
  3485 ;;  a               1    wreg     PTR unsigned char 
  3486 ;;		 -> STR_15(2), STR_14(2), STR_13(2), STR_12(2), 
  3487 ;;		 -> STR_11(2), STR_10(2), STR_9(2), STR_8(2), 
  3488 ;;		 -> STR_7(2), STR_6(2), STR_5(2), STR_4(2), 
  3489 ;;		 -> STR_3(5), STR_2(6), STR_1(6), 
  3490 ;; Auto vars:     Size  Location     Type
  3491 ;;  a               1    5[BANK0 ] PTR unsigned char 
  3492 ;;		 -> STR_15(2), STR_14(2), STR_13(2), STR_12(2), 
  3493 ;;		 -> STR_11(2), STR_10(2), STR_9(2), STR_8(2), 
  3494 ;;		 -> STR_7(2), STR_6(2), STR_5(2), STR_4(2), 
  3495 ;;		 -> STR_3(5), STR_2(6), STR_1(6), 
  3496 ;;  i               2    3[BANK0 ] int 
  3497 ;; Return value:  Size  Location     Type
  3498 ;;                  1    wreg      void 
  3499 ;; Registers used:
  3500 ;;		wreg, fsr0l, fsr0h, status,2, status,0, pclath, cstack
  3501 ;; Tracked objects:
  3502 ;;		On entry : 0/0
  3503 ;;		On exit  : 0/0
  3504 ;;		Unchanged: 0/0
  3505 ;; Data sizes:     COMMON   BANK0   BANK1   BANK3   BANK2
  3506 ;;      Params:         0       0       0       0       0
  3507 ;;      Locals:         0       3       0       0       0
  3508 ;;      Temps:          0       0       0       0       0
  3509 ;;      Totals:         0       3       0       0       0
  3510 ;;Total ram usage:        3 bytes
  3511 ;; Hardware stack levels used:    1
  3512 ;; Hardware stack levels required when called:    5
  3513 ;; This function calls:
  3514 ;;		_Lcd_Write_Char
  3515 ;; This function is called by:
  3516 ;;		_main
  3517 ;;		_Conversiones
  3518 ;;		_Envio_Contador
  3519 ;; This function uses a non-reentrant model
  3520 ;;
  3521                           
  3522                           
  3523                           ;psect for function _Lcd_Write_String
  3524  0F96                     _Lcd_Write_String:
  3525                           
  3526                           ;incstack = 0
  3527                           ; Regs used in _Lcd_Write_String: [wreg-fsr0h+status,2+status,0+pclath+cstack]
  3528                           ;Lcd_Write_String@a stored from wreg
  3529  0F96  1283               	bcf	3,5	;RP0=0, select bank0
  3530  0F97  1303               	bcf	3,6	;RP1=0, select bank0
  3531  0F98  00A5               	movwf	Lcd_Write_String@a
  3532  0F99                     l1762:
  3533                           
  3534                           ;E:/UVG/Semestre 5/Digital2/Lab3/Lab3.X/LCD.c: 65:  for(int i=0;a[i]!='\0';i++){
  3535  0F99  01A3               	clrf	Lcd_Write_String@i
  3536  0F9A  01A4               	clrf	Lcd_Write_String@i+1
  3537  0F9B  2FB1               	goto	l1768
  3538  0F9C                     l1764:
  3539                           
  3540                           ;E:/UVG/Semestre 5/Digital2/Lab3/Lab3.X/LCD.c: 66:         Lcd_Write_Char(a[i]);
  3541  0F9C  0823               	movf	Lcd_Write_String@i,w
  3542  0F9D  0725               	addwf	Lcd_Write_String@a,w
  3543  0F9E  0084               	movwf	4
  3544  0F9F  120A  158A  2000  120A  158A  	fcall	stringdir
  3545  0FA4  120A  158A  273C  120A  158A  	fcall	_Lcd_Write_Char
  3546  0FA9                     l1766:
  3547                           
  3548                           ;E:/UVG/Semestre 5/Digital2/Lab3/Lab3.X/LCD.c: 67:     }
  3549  0FA9  3001               	movlw	1
  3550  0FAA  1283               	bcf	3,5	;RP0=0, select bank0
  3551  0FAB  1303               	bcf	3,6	;RP1=0, select bank0
  3552  0FAC  07A3               	addwf	Lcd_Write_String@i,f
  3553  0FAD  1803               	skipnc
  3554  0FAE  0AA4               	incf	Lcd_Write_String@i+1,f
  3555  0FAF  3000               	movlw	0
  3556  0FB0  07A4               	addwf	Lcd_Write_String@i+1,f
  3557  0FB1                     l1768:
  3558  0FB1  0823               	movf	Lcd_Write_String@i,w
  3559  0FB2  0725               	addwf	Lcd_Write_String@a,w
  3560  0FB3  0084               	movwf	4
  3561  0FB4  120A  158A  2000  120A  158A  	fcall	stringdir
  3562  0FB9  3A00               	xorlw	0
  3563  0FBA  1D03               	skipz
  3564  0FBB  2FBD               	goto	u451
  3565  0FBC  2FBE               	goto	u450
  3566  0FBD                     u451:
  3567  0FBD  2F9C               	goto	l1764
  3568  0FBE                     u450:
  3569  0FBE                     l209:
  3570  0FBE  0008               	return
  3571  0FBF                     __end_of_Lcd_Write_String:
  3572                           
  3573                           	psect	text13
  3574  0F3C                     __ptext13:	
  3575 ;; *************** function _Lcd_Write_Char *****************
  3576 ;; Defined at:
  3577 ;;		line 56 in file "E:/UVG/Semestre 5/Digital2/Lab3/Lab3.X/LCD.c"
  3578 ;; Parameters:    Size  Location     Type
  3579 ;;  a               1    wreg     unsigned char 
  3580 ;; Auto vars:     Size  Location     Type
  3581 ;;  a               1    2[BANK0 ] unsigned char 
  3582 ;; Return value:  Size  Location     Type
  3583 ;;                  1    wreg      void 
  3584 ;; Registers used:
  3585 ;;		wreg, status,2, status,0, pclath, cstack
  3586 ;; Tracked objects:
  3587 ;;		On entry : 0/0
  3588 ;;		On exit  : 0/0
  3589 ;;		Unchanged: 0/0
  3590 ;; Data sizes:     COMMON   BANK0   BANK1   BANK3   BANK2
  3591 ;;      Params:         0       0       0       0       0
  3592 ;;      Locals:         0       1       0       0       0
  3593 ;;      Temps:          0       1       0       0       0
  3594 ;;      Totals:         0       2       0       0       0
  3595 ;;Total ram usage:        2 bytes
  3596 ;; Hardware stack levels used:    1
  3597 ;; Hardware stack levels required when called:    4
  3598 ;; This function calls:
  3599 ;;		_Lcd_Port
  3600 ;; This function is called by:
  3601 ;;		_Lcd_Write_String
  3602 ;; This function uses a non-reentrant model
  3603 ;;
  3604                           
  3605                           
  3606                           ;psect for function _Lcd_Write_Char
  3607  0F3C                     _Lcd_Write_Char:
  3608                           
  3609                           ;incstack = 0
  3610                           ; Regs used in _Lcd_Write_Char: [wreg+status,2+status,0+pclath+cstack]
  3611                           ;Lcd_Write_Char@a stored from wreg
  3612  0F3C  1283               	bcf	3,5	;RP0=0, select bank0
  3613  0F3D  1303               	bcf	3,6	;RP1=0, select bank0
  3614  0F3E  00A2               	movwf	Lcd_Write_Char@a
  3615  0F3F                     l1726:
  3616                           
  3617                           ;E:/UVG/Semestre 5/Digital2/Lab3/Lab3.X/LCD.c: 57:     PORTDbits.RD2 = 1;
  3618  0F3F  1508               	bsf	8,2	;volatile
  3619  0F40                     l1728:
  3620                           
  3621                           ;E:/UVG/Semestre 5/Digital2/Lab3/Lab3.X/LCD.c: 58:     Lcd_Port(a);
  3622  0F40  0822               	movf	Lcd_Write_Char@a,w
  3623  0F41  120A  158A  270B  120A  158A  	fcall	_Lcd_Port
  3624  0F46                     l1730:
  3625                           
  3626                           ;E:/UVG/Semestre 5/Digital2/Lab3/Lab3.X/LCD.c: 59:     PORTDbits.RD0 = 1;
  3627  0F46  1283               	bcf	3,5	;RP0=0, select bank0
  3628  0F47  1303               	bcf	3,6	;RP1=0, select bank0
  3629  0F48  1408               	bsf	8,0	;volatile
  3630  0F49                     l1732:
  3631                           
  3632                           ;E:/UVG/Semestre 5/Digital2/Lab3/Lab3.X/LCD.c: 60:     _delay((unsigned long)((40)*(4000
      +                          000/4000000.0)));
  3633  0F49  300C               	movlw	12
  3634  0F4A  1283               	bcf	3,5	;RP0=0, select bank0
  3635  0F4B  1303               	bcf	3,6	;RP1=0, select bank0
  3636  0F4C  00A1               	movwf	??_Lcd_Write_Char
  3637  0F4D                     u947:
  3638  0F4D  0BA1               	decfsz	??_Lcd_Write_Char,f
  3639  0F4E  2F4D               	goto	u947
  3640  0F4F  0000               	nop
  3641  0F50                     l1734:
  3642                           
  3643                           ;E:/UVG/Semestre 5/Digital2/Lab3/Lab3.X/LCD.c: 61:     PORTDbits.RD0 = 0;
  3644  0F50  1283               	bcf	3,5	;RP0=0, select bank0
  3645  0F51  1303               	bcf	3,6	;RP1=0, select bank0
  3646  0F52  1008               	bcf	8,0	;volatile
  3647  0F53                     l203:
  3648  0F53  0008               	return
  3649  0F54                     __end_of_Lcd_Write_Char:
  3650                           
  3651                           	psect	text14
  3652  07DE                     __ptext14:	
  3653 ;; *************** function _Lcd_Set_Cursor *****************
  3654 ;; Defined at:
  3655 ;;		line 29 in file "E:/UVG/Semestre 5/Digital2/Lab3/Lab3.X/LCD.c"
  3656 ;; Parameters:    Size  Location     Type
  3657 ;;  a               1    wreg     unsigned char 
  3658 ;;  b               1    4[BANK0 ] unsigned char 
  3659 ;; Auto vars:     Size  Location     Type
  3660 ;;  a               1    5[BANK0 ] unsigned char 
  3661 ;; Return value:  Size  Location     Type
  3662 ;;                  1    wreg      void 
  3663 ;; Registers used:
  3664 ;;		wreg, status,2, status,0, pclath, cstack
  3665 ;; Tracked objects:
  3666 ;;		On entry : 0/0
  3667 ;;		On exit  : 0/0
  3668 ;;		Unchanged: 0/0
  3669 ;; Data sizes:     COMMON   BANK0   BANK1   BANK3   BANK2
  3670 ;;      Params:         0       1       0       0       0
  3671 ;;      Locals:         0       1       0       0       0
  3672 ;;      Temps:          0       0       0       0       0
  3673 ;;      Totals:         0       2       0       0       0
  3674 ;;Total ram usage:        2 bytes
  3675 ;; Hardware stack levels used:    1
  3676 ;; Hardware stack levels required when called:    5
  3677 ;; This function calls:
  3678 ;;		_Lcd_Cmd
  3679 ;; This function is called by:
  3680 ;;		_main
  3681 ;;		_Conversiones
  3682 ;;		_Envio_Contador
  3683 ;; This function uses a non-reentrant model
  3684 ;;
  3685                           
  3686                           
  3687                           ;psect for function _Lcd_Set_Cursor
  3688  07DE                     _Lcd_Set_Cursor:
  3689                           
  3690                           ;incstack = 0
  3691                           ; Regs used in _Lcd_Set_Cursor: [wreg+status,2+status,0+pclath+cstack]
  3692                           ;Lcd_Set_Cursor@a stored from wreg
  3693  07DE  1283               	bcf	3,5	;RP0=0, select bank0
  3694  07DF  1303               	bcf	3,6	;RP1=0, select bank0
  3695  07E0  00A5               	movwf	Lcd_Set_Cursor@a
  3696  07E1                     l1770:
  3697                           
  3698                           ;E:/UVG/Semestre 5/Digital2/Lab3/Lab3.X/LCD.c: 30:  if(a == 1){
  3699  07E1  0325               	decf	Lcd_Set_Cursor@a,w
  3700  07E2  1D03               	btfss	3,2
  3701  07E3  2FE5               	goto	u461
  3702  07E4  2FE6               	goto	u460
  3703  07E5                     u461:
  3704  07E5  2FEE               	goto	l1774
  3705  07E6                     u460:
  3706  07E6                     l1772:
  3707                           
  3708                           ;E:/UVG/Semestre 5/Digital2/Lab3/Lab3.X/LCD.c: 31:         Lcd_Cmd(0x80 + b - 1);
  3709  07E6  0824               	movf	Lcd_Set_Cursor@b,w
  3710  07E7  3E7F               	addlw	127
  3711  07E8  120A  158A  2754  120A  118A  	fcall	_Lcd_Cmd
  3712                           
  3713                           ;E:/UVG/Semestre 5/Digital2/Lab3/Lab3.X/LCD.c: 32:  }
  3714  07ED  2FFB               	goto	l197
  3715  07EE                     l1774:
  3716  07EE  3002               	movlw	2
  3717  07EF  0625               	xorwf	Lcd_Set_Cursor@a,w
  3718  07F0  1D03               	btfss	3,2
  3719  07F1  2FF3               	goto	u471
  3720  07F2  2FF4               	goto	u470
  3721  07F3                     u471:
  3722  07F3  2FFB               	goto	l197
  3723  07F4                     u470:
  3724  07F4                     l1776:
  3725                           
  3726                           ;E:/UVG/Semestre 5/Digital2/Lab3/Lab3.X/LCD.c: 34:   Lcd_Cmd(0xC0 + b - 1);
  3727  07F4  0824               	movf	Lcd_Set_Cursor@b,w
  3728  07F5  3EBF               	addlw	191
  3729  07F6  120A  158A  2754  120A  118A  	fcall	_Lcd_Cmd
  3730  07FB                     l197:
  3731  07FB  0008               	return
  3732  07FC                     __end_of_Lcd_Set_Cursor:
  3733                           
  3734                           	psect	text15
  3735  0F54                     __ptext15:	
  3736 ;; *************** function _Lcd_Cmd *****************
  3737 ;; Defined at:
  3738 ;;		line 17 in file "E:/UVG/Semestre 5/Digital2/Lab3/Lab3.X/LCD.c"
  3739 ;; Parameters:    Size  Location     Type
  3740 ;;  a               1    wreg     unsigned char 
  3741 ;; Auto vars:     Size  Location     Type
  3742 ;;  a               1    3[BANK0 ] unsigned char 
  3743 ;; Return value:  Size  Location     Type
  3744 ;;                  1    wreg      void 
  3745 ;; Registers used:
  3746 ;;		wreg, status,2, status,0, pclath, cstack
  3747 ;; Tracked objects:
  3748 ;;		On entry : 0/0
  3749 ;;		On exit  : 0/0
  3750 ;;		Unchanged: 0/0
  3751 ;; Data sizes:     COMMON   BANK0   BANK1   BANK3   BANK2
  3752 ;;      Params:         0       0       0       0       0
  3753 ;;      Locals:         0       1       0       0       0
  3754 ;;      Temps:          0       2       0       0       0
  3755 ;;      Totals:         0       3       0       0       0
  3756 ;;Total ram usage:        3 bytes
  3757 ;; Hardware stack levels used:    1
  3758 ;; Hardware stack levels required when called:    4
  3759 ;; This function calls:
  3760 ;;		_Lcd_Port
  3761 ;; This function is called by:
  3762 ;;		_Lcd_Set_Cursor
  3763 ;;		_Lcd_Init
  3764 ;;		_Lcd_Clear
  3765 ;;		_Lcd_Shift_Right
  3766 ;;		_Lcd_Shift_Left
  3767 ;; This function uses a non-reentrant model
  3768 ;;
  3769                           
  3770                           
  3771                           ;psect for function _Lcd_Cmd
  3772  0F54                     _Lcd_Cmd:
  3773                           
  3774                           ;incstack = 0
  3775                           ; Regs used in _Lcd_Cmd: [wreg+status,2+status,0+pclath+cstack]
  3776                           ;Lcd_Cmd@a stored from wreg
  3777  0F54  1283               	bcf	3,5	;RP0=0, select bank0
  3778  0F55  1303               	bcf	3,6	;RP1=0, select bank0
  3779  0F56  00A3               	movwf	Lcd_Cmd@a
  3780  0F57                     l1716:
  3781                           
  3782                           ;E:/UVG/Semestre 5/Digital2/Lab3/Lab3.X/LCD.c: 18:  PORTDbits.RD2 = 0;
  3783  0F57  1108               	bcf	8,2	;volatile
  3784  0F58                     l1718:
  3785                           
  3786                           ;E:/UVG/Semestre 5/Digital2/Lab3/Lab3.X/LCD.c: 19:  Lcd_Port(a);
  3787  0F58  0823               	movf	Lcd_Cmd@a,w
  3788  0F59  120A  158A  270B  120A  158A  	fcall	_Lcd_Port
  3789  0F5E                     l1720:
  3790                           
  3791                           ;E:/UVG/Semestre 5/Digital2/Lab3/Lab3.X/LCD.c: 20:  PORTDbits.RD0 = 1;
  3792  0F5E  1283               	bcf	3,5	;RP0=0, select bank0
  3793  0F5F  1303               	bcf	3,6	;RP1=0, select bank0
  3794  0F60  1408               	bsf	8,0	;volatile
  3795  0F61                     l1722:
  3796                           
  3797                           ;E:/UVG/Semestre 5/Digital2/Lab3/Lab3.X/LCD.c: 21:     _delay((unsigned long)((10)*(4000
      +                          000/4000.0)));
  3798  0F61  300D               	movlw	13
  3799  0F62  1283               	bcf	3,5	;RP0=0, select bank0
  3800  0F63  1303               	bcf	3,6	;RP1=0, select bank0
  3801  0F64  00A2               	movwf	??_Lcd_Cmd+1
  3802  0F65  30FB               	movlw	251
  3803  0F66  00A1               	movwf	??_Lcd_Cmd
  3804  0F67                     u957:
  3805  0F67  0BA1               	decfsz	??_Lcd_Cmd,f
  3806  0F68  2F67               	goto	u957
  3807  0F69  0BA2               	decfsz	??_Lcd_Cmd+1,f
  3808  0F6A  2F67               	goto	u957
  3809  0F6B                     l1724:
  3810                           
  3811                           ;E:/UVG/Semestre 5/Digital2/Lab3/Lab3.X/LCD.c: 22:     PORTDbits.RD0 = 0;
  3812  0F6B  1283               	bcf	3,5	;RP0=0, select bank0
  3813  0F6C  1303               	bcf	3,6	;RP1=0, select bank0
  3814  0F6D  1008               	bcf	8,0	;volatile
  3815  0F6E                     l188:
  3816  0F6E  0008               	return
  3817  0F6F                     __end_of_Lcd_Cmd:
  3818                           
  3819                           	psect	text16
  3820  0F0B                     __ptext16:	
  3821 ;; *************** function _Lcd_Port *****************
  3822 ;; Defined at:
  3823 ;;		line 13 in file "E:/UVG/Semestre 5/Digital2/Lab3/Lab3.X/LCD.c"
  3824 ;; Parameters:    Size  Location     Type
  3825 ;;  a               1    wreg     unsigned char 
  3826 ;; Auto vars:     Size  Location     Type
  3827 ;;  a               1    0[BANK0 ] unsigned char 
  3828 ;; Return value:  Size  Location     Type
  3829 ;;                  1    wreg      void 
  3830 ;; Registers used:
  3831 ;;		wreg
  3832 ;; Tracked objects:
  3833 ;;		On entry : 0/0
  3834 ;;		On exit  : 0/0
  3835 ;;		Unchanged: 0/0
  3836 ;; Data sizes:     COMMON   BANK0   BANK1   BANK3   BANK2
  3837 ;;      Params:         0       0       0       0       0
  3838 ;;      Locals:         0       1       0       0       0
  3839 ;;      Temps:          0       0       0       0       0
  3840 ;;      Totals:         0       1       0       0       0
  3841 ;;Total ram usage:        1 bytes
  3842 ;; Hardware stack levels used:    1
  3843 ;; Hardware stack levels required when called:    3
  3844 ;; This function calls:
  3845 ;;		Nothing
  3846 ;; This function is called by:
  3847 ;;		_Lcd_Cmd
  3848 ;;		_Lcd_Init
  3849 ;;		_Lcd_Write_Char
  3850 ;; This function uses a non-reentrant model
  3851 ;;
  3852                           
  3853                           
  3854                           ;psect for function _Lcd_Port
  3855  0F0B                     _Lcd_Port:
  3856                           
  3857                           ;incstack = 0
  3858                           ; Regs used in _Lcd_Port: [wreg]
  3859                           ;Lcd_Port@a stored from wreg
  3860  0F0B  1283               	bcf	3,5	;RP0=0, select bank0
  3861  0F0C  1303               	bcf	3,6	;RP1=0, select bank0
  3862  0F0D  00A0               	movwf	Lcd_Port@a
  3863  0F0E                     l1714:
  3864                           
  3865                           ;E:/UVG/Semestre 5/Digital2/Lab3/Lab3.X/LCD.c: 14:  PORTA = a;
  3866  0F0E  0820               	movf	Lcd_Port@a,w
  3867  0F0F  0085               	movwf	5	;volatile
  3868  0F10                     l185:
  3869  0F10  0008               	return
  3870  0F11                     __end_of_Lcd_Port:
  3871                           
  3872                           	psect	text17
  3873  0FBF                     __ptext17:	
  3874 ;; *************** function _Cambio *****************
  3875 ;; Defined at:
  3876 ;;		line 78 in file "E:/UVG/Semestre 5/Digital2/Lab3/Lab3.X/LCD.c"
  3877 ;; Parameters:    Size  Location     Type
  3878 ;;  numero          1    wreg     unsigned char 
  3879 ;; Auto vars:     Size  Location     Type
  3880 ;;  numero          1    2[BANK0 ] unsigned char 
  3881 ;; Return value:  Size  Location     Type
  3882 ;;                  1    wreg      PTR const unsigned char 
  3883 ;; Registers used:
  3884 ;;		wreg, fsr0l, fsr0h, status,2, status,0
  3885 ;; Tracked objects:
  3886 ;;		On entry : 0/0
  3887 ;;		On exit  : 0/0
  3888 ;;		Unchanged: 0/0
  3889 ;; Data sizes:     COMMON   BANK0   BANK1   BANK3   BANK2
  3890 ;;      Params:         0       0       0       0       0
  3891 ;;      Locals:         0       1       0       0       0
  3892 ;;      Temps:          0       2       0       0       0
  3893 ;;      Totals:         0       3       0       0       0
  3894 ;;Total ram usage:        3 bytes
  3895 ;; Hardware stack levels used:    1
  3896 ;; Hardware stack levels required when called:    3
  3897 ;; This function calls:
  3898 ;;		Nothing
  3899 ;; This function is called by:
  3900 ;;		_Conversiones
  3901 ;;		_Envio_Contador
  3902 ;; This function uses a non-reentrant model
  3903 ;;
  3904                           
  3905                           
  3906                           ;psect for function _Cambio
  3907  0FBF                     _Cambio:
  3908                           
  3909                           ;incstack = 0
  3910                           ; Regs used in _Cambio: [wreg-fsr0h+status,2+status,0]
  3911                           ;Cambio@numero stored from wreg
  3912  0FBF  1283               	bcf	3,5	;RP0=0, select bank0
  3913  0FC0  1303               	bcf	3,6	;RP1=0, select bank0
  3914  0FC1  00A2               	movwf	Cambio@numero
  3915  0FC2                     l1932:
  3916                           
  3917                           ;E:/UVG/Semestre 5/Digital2/Lab3/Lab3.X/LCD.c: 79:     switch(numero){
  3918  0FC2  2FD7               	goto	l1996
  3919  0FC3                     l1934:
  3920                           
  3921                           ;E:/UVG/Semestre 5/Digital2/Lab3/Lab3.X/LCD.c: 81:             return "0";
  3922  0FC3  3012               	movlw	(low ((STR_6-__stringbase)| (0+32768)))& (0+255)
  3923  0FC4  2FFF               	goto	l220
  3924  0FC5                     l1940:
  3925                           
  3926                           ;E:/UVG/Semestre 5/Digital2/Lab3/Lab3.X/LCD.c: 84:             return "1";
  3927  0FC5  3005               	movlw	(low (((STR_1+4)-__stringbase)| (0+32768)))& (0+255)
  3928  0FC6  2FFF               	goto	l220
  3929  0FC7                     l1946:
  3930                           
  3931                           ;E:/UVG/Semestre 5/Digital2/Lab3/Lab3.X/LCD.c: 87:             return "2";
  3932  0FC7  300B               	movlw	(low (((STR_2+4)-__stringbase)| (0+32768)))& (0+255)
  3933  0FC8  2FFF               	goto	l220
  3934  0FC9                     l1952:
  3935                           
  3936                           ;E:/UVG/Semestre 5/Digital2/Lab3/Lab3.X/LCD.c: 90:             return "3";
  3937  0FC9  3014               	movlw	(low ((STR_9-__stringbase)| (0+32768)))& (0+255)
  3938  0FCA  2FFF               	goto	l220
  3939  0FCB                     l1958:
  3940                           
  3941                           ;E:/UVG/Semestre 5/Digital2/Lab3/Lab3.X/LCD.c: 93:             return "4";
  3942  0FCB  3016               	movlw	(low ((STR_10-__stringbase)| (0+32768)))& (0+255)
  3943  0FCC  2FFF               	goto	l220
  3944  0FCD                     l1964:
  3945                           
  3946                           ;E:/UVG/Semestre 5/Digital2/Lab3/Lab3.X/LCD.c: 96:             return "5";
  3947  0FCD  3018               	movlw	(low ((STR_11-__stringbase)| (0+32768)))& (0+255)
  3948  0FCE  2FFF               	goto	l220
  3949  0FCF                     l1970:
  3950                           
  3951                           ;E:/UVG/Semestre 5/Digital2/Lab3/Lab3.X/LCD.c: 99:             return "6";
  3952  0FCF  301A               	movlw	(low ((STR_12-__stringbase)| (0+32768)))& (0+255)
  3953  0FD0  2FFF               	goto	l220
  3954  0FD1                     l1976:
  3955                           
  3956                           ;E:/UVG/Semestre 5/Digital2/Lab3/Lab3.X/LCD.c: 102:             return "7";
  3957  0FD1  301C               	movlw	(low ((STR_13-__stringbase)| (0+32768)))& (0+255)
  3958  0FD2  2FFF               	goto	l220
  3959  0FD3                     l1982:
  3960                           
  3961                           ;E:/UVG/Semestre 5/Digital2/Lab3/Lab3.X/LCD.c: 105:             return "8";
  3962  0FD3  301E               	movlw	(low ((STR_14-__stringbase)| (0+32768)))& (0+255)
  3963  0FD4  2FFF               	goto	l220
  3964  0FD5                     l1988:
  3965                           
  3966                           ;E:/UVG/Semestre 5/Digital2/Lab3/Lab3.X/LCD.c: 108:             return "9";
  3967  0FD5  3020               	movlw	(low ((STR_15-__stringbase)| (0+32768)))& (0+255)
  3968  0FD6  2FFF               	goto	l220
  3969  0FD7                     l1996:
  3970  0FD7  0822               	movf	Cambio@numero,w
  3971  0FD8  00A0               	movwf	??_Cambio
  3972  0FD9  01A1               	clrf	??_Cambio+1
  3973                           
  3974                           ; Switch on 2 bytes has been partitioned into a top level switch of size 1, and 1 sub-sw
      +                          itches
  3975                           ; Switch size 1, requested type "simple"
  3976                           ; Number of cases is 1, Range of values is 0 to 0
  3977                           ; switch strategies available:
  3978                           ; Name         Instructions Cycles
  3979                           ; simple_byte            4     3 (average)
  3980                           ; direct_byte           11     8 (fixed)
  3981                           ; jumptable            260     6 (fixed)
  3982                           ;	Chosen strategy is simple_byte
  3983  0FDA  0821               	movf	??_Cambio+1,w
  3984  0FDB  3A00               	xorlw	0	; case 0
  3985  0FDC  1903               	skipnz
  3986  0FDD  2FDF               	goto	l2622
  3987  0FDE  2FFF               	goto	l220
  3988  0FDF                     l2622:
  3989                           
  3990                           ; Switch size 1, requested type "simple"
  3991                           ; Number of cases is 10, Range of values is 0 to 9
  3992                           ; switch strategies available:
  3993                           ; Name         Instructions Cycles
  3994                           ; simple_byte           31    16 (average)
  3995                           ; direct_byte           38     8 (fixed)
  3996                           ; jumptable            260     6 (fixed)
  3997                           ;	Chosen strategy is simple_byte
  3998  0FDF  0820               	movf	??_Cambio,w
  3999  0FE0  3A00               	xorlw	0	; case 0
  4000  0FE1  1903               	skipnz
  4001  0FE2  2FC3               	goto	l1934
  4002  0FE3  3A01               	xorlw	1	; case 1
  4003  0FE4  1903               	skipnz
  4004  0FE5  2FC5               	goto	l1940
  4005  0FE6  3A03               	xorlw	3	; case 2
  4006  0FE7  1903               	skipnz
  4007  0FE8  2FC7               	goto	l1946
  4008  0FE9  3A01               	xorlw	1	; case 3
  4009  0FEA  1903               	skipnz
  4010  0FEB  2FC9               	goto	l1952
  4011  0FEC  3A07               	xorlw	7	; case 4
  4012  0FED  1903               	skipnz
  4013  0FEE  2FCB               	goto	l1958
  4014  0FEF  3A01               	xorlw	1	; case 5
  4015  0FF0  1903               	skipnz
  4016  0FF1  2FCD               	goto	l1964
  4017  0FF2  3A03               	xorlw	3	; case 6
  4018  0FF3  1903               	skipnz
  4019  0FF4  2FCF               	goto	l1970
  4020  0FF5  3A01               	xorlw	1	; case 7
  4021  0FF6  1903               	skipnz
  4022  0FF7  2FD1               	goto	l1976
  4023  0FF8  3A0F               	xorlw	15	; case 8
  4024  0FF9  1903               	skipnz
  4025  0FFA  2FD3               	goto	l1982
  4026  0FFB  3A01               	xorlw	1	; case 9
  4027  0FFC  1903               	skipnz
  4028  0FFD  2FD5               	goto	l1988
  4029  0FFE  2FFF               	goto	l220
  4030  0FFF                     l220:
  4031  0FFF  0008               	return
  4032  1000                     __end_of_Cambio:
  4033                           
  4034                           	psect	text18
  4035  0458                     __ptext18:	
  4036 ;; *************** function _isr *****************
  4037 ;; Defined at:
  4038 ;;		line 70 in file "code.c"
  4039 ;; Parameters:    Size  Location     Type
  4040 ;;		None
  4041 ;; Auto vars:     Size  Location     Type
  4042 ;;		None
  4043 ;; Return value:  Size  Location     Type
  4044 ;;                  1    wreg      void 
  4045 ;; Registers used:
  4046 ;;		wreg, fsr0l, fsr0h, status,2, status,0, pclath, cstack
  4047 ;; Tracked objects:
  4048 ;;		On entry : 0/0
  4049 ;;		On exit  : 0/0
  4050 ;;		Unchanged: 0/0
  4051 ;; Data sizes:     COMMON   BANK0   BANK1   BANK3   BANK2
  4052 ;;      Params:         0       0       0       0       0
  4053 ;;      Locals:         0       0       0       0       0
  4054 ;;      Temps:          4       0       0       0       0
  4055 ;;      Totals:         4       0       0       0       0
  4056 ;;Total ram usage:        4 bytes
  4057 ;; Hardware stack levels used:    1
  4058 ;; Hardware stack levels required when called:    2
  4059 ;; This function calls:
  4060 ;;		_Envio
  4061 ;;		i1_initADC
  4062 ;; This function is called by:
  4063 ;;		Interrupt level 1
  4064 ;; This function uses a non-reentrant model
  4065 ;;
  4066                           
  4067                           
  4068                           ;psect for function _isr
  4069  0458                     _isr:
  4070  0458                     i1l2310:
  4071                           
  4072                           ;code.c: 71:     (INTCONbits.GIE = 0);
  4073  0458  138B               	bcf	11,7	;volatile
  4074                           
  4075                           ;code.c: 73:     if(INTCONbits.T0IF == 1){
  4076  0459  1D0B               	btfss	11,2	;volatile
  4077  045A  2C5C               	goto	u74_21
  4078  045B  2C5D               	goto	u74_20
  4079  045C                     u74_21:
  4080  045C  2C66               	goto	i1l2318
  4081  045D                     u74_20:
  4082  045D                     i1l2312:
  4083                           
  4084                           ;code.c: 74:         TMR0 = 236;
  4085  045D  30EC               	movlw	236
  4086  045E  1283               	bcf	3,5	;RP0=0, select bank0
  4087  045F  1303               	bcf	3,6	;RP1=0, select bank0
  4088  0460  0081               	movwf	1	;volatile
  4089  0461                     i1l2314:
  4090                           
  4091                           ;code.c: 75:         CONTADOR++;
  4092  0461  3001               	movlw	1
  4093  0462  00F6               	movwf	??_isr
  4094  0463  0876               	movf	??_isr,w
  4095  0464  07BB               	addwf	_CONTADOR,f
  4096  0465                     i1l2316:
  4097                           
  4098                           ;code.c: 76:         INTCONbits.T0IF = 0;
  4099  0465  110B               	bcf	11,2	;volatile
  4100  0466                     i1l2318:
  4101                           
  4102                           ;code.c: 79:     if(PIR1bits.ADIF == 1){
  4103  0466  1283               	bcf	3,5	;RP0=0, select bank0
  4104  0467  1303               	bcf	3,6	;RP1=0, select bank0
  4105  0468  1F0C               	btfss	12,6	;volatile
  4106  0469  2C6B               	goto	u75_21
  4107  046A  2C6C               	goto	u75_20
  4108  046B                     u75_21:
  4109  046B  2C96               	goto	i1l2338
  4110  046C                     u75_20:
  4111  046C                     i1l2320:
  4112                           
  4113                           ;code.c: 80:         if(FLAGADC == 0){
  4114  046C  087A               	movf	_FLAGADC,w
  4115  046D  1D03               	btfss	3,2
  4116  046E  2C70               	goto	u76_21
  4117  046F  2C71               	goto	u76_20
  4118  0470                     u76_21:
  4119  0470  2C82               	goto	i1l2328
  4120  0471                     u76_20:
  4121  0471                     i1l2322:
  4122                           
  4123                           ;code.c: 81:             VAR_ADC1 = ADRESH;
  4124  0471  081E               	movf	30,w	;volatile
  4125  0472  00F6               	movwf	??_isr
  4126  0473  0876               	movf	??_isr,w
  4127  0474  00FD               	movwf	_VAR_ADC1
  4128  0475                     i1l2324:
  4129                           
  4130                           ;code.c: 82:             initADC(2,5);
  4131  0475  3005               	movlw	5
  4132  0476  00F6               	movwf	??_isr
  4133  0477  0876               	movf	??_isr,w
  4134  0478  00F0               	movwf	i1initADC@CHS
  4135  0479  3002               	movlw	2
  4136  047A  120A  118A  21FD  120A  118A  	fcall	i1_initADC
  4137  047F                     i1l2326:
  4138                           
  4139                           ;code.c: 83:             FLAGADC = 1;
  4140  047F  01FA               	clrf	_FLAGADC
  4141  0480  0AFA               	incf	_FLAGADC,f
  4142                           
  4143                           ;code.c: 84:         }
  4144  0481  2C91               	goto	i1l2334
  4145  0482                     i1l2328:
  4146                           
  4147                           ;code.c: 86:             VAR_ADC2 = ADRESH;
  4148  0482  081E               	movf	30,w	;volatile
  4149  0483  00F6               	movwf	??_isr
  4150  0484  0876               	movf	??_isr,w
  4151  0485  00FC               	movwf	_VAR_ADC2
  4152  0486                     i1l2330:
  4153                           
  4154                           ;code.c: 87:             initADC(2,6);
  4155  0486  3006               	movlw	6
  4156  0487  00F6               	movwf	??_isr
  4157  0488  0876               	movf	??_isr,w
  4158  0489  00F0               	movwf	i1initADC@CHS
  4159  048A  3002               	movlw	2
  4160  048B  120A  118A  21FD  120A  118A  	fcall	i1_initADC
  4161  0490                     i1l2332:
  4162                           
  4163                           ;code.c: 88:             FLAGADC = 0;
  4164  0490  01FA               	clrf	_FLAGADC
  4165  0491                     i1l2334:
  4166                           
  4167                           ;code.c: 90:         TOGGLE = 1;
  4168  0491  1283               	bcf	3,5	;RP0=0, select bank0
  4169  0492  1303               	bcf	3,6	;RP1=0, select bank0
  4170  0493  01BA               	clrf	_TOGGLE
  4171  0494  0ABA               	incf	_TOGGLE,f
  4172  0495                     i1l2336:
  4173                           
  4174                           ;code.c: 91:         PIR1bits.ADIF = 0;
  4175  0495  130C               	bcf	12,6	;volatile
  4176  0496                     i1l2338:
  4177                           
  4178                           ;code.c: 94:     if(PIR1bits.RCIF == 1){
  4179  0496  1E8C               	btfss	12,5	;volatile
  4180  0497  2C99               	goto	u77_21
  4181  0498  2C9A               	goto	u77_20
  4182  0499                     u77_21:
  4183  0499  2CE5               	goto	i1l2374
  4184  049A                     u77_20:
  4185  049A                     i1l2340:
  4186                           
  4187                           ;code.c: 95:         RECEPCION = RCREG;
  4188  049A  081A               	movf	26,w	;volatile
  4189  049B  00F6               	movwf	??_isr
  4190  049C  0876               	movf	??_isr,w
  4191  049D  00FB               	movwf	_RECEPCION
  4192  049E                     i1l2342:
  4193                           
  4194                           ;code.c: 96:         if(RECEPCION == 0x2B){
  4195  049E  302B               	movlw	43
  4196  049F  067B               	xorwf	_RECEPCION,w
  4197  04A0  1D03               	btfss	3,2
  4198  04A1  2CA3               	goto	u78_21
  4199  04A2  2CA4               	goto	u78_20
  4200  04A3                     u78_21:
  4201  04A3  2CA7               	goto	i1l2346
  4202  04A4                     u78_20:
  4203  04A4                     i1l2344:
  4204                           
  4205                           ;code.c: 97:             FLAGI = 1;
  4206  04A4  01B7               	clrf	_FLAGI
  4207  04A5  0AB7               	incf	_FLAGI,f
  4208                           
  4209                           ;code.c: 98:         }
  4210  04A6  2CE5               	goto	i1l2374
  4211  04A7                     i1l2346:
  4212  04A7  0337               	decf	_FLAGI,w
  4213  04A8  1D03               	btfss	3,2
  4214  04A9  2CAB               	goto	u79_21
  4215  04AA  2CAC               	goto	u79_20
  4216  04AB                     u79_21:
  4217  04AB  2CB8               	goto	i1l2354
  4218  04AC                     u79_20:
  4219  04AC                     i1l2348:
  4220  04AC  300D               	movlw	13
  4221  04AD  067B               	xorwf	_RECEPCION,w
  4222  04AE  1D03               	btfss	3,2
  4223  04AF  2CB1               	goto	u80_21
  4224  04B0  2CB2               	goto	u80_20
  4225  04B1                     u80_21:
  4226  04B1  2CB8               	goto	i1l2354
  4227  04B2                     u80_20:
  4228  04B2                     i1l2350:
  4229                           
  4230                           ;code.c: 100:             FLAGI = 0;
  4231  04B2  01B7               	clrf	_FLAGI
  4232  04B3                     i1l2352:
  4233                           
  4234                           ;code.c: 101:             PORTB++;
  4235  04B3  3001               	movlw	1
  4236  04B4  00F6               	movwf	??_isr
  4237  04B5  0876               	movf	??_isr,w
  4238  04B6  0786               	addwf	6,f	;volatile
  4239                           
  4240                           ;code.c: 102:         }
  4241  04B7  2CE5               	goto	i1l2374
  4242  04B8                     i1l2354:
  4243  04B8  302D               	movlw	45
  4244  04B9  067B               	xorwf	_RECEPCION,w
  4245  04BA  1D03               	btfss	3,2
  4246  04BB  2CBD               	goto	u81_21
  4247  04BC  2CBE               	goto	u81_20
  4248  04BD                     u81_21:
  4249  04BD  2CC1               	goto	i1l2358
  4250  04BE                     u81_20:
  4251  04BE                     i1l2356:
  4252                           
  4253                           ;code.c: 104:             FLAGD = 1;
  4254  04BE  01B8               	clrf	_FLAGD
  4255  04BF  0AB8               	incf	_FLAGD,f
  4256                           
  4257                           ;code.c: 105:         }
  4258  04C0  2CE5               	goto	i1l2374
  4259  04C1                     i1l2358:
  4260  04C1  0338               	decf	_FLAGD,w
  4261  04C2  1D03               	btfss	3,2
  4262  04C3  2CC5               	goto	u82_21
  4263  04C4  2CC6               	goto	u82_20
  4264  04C5                     u82_21:
  4265  04C5  2CD0               	goto	i1l2366
  4266  04C6                     u82_20:
  4267  04C6                     i1l2360:
  4268  04C6  300D               	movlw	13
  4269  04C7  067B               	xorwf	_RECEPCION,w
  4270  04C8  1D03               	btfss	3,2
  4271  04C9  2CCB               	goto	u83_21
  4272  04CA  2CCC               	goto	u83_20
  4273  04CB                     u83_21:
  4274  04CB  2CD0               	goto	i1l2366
  4275  04CC                     u83_20:
  4276  04CC                     i1l2362:
  4277                           
  4278                           ;code.c: 107:             FLAGD = 0;
  4279  04CC  01B8               	clrf	_FLAGD
  4280  04CD                     i1l2364:
  4281                           
  4282                           ;code.c: 108:             PORTB--;
  4283  04CD  3001               	movlw	1
  4284  04CE  0286               	subwf	6,f	;volatile
  4285                           
  4286                           ;code.c: 109:         }
  4287  04CF  2CE5               	goto	i1l2374
  4288  04D0                     i1l2366:
  4289  04D0  300D               	movlw	13
  4290  04D1  067B               	xorwf	_RECEPCION,w
  4291  04D2  1903               	btfsc	3,2
  4292  04D3  2CD5               	goto	u84_21
  4293  04D4  2CD6               	goto	u84_20
  4294  04D5                     u84_21:
  4295  04D5  2CE5               	goto	i1l101
  4296  04D6                     u84_20:
  4297  04D6                     i1l2368:
  4298  04D6  302B               	movlw	43
  4299  04D7  067B               	xorwf	_RECEPCION,w
  4300  04D8  1903               	btfsc	3,2
  4301  04D9  2CDB               	goto	u85_21
  4302  04DA  2CDC               	goto	u85_20
  4303  04DB                     u85_21:
  4304  04DB  2CE5               	goto	i1l101
  4305  04DC                     u85_20:
  4306  04DC                     i1l2370:
  4307  04DC  302D               	movlw	45
  4308  04DD  067B               	xorwf	_RECEPCION,w
  4309  04DE  1903               	btfsc	3,2
  4310  04DF  2CE1               	goto	u86_21
  4311  04E0  2CE2               	goto	u86_20
  4312  04E1                     u86_21:
  4313  04E1  2CE5               	goto	i1l101
  4314  04E2                     u86_20:
  4315  04E2                     i1l2372:
  4316                           
  4317                           ;code.c: 111:             FLAGD = 0;
  4318  04E2  01B8               	clrf	_FLAGD
  4319                           
  4320                           ;code.c: 112:             FLAGI = 0;
  4321  04E3  01B7               	clrf	_FLAGI
  4322  04E4  2CE5               	goto	i1l2374
  4323  04E5                     i1l101:
  4324  04E5                     i1l2374:
  4325                           
  4326                           ;code.c: 116:     if(PIR1bits.TXIF == 1){
  4327  04E5  1E0C               	btfss	12,4	;volatile
  4328  04E6  2CE8               	goto	u87_21
  4329  04E7  2CE9               	goto	u87_20
  4330  04E8                     u87_21:
  4331  04E8  2CF4               	goto	i1l2380
  4332  04E9                     u87_20:
  4333  04E9                     i1l2376:
  4334                           
  4335                           ;code.c: 117:         TXREG = Envio();
  4336  04E9  120A  118A  24FE  120A  118A  	fcall	_Envio
  4337  04EE  1283               	bcf	3,5	;RP0=0, select bank0
  4338  04EF  1303               	bcf	3,6	;RP1=0, select bank0
  4339  04F0  0099               	movwf	25	;volatile
  4340  04F1                     i1l2378:
  4341                           
  4342                           ;code.c: 118:         PIE1bits.TXIE = 0;
  4343  04F1  1683               	bsf	3,5	;RP0=1, select bank1
  4344  04F2  1303               	bcf	3,6	;RP1=0, select bank1
  4345  04F3  120C               	bcf	12,4	;volatile
  4346  04F4                     i1l2380:
  4347                           
  4348                           ;code.c: 120:     (INTCONbits.GIE = 1);
  4349  04F4  178B               	bsf	11,7	;volatile
  4350  04F5                     i1l108:
  4351  04F5  0879               	movf	??_isr+3,w
  4352  04F6  008A               	movwf	10
  4353  04F7  0878               	movf	??_isr+2,w
  4354  04F8  0084               	movwf	4
  4355  04F9  0E77               	swapf	??_isr+1,w
  4356  04FA  0083               	movwf	3
  4357  04FB  0EFE               	swapf	btemp,f
  4358  04FC  0E7E               	swapf	btemp,w
  4359  04FD  0009               	retfie
  4360  04FE                     __end_of_isr:
  4361                           
  4362                           	psect	intentry
  4363  0004                     __pintentry:	
  4364                           ;incstack = 0
  4365                           ; Regs used in _isr: [wreg-fsr0h+status,2+status,0+pclath+cstack]
  4366                           
  4367  0004                     interrupt_function:
  4368  007E                     saved_w	set	btemp
  4369  0004  00FE               	movwf	btemp
  4370  0005  0E03               	swapf	3,w
  4371  0006  00F7               	movwf	??_isr+1
  4372  0007  0804               	movf	4,w
  4373  0008  00F8               	movwf	??_isr+2
  4374  0009  080A               	movf	10,w
  4375  000A  00F9               	movwf	??_isr+3
  4376  000B  120A  118A  2C58   	ljmp	_isr
  4377                           
  4378                           	psect	text19
  4379  01FD                     __ptext19:	
  4380 ;; *************** function i1_initADC *****************
  4381 ;; Defined at:
  4382 ;;		line 6 in file "E:/UVG/Semestre 5/Digital2/Lab3/Lab3.X/ADC.c"
  4383 ;; Parameters:    Size  Location     Type
  4384 ;;  ADCS            1    wreg     unsigned char 
  4385 ;;  CHS             1    0[COMMON] unsigned char 
  4386 ;; Auto vars:     Size  Location     Type
  4387 ;;  ADCS            1    3[COMMON] unsigned char 
  4388 ;; Return value:  Size  Location     Type
  4389 ;;                  1    wreg      void 
  4390 ;; Registers used:
  4391 ;;		wreg, fsr0l, fsr0h, status,2, status,0
  4392 ;; Tracked objects:
  4393 ;;		On entry : 0/0
  4394 ;;		On exit  : 0/0
  4395 ;;		Unchanged: 0/0
  4396 ;; Data sizes:     COMMON   BANK0   BANK1   BANK3   BANK2
  4397 ;;      Params:         1       0       0       0       0
  4398 ;;      Locals:         1       0       0       0       0
  4399 ;;      Temps:          2       0       0       0       0
  4400 ;;      Totals:         4       0       0       0       0
  4401 ;;Total ram usage:        4 bytes
  4402 ;; Hardware stack levels used:    1
  4403 ;; This function calls:
  4404 ;;		Nothing
  4405 ;; This function is called by:
  4406 ;;		_isr
  4407 ;; This function uses a non-reentrant model
  4408 ;;
  4409                           
  4410                           
  4411                           ;psect for function i1_initADC
  4412  01FD                     i1_initADC:
  4413                           
  4414                           ;incstack = 0
  4415                           ; Regs used in i1_initADC: [wreg-fsr0h+status,2+status,0]
  4416                           ;i1initADC@ADCS stored from wreg
  4417  01FD  00F3               	movwf	i1initADC@ADCS
  4418  01FE                     i1l2288:
  4419                           
  4420                           ;E:/UVG/Semestre 5/Digital2/Lab3/Lab3.X/ADC.c: 8:     switch(CHS){
  4421  01FE  2A76               	goto	i1l2292
  4422  01FF                     i1l151:	
  4423                           ;E:/UVG/Semestre 5/Digital2/Lab3/Lab3.X/ADC.c: 9:         case 0:
  4424                           
  4425                           
  4426                           ;E:/UVG/Semestre 5/Digital2/Lab3/Lab3.X/ADC.c: 10:             ADCON0bits.CHS3 = 0;
  4427  01FF  1283               	bcf	3,5	;RP0=0, select bank0
  4428  0200  1303               	bcf	3,6	;RP1=0, select bank0
  4429  0201  129F               	bcf	31,5	;volatile
  4430                           
  4431                           ;E:/UVG/Semestre 5/Digital2/Lab3/Lab3.X/ADC.c: 11:             ADCON0bits.CHS2 = 0;
  4432  0202  121F               	bcf	31,4	;volatile
  4433                           
  4434                           ;E:/UVG/Semestre 5/Digital2/Lab3/Lab3.X/ADC.c: 12:             ADCON0bits.CHS1 = 0;
  4435  0203  119F               	bcf	31,3	;volatile
  4436                           
  4437                           ;E:/UVG/Semestre 5/Digital2/Lab3/Lab3.X/ADC.c: 13:             ADCON0bits.CHS0 = 0;
  4438  0204  111F               	bcf	31,2	;volatile
  4439                           
  4440                           ;E:/UVG/Semestre 5/Digital2/Lab3/Lab3.X/ADC.c: 14:             break;
  4441  0205  2ABF               	goto	i1l2296
  4442  0206                     i1l153:	
  4443                           ;E:/UVG/Semestre 5/Digital2/Lab3/Lab3.X/ADC.c: 15:         case 1:
  4444                           
  4445                           
  4446                           ;E:/UVG/Semestre 5/Digital2/Lab3/Lab3.X/ADC.c: 16:             ADCON0bits.CHS3 = 0;
  4447  0206  1283               	bcf	3,5	;RP0=0, select bank0
  4448  0207  1303               	bcf	3,6	;RP1=0, select bank0
  4449  0208  129F               	bcf	31,5	;volatile
  4450                           
  4451                           ;E:/UVG/Semestre 5/Digital2/Lab3/Lab3.X/ADC.c: 17:             ADCON0bits.CHS2 = 0;
  4452  0209  121F               	bcf	31,4	;volatile
  4453                           
  4454                           ;E:/UVG/Semestre 5/Digital2/Lab3/Lab3.X/ADC.c: 18:             ADCON0bits.CHS1 = 0;
  4455  020A  119F               	bcf	31,3	;volatile
  4456                           
  4457                           ;E:/UVG/Semestre 5/Digital2/Lab3/Lab3.X/ADC.c: 19:             ADCON0bits.CHS0 = 1;
  4458  020B  151F               	bsf	31,2	;volatile
  4459                           
  4460                           ;E:/UVG/Semestre 5/Digital2/Lab3/Lab3.X/ADC.c: 20:             break;
  4461  020C  2ABF               	goto	i1l2296
  4462  020D                     i1l154:	
  4463                           ;E:/UVG/Semestre 5/Digital2/Lab3/Lab3.X/ADC.c: 21:         case 2:
  4464                           
  4465                           
  4466                           ;E:/UVG/Semestre 5/Digital2/Lab3/Lab3.X/ADC.c: 22:             ADCON0bits.CHS3 = 0;
  4467  020D  1283               	bcf	3,5	;RP0=0, select bank0
  4468  020E  1303               	bcf	3,6	;RP1=0, select bank0
  4469  020F  129F               	bcf	31,5	;volatile
  4470                           
  4471                           ;E:/UVG/Semestre 5/Digital2/Lab3/Lab3.X/ADC.c: 23:             ADCON0bits.CHS2 = 0;
  4472  0210  121F               	bcf	31,4	;volatile
  4473                           
  4474                           ;E:/UVG/Semestre 5/Digital2/Lab3/Lab3.X/ADC.c: 24:             ADCON0bits.CHS1 = 1;
  4475  0211  159F               	bsf	31,3	;volatile
  4476                           
  4477                           ;E:/UVG/Semestre 5/Digital2/Lab3/Lab3.X/ADC.c: 25:             ADCON0bits.CHS0 = 0;
  4478  0212  111F               	bcf	31,2	;volatile
  4479                           
  4480                           ;E:/UVG/Semestre 5/Digital2/Lab3/Lab3.X/ADC.c: 26:             break;
  4481  0213  2ABF               	goto	i1l2296
  4482  0214                     i1l155:	
  4483                           ;E:/UVG/Semestre 5/Digital2/Lab3/Lab3.X/ADC.c: 27:         case 3:
  4484                           
  4485                           
  4486                           ;E:/UVG/Semestre 5/Digital2/Lab3/Lab3.X/ADC.c: 28:             ADCON0bits.CHS3 = 0;
  4487  0214  1283               	bcf	3,5	;RP0=0, select bank0
  4488  0215  1303               	bcf	3,6	;RP1=0, select bank0
  4489  0216  129F               	bcf	31,5	;volatile
  4490                           
  4491                           ;E:/UVG/Semestre 5/Digital2/Lab3/Lab3.X/ADC.c: 29:             ADCON0bits.CHS2 = 0;
  4492  0217  121F               	bcf	31,4	;volatile
  4493                           
  4494                           ;E:/UVG/Semestre 5/Digital2/Lab3/Lab3.X/ADC.c: 30:             ADCON0bits.CHS1 = 1;
  4495  0218  159F               	bsf	31,3	;volatile
  4496                           
  4497                           ;E:/UVG/Semestre 5/Digital2/Lab3/Lab3.X/ADC.c: 31:             ADCON0bits.CHS0 = 1;
  4498  0219  151F               	bsf	31,2	;volatile
  4499                           
  4500                           ;E:/UVG/Semestre 5/Digital2/Lab3/Lab3.X/ADC.c: 32:             break;
  4501  021A  2ABF               	goto	i1l2296
  4502  021B                     i1l156:	
  4503                           ;E:/UVG/Semestre 5/Digital2/Lab3/Lab3.X/ADC.c: 33:         case 4:
  4504                           
  4505                           
  4506                           ;E:/UVG/Semestre 5/Digital2/Lab3/Lab3.X/ADC.c: 34:             ADCON0bits.CHS3 = 0;
  4507  021B  1283               	bcf	3,5	;RP0=0, select bank0
  4508  021C  1303               	bcf	3,6	;RP1=0, select bank0
  4509  021D  129F               	bcf	31,5	;volatile
  4510                           
  4511                           ;E:/UVG/Semestre 5/Digital2/Lab3/Lab3.X/ADC.c: 35:             ADCON0bits.CHS2 = 1;
  4512  021E  161F               	bsf	31,4	;volatile
  4513                           
  4514                           ;E:/UVG/Semestre 5/Digital2/Lab3/Lab3.X/ADC.c: 36:             ADCON0bits.CHS1 = 0;
  4515  021F  119F               	bcf	31,3	;volatile
  4516                           
  4517                           ;E:/UVG/Semestre 5/Digital2/Lab3/Lab3.X/ADC.c: 37:             ADCON0bits.CHS0 = 0;
  4518  0220  111F               	bcf	31,2	;volatile
  4519                           
  4520                           ;E:/UVG/Semestre 5/Digital2/Lab3/Lab3.X/ADC.c: 38:             break;
  4521  0221  2ABF               	goto	i1l2296
  4522  0222                     i1l157:	
  4523                           ;E:/UVG/Semestre 5/Digital2/Lab3/Lab3.X/ADC.c: 39:         case 5:
  4524                           
  4525                           
  4526                           ;E:/UVG/Semestre 5/Digital2/Lab3/Lab3.X/ADC.c: 40:             ADCON0bits.CHS3 = 0;
  4527  0222  1283               	bcf	3,5	;RP0=0, select bank0
  4528  0223  1303               	bcf	3,6	;RP1=0, select bank0
  4529  0224  129F               	bcf	31,5	;volatile
  4530                           
  4531                           ;E:/UVG/Semestre 5/Digital2/Lab3/Lab3.X/ADC.c: 41:             ADCON0bits.CHS2 = 1;
  4532  0225  161F               	bsf	31,4	;volatile
  4533                           
  4534                           ;E:/UVG/Semestre 5/Digital2/Lab3/Lab3.X/ADC.c: 42:             ADCON0bits.CHS1 = 0;
  4535  0226  119F               	bcf	31,3	;volatile
  4536                           
  4537                           ;E:/UVG/Semestre 5/Digital2/Lab3/Lab3.X/ADC.c: 43:             ADCON0bits.CHS0 = 1;
  4538  0227  151F               	bsf	31,2	;volatile
  4539                           
  4540                           ;E:/UVG/Semestre 5/Digital2/Lab3/Lab3.X/ADC.c: 44:             break;
  4541  0228  2ABF               	goto	i1l2296
  4542  0229                     i1l158:	
  4543                           ;E:/UVG/Semestre 5/Digital2/Lab3/Lab3.X/ADC.c: 45:         case 6:
  4544                           
  4545                           
  4546                           ;E:/UVG/Semestre 5/Digital2/Lab3/Lab3.X/ADC.c: 46:             ADCON0bits.CHS3 = 0;
  4547  0229  1283               	bcf	3,5	;RP0=0, select bank0
  4548  022A  1303               	bcf	3,6	;RP1=0, select bank0
  4549  022B  129F               	bcf	31,5	;volatile
  4550                           
  4551                           ;E:/UVG/Semestre 5/Digital2/Lab3/Lab3.X/ADC.c: 47:             ADCON0bits.CHS2 = 1;
  4552  022C  161F               	bsf	31,4	;volatile
  4553                           
  4554                           ;E:/UVG/Semestre 5/Digital2/Lab3/Lab3.X/ADC.c: 48:             ADCON0bits.CHS1 = 1;
  4555  022D  159F               	bsf	31,3	;volatile
  4556                           
  4557                           ;E:/UVG/Semestre 5/Digital2/Lab3/Lab3.X/ADC.c: 49:             ADCON0bits.CHS0 = 0;
  4558  022E  111F               	bcf	31,2	;volatile
  4559                           
  4560                           ;E:/UVG/Semestre 5/Digital2/Lab3/Lab3.X/ADC.c: 50:             break;
  4561  022F  2ABF               	goto	i1l2296
  4562  0230                     i1l159:	
  4563                           ;E:/UVG/Semestre 5/Digital2/Lab3/Lab3.X/ADC.c: 51:         case 7:
  4564                           
  4565                           
  4566                           ;E:/UVG/Semestre 5/Digital2/Lab3/Lab3.X/ADC.c: 52:             ADCON0bits.CHS3 = 0;
  4567  0230  1283               	bcf	3,5	;RP0=0, select bank0
  4568  0231  1303               	bcf	3,6	;RP1=0, select bank0
  4569  0232  129F               	bcf	31,5	;volatile
  4570                           
  4571                           ;E:/UVG/Semestre 5/Digital2/Lab3/Lab3.X/ADC.c: 53:             ADCON0bits.CHS2 = 1;
  4572  0233  161F               	bsf	31,4	;volatile
  4573                           
  4574                           ;E:/UVG/Semestre 5/Digital2/Lab3/Lab3.X/ADC.c: 54:             ADCON0bits.CHS1 = 1;
  4575  0234  159F               	bsf	31,3	;volatile
  4576                           
  4577                           ;E:/UVG/Semestre 5/Digital2/Lab3/Lab3.X/ADC.c: 55:             ADCON0bits.CHS0 = 1;
  4578  0235  151F               	bsf	31,2	;volatile
  4579                           
  4580                           ;E:/UVG/Semestre 5/Digital2/Lab3/Lab3.X/ADC.c: 56:             break;
  4581  0236  2ABF               	goto	i1l2296
  4582  0237                     i1l160:	
  4583                           ;E:/UVG/Semestre 5/Digital2/Lab3/Lab3.X/ADC.c: 57:         case 8:
  4584                           
  4585                           
  4586                           ;E:/UVG/Semestre 5/Digital2/Lab3/Lab3.X/ADC.c: 58:             ADCON0bits.CHS3 = 1;
  4587  0237  1283               	bcf	3,5	;RP0=0, select bank0
  4588  0238  1303               	bcf	3,6	;RP1=0, select bank0
  4589  0239  169F               	bsf	31,5	;volatile
  4590                           
  4591                           ;E:/UVG/Semestre 5/Digital2/Lab3/Lab3.X/ADC.c: 59:             ADCON0bits.CHS2 = 0;
  4592  023A  121F               	bcf	31,4	;volatile
  4593                           
  4594                           ;E:/UVG/Semestre 5/Digital2/Lab3/Lab3.X/ADC.c: 60:             ADCON0bits.CHS1 = 0;
  4595  023B  119F               	bcf	31,3	;volatile
  4596                           
  4597                           ;E:/UVG/Semestre 5/Digital2/Lab3/Lab3.X/ADC.c: 61:             ADCON0bits.CHS0 = 0;
  4598  023C  111F               	bcf	31,2	;volatile
  4599                           
  4600                           ;E:/UVG/Semestre 5/Digital2/Lab3/Lab3.X/ADC.c: 62:             break;
  4601  023D  2ABF               	goto	i1l2296
  4602  023E                     i1l161:	
  4603                           ;E:/UVG/Semestre 5/Digital2/Lab3/Lab3.X/ADC.c: 63:         case 9:
  4604                           
  4605                           
  4606                           ;E:/UVG/Semestre 5/Digital2/Lab3/Lab3.X/ADC.c: 64:             ADCON0bits.CHS3 = 1;
  4607  023E  1283               	bcf	3,5	;RP0=0, select bank0
  4608  023F  1303               	bcf	3,6	;RP1=0, select bank0
  4609  0240  169F               	bsf	31,5	;volatile
  4610                           
  4611                           ;E:/UVG/Semestre 5/Digital2/Lab3/Lab3.X/ADC.c: 65:             ADCON0bits.CHS2 = 0;
  4612  0241  121F               	bcf	31,4	;volatile
  4613                           
  4614                           ;E:/UVG/Semestre 5/Digital2/Lab3/Lab3.X/ADC.c: 66:             ADCON0bits.CHS1 = 0;
  4615  0242  119F               	bcf	31,3	;volatile
  4616                           
  4617                           ;E:/UVG/Semestre 5/Digital2/Lab3/Lab3.X/ADC.c: 67:             ADCON0bits.CHS0 = 1;
  4618  0243  151F               	bsf	31,2	;volatile
  4619                           
  4620                           ;E:/UVG/Semestre 5/Digital2/Lab3/Lab3.X/ADC.c: 68:             break;
  4621  0244  2ABF               	goto	i1l2296
  4622  0245                     i1l162:	
  4623                           ;E:/UVG/Semestre 5/Digital2/Lab3/Lab3.X/ADC.c: 69:         case 10:
  4624                           
  4625                           
  4626                           ;E:/UVG/Semestre 5/Digital2/Lab3/Lab3.X/ADC.c: 70:             ADCON0bits.CHS3 = 1;
  4627  0245  1283               	bcf	3,5	;RP0=0, select bank0
  4628  0246  1303               	bcf	3,6	;RP1=0, select bank0
  4629  0247  169F               	bsf	31,5	;volatile
  4630                           
  4631                           ;E:/UVG/Semestre 5/Digital2/Lab3/Lab3.X/ADC.c: 71:             ADCON0bits.CHS2 = 0;
  4632  0248  121F               	bcf	31,4	;volatile
  4633                           
  4634                           ;E:/UVG/Semestre 5/Digital2/Lab3/Lab3.X/ADC.c: 72:             ADCON0bits.CHS1 = 1;
  4635  0249  159F               	bsf	31,3	;volatile
  4636                           
  4637                           ;E:/UVG/Semestre 5/Digital2/Lab3/Lab3.X/ADC.c: 73:             ADCON0bits.CHS0 = 0;
  4638  024A  111F               	bcf	31,2	;volatile
  4639                           
  4640                           ;E:/UVG/Semestre 5/Digital2/Lab3/Lab3.X/ADC.c: 74:             break;
  4641  024B  2ABF               	goto	i1l2296
  4642  024C                     i1l163:	
  4643                           ;E:/UVG/Semestre 5/Digital2/Lab3/Lab3.X/ADC.c: 75:         case 11:
  4644                           
  4645                           
  4646                           ;E:/UVG/Semestre 5/Digital2/Lab3/Lab3.X/ADC.c: 76:             ADCON0bits.CHS3 = 1;
  4647  024C  1283               	bcf	3,5	;RP0=0, select bank0
  4648  024D  1303               	bcf	3,6	;RP1=0, select bank0
  4649  024E  169F               	bsf	31,5	;volatile
  4650                           
  4651                           ;E:/UVG/Semestre 5/Digital2/Lab3/Lab3.X/ADC.c: 77:             ADCON0bits.CHS2 = 0;
  4652  024F  121F               	bcf	31,4	;volatile
  4653                           
  4654                           ;E:/UVG/Semestre 5/Digital2/Lab3/Lab3.X/ADC.c: 78:             ADCON0bits.CHS1 = 1;
  4655  0250  159F               	bsf	31,3	;volatile
  4656                           
  4657                           ;E:/UVG/Semestre 5/Digital2/Lab3/Lab3.X/ADC.c: 79:             ADCON0bits.CHS0 = 1;
  4658  0251  151F               	bsf	31,2	;volatile
  4659                           
  4660                           ;E:/UVG/Semestre 5/Digital2/Lab3/Lab3.X/ADC.c: 80:             break;
  4661  0252  2ABF               	goto	i1l2296
  4662  0253                     i1l164:	
  4663                           ;E:/UVG/Semestre 5/Digital2/Lab3/Lab3.X/ADC.c: 81:         case 12:
  4664                           
  4665                           
  4666                           ;E:/UVG/Semestre 5/Digital2/Lab3/Lab3.X/ADC.c: 82:             ADCON0bits.CHS3 = 1;
  4667  0253  1283               	bcf	3,5	;RP0=0, select bank0
  4668  0254  1303               	bcf	3,6	;RP1=0, select bank0
  4669  0255  169F               	bsf	31,5	;volatile
  4670                           
  4671                           ;E:/UVG/Semestre 5/Digital2/Lab3/Lab3.X/ADC.c: 83:             ADCON0bits.CHS2 = 1;
  4672  0256  161F               	bsf	31,4	;volatile
  4673                           
  4674                           ;E:/UVG/Semestre 5/Digital2/Lab3/Lab3.X/ADC.c: 84:             ADCON0bits.CHS1 = 0;
  4675  0257  119F               	bcf	31,3	;volatile
  4676                           
  4677                           ;E:/UVG/Semestre 5/Digital2/Lab3/Lab3.X/ADC.c: 85:             ADCON0bits.CHS0 = 0;
  4678  0258  111F               	bcf	31,2	;volatile
  4679                           
  4680                           ;E:/UVG/Semestre 5/Digital2/Lab3/Lab3.X/ADC.c: 86:             break;
  4681  0259  2ABF               	goto	i1l2296
  4682  025A                     i1l165:	
  4683                           ;E:/UVG/Semestre 5/Digital2/Lab3/Lab3.X/ADC.c: 87:         case 13:
  4684                           
  4685                           
  4686                           ;E:/UVG/Semestre 5/Digital2/Lab3/Lab3.X/ADC.c: 88:             ADCON0bits.CHS3 = 1;
  4687  025A  1283               	bcf	3,5	;RP0=0, select bank0
  4688  025B  1303               	bcf	3,6	;RP1=0, select bank0
  4689  025C  169F               	bsf	31,5	;volatile
  4690                           
  4691                           ;E:/UVG/Semestre 5/Digital2/Lab3/Lab3.X/ADC.c: 89:             ADCON0bits.CHS2 = 1;
  4692  025D  161F               	bsf	31,4	;volatile
  4693                           
  4694                           ;E:/UVG/Semestre 5/Digital2/Lab3/Lab3.X/ADC.c: 90:             ADCON0bits.CHS1 = 0;
  4695  025E  119F               	bcf	31,3	;volatile
  4696                           
  4697                           ;E:/UVG/Semestre 5/Digital2/Lab3/Lab3.X/ADC.c: 91:             ADCON0bits.CHS0 = 1;
  4698  025F  151F               	bsf	31,2	;volatile
  4699                           
  4700                           ;E:/UVG/Semestre 5/Digital2/Lab3/Lab3.X/ADC.c: 92:             break;
  4701  0260  2ABF               	goto	i1l2296
  4702  0261                     i1l166:	
  4703                           ;E:/UVG/Semestre 5/Digital2/Lab3/Lab3.X/ADC.c: 93:         case 14:
  4704                           
  4705                           
  4706                           ;E:/UVG/Semestre 5/Digital2/Lab3/Lab3.X/ADC.c: 94:             ADCON0bits.CHS3 = 1;
  4707  0261  1283               	bcf	3,5	;RP0=0, select bank0
  4708  0262  1303               	bcf	3,6	;RP1=0, select bank0
  4709  0263  169F               	bsf	31,5	;volatile
  4710                           
  4711                           ;E:/UVG/Semestre 5/Digital2/Lab3/Lab3.X/ADC.c: 95:             ADCON0bits.CHS2 = 1;
  4712  0264  161F               	bsf	31,4	;volatile
  4713                           
  4714                           ;E:/UVG/Semestre 5/Digital2/Lab3/Lab3.X/ADC.c: 96:             ADCON0bits.CHS1 = 1;
  4715  0265  159F               	bsf	31,3	;volatile
  4716                           
  4717                           ;E:/UVG/Semestre 5/Digital2/Lab3/Lab3.X/ADC.c: 97:             ADCON0bits.CHS0 = 0;
  4718  0266  111F               	bcf	31,2	;volatile
  4719                           
  4720                           ;E:/UVG/Semestre 5/Digital2/Lab3/Lab3.X/ADC.c: 98:             break;
  4721  0267  2ABF               	goto	i1l2296
  4722  0268                     i1l167:	
  4723                           ;E:/UVG/Semestre 5/Digital2/Lab3/Lab3.X/ADC.c: 99:         case 15:
  4724                           
  4725                           
  4726                           ;E:/UVG/Semestre 5/Digital2/Lab3/Lab3.X/ADC.c: 100:             ADCON0bits.CHS3 = 1;
  4727  0268  1283               	bcf	3,5	;RP0=0, select bank0
  4728  0269  1303               	bcf	3,6	;RP1=0, select bank0
  4729  026A  169F               	bsf	31,5	;volatile
  4730                           
  4731                           ;E:/UVG/Semestre 5/Digital2/Lab3/Lab3.X/ADC.c: 101:             ADCON0bits.CHS2 = 1;
  4732  026B  161F               	bsf	31,4	;volatile
  4733                           
  4734                           ;E:/UVG/Semestre 5/Digital2/Lab3/Lab3.X/ADC.c: 102:             ADCON0bits.CHS1 = 1;
  4735  026C  159F               	bsf	31,3	;volatile
  4736                           
  4737                           ;E:/UVG/Semestre 5/Digital2/Lab3/Lab3.X/ADC.c: 103:             ADCON0bits.CHS0 = 1;
  4738  026D  151F               	bsf	31,2	;volatile
  4739                           
  4740                           ;E:/UVG/Semestre 5/Digital2/Lab3/Lab3.X/ADC.c: 104:             break;
  4741  026E  2ABF               	goto	i1l2296
  4742  026F                     i1l168:	
  4743                           ;E:/UVG/Semestre 5/Digital2/Lab3/Lab3.X/ADC.c: 105:         default:
  4744                           
  4745                           
  4746                           ;E:/UVG/Semestre 5/Digital2/Lab3/Lab3.X/ADC.c: 106:             ADCON0bits.CHS3 = 0;
  4747  026F  1283               	bcf	3,5	;RP0=0, select bank0
  4748  0270  1303               	bcf	3,6	;RP1=0, select bank0
  4749  0271  129F               	bcf	31,5	;volatile
  4750                           
  4751                           ;E:/UVG/Semestre 5/Digital2/Lab3/Lab3.X/ADC.c: 107:             ADCON0bits.CHS2 = 0;
  4752  0272  121F               	bcf	31,4	;volatile
  4753                           
  4754                           ;E:/UVG/Semestre 5/Digital2/Lab3/Lab3.X/ADC.c: 108:             ADCON0bits.CHS1 = 0;
  4755  0273  119F               	bcf	31,3	;volatile
  4756                           
  4757                           ;E:/UVG/Semestre 5/Digital2/Lab3/Lab3.X/ADC.c: 109:             ADCON0bits.CHS0 = 0;
  4758  0274  111F               	bcf	31,2	;volatile
  4759                           
  4760                           ;E:/UVG/Semestre 5/Digital2/Lab3/Lab3.X/ADC.c: 110:             break;
  4761  0275  2ABF               	goto	i1l2296
  4762  0276                     i1l2292:
  4763  0276  0870               	movf	i1initADC@CHS,w
  4764  0277  00F1               	movwf	??i1_initADC
  4765  0278  01F2               	clrf	??i1_initADC+1
  4766                           
  4767                           ; Switch on 2 bytes has been partitioned into a top level switch of size 1, and 1 sub-sw
      +                          itches
  4768                           ; Switch size 1, requested type "simple"
  4769                           ; Number of cases is 1, Range of values is 0 to 0
  4770                           ; switch strategies available:
  4771                           ; Name         Instructions Cycles
  4772                           ; simple_byte            4     3 (average)
  4773                           ; direct_byte           11     8 (fixed)
  4774                           ; jumptable            260     6 (fixed)
  4775                           ;	Chosen strategy is simple_byte
  4776  0279  0872               	movf	??i1_initADC+1,w
  4777  027A  3A00               	xorlw	0	; case 0
  4778  027B  1903               	skipnz
  4779  027C  2A7E               	goto	i1l2624
  4780  027D  2A6F               	goto	i1l168
  4781  027E                     i1l2624:
  4782                           
  4783                           ; Switch size 1, requested type "simple"
  4784                           ; Number of cases is 16, Range of values is 0 to 15
  4785                           ; switch strategies available:
  4786                           ; Name         Instructions Cycles
  4787                           ; simple_byte           49    25 (average)
  4788                           ; direct_byte           56     8 (fixed)
  4789                           ; jumptable            260     6 (fixed)
  4790                           ;	Chosen strategy is simple_byte
  4791  027E  0871               	movf	??i1_initADC,w
  4792  027F  3A00               	xorlw	0	; case 0
  4793  0280  1903               	skipnz
  4794  0281  29FF               	goto	i1l151
  4795  0282  3A01               	xorlw	1	; case 1
  4796  0283  1903               	skipnz
  4797  0284  2A06               	goto	i1l153
  4798  0285  3A03               	xorlw	3	; case 2
  4799  0286  1903               	skipnz
  4800  0287  2A0D               	goto	i1l154
  4801  0288  3A01               	xorlw	1	; case 3
  4802  0289  1903               	skipnz
  4803  028A  2A14               	goto	i1l155
  4804  028B  3A07               	xorlw	7	; case 4
  4805  028C  1903               	skipnz
  4806  028D  2A1B               	goto	i1l156
  4807  028E  3A01               	xorlw	1	; case 5
  4808  028F  1903               	skipnz
  4809  0290  2A22               	goto	i1l157
  4810  0291  3A03               	xorlw	3	; case 6
  4811  0292  1903               	skipnz
  4812  0293  2A29               	goto	i1l158
  4813  0294  3A01               	xorlw	1	; case 7
  4814  0295  1903               	skipnz
  4815  0296  2A30               	goto	i1l159
  4816  0297  3A0F               	xorlw	15	; case 8
  4817  0298  1903               	skipnz
  4818  0299  2A37               	goto	i1l160
  4819  029A  3A01               	xorlw	1	; case 9
  4820  029B  1903               	skipnz
  4821  029C  2A3E               	goto	i1l161
  4822  029D  3A03               	xorlw	3	; case 10
  4823  029E  1903               	skipnz
  4824  029F  2A45               	goto	i1l162
  4825  02A0  3A01               	xorlw	1	; case 11
  4826  02A1  1903               	skipnz
  4827  02A2  2A4C               	goto	i1l163
  4828  02A3  3A07               	xorlw	7	; case 12
  4829  02A4  1903               	skipnz
  4830  02A5  2A53               	goto	i1l164
  4831  02A6  3A01               	xorlw	1	; case 13
  4832  02A7  1903               	skipnz
  4833  02A8  2A5A               	goto	i1l165
  4834  02A9  3A03               	xorlw	3	; case 14
  4835  02AA  1903               	skipnz
  4836  02AB  2A61               	goto	i1l166
  4837  02AC  3A01               	xorlw	1	; case 15
  4838  02AD  1903               	skipnz
  4839  02AE  2A68               	goto	i1l167
  4840  02AF  2A6F               	goto	i1l168
  4841  02B0                     i1l170:	
  4842                           ;E:/UVG/Semestre 5/Digital2/Lab3/Lab3.X/ADC.c: 114:         case 0:
  4843                           
  4844                           
  4845                           ;E:/UVG/Semestre 5/Digital2/Lab3/Lab3.X/ADC.c: 115:             ADCON0bits.ADCS0 = 0;
  4846  02B0  131F               	bcf	31,6	;volatile
  4847                           
  4848                           ;E:/UVG/Semestre 5/Digital2/Lab3/Lab3.X/ADC.c: 116:             ADCON0bits.ADCS0 = 0;
  4849  02B1  131F               	bcf	31,6	;volatile
  4850                           
  4851                           ;E:/UVG/Semestre 5/Digital2/Lab3/Lab3.X/ADC.c: 117:             break;
  4852  02B2  2AD5               	goto	i1l171
  4853  02B3                     i1l172:	
  4854                           ;E:/UVG/Semestre 5/Digital2/Lab3/Lab3.X/ADC.c: 118:         case 1:
  4855                           
  4856                           
  4857                           ;E:/UVG/Semestre 5/Digital2/Lab3/Lab3.X/ADC.c: 119:             ADCON0bits.ADCS0 = 0;
  4858  02B3  131F               	bcf	31,6	;volatile
  4859                           
  4860                           ;E:/UVG/Semestre 5/Digital2/Lab3/Lab3.X/ADC.c: 120:             ADCON0bits.ADCS0 = 1;
  4861  02B4  171F               	bsf	31,6	;volatile
  4862                           
  4863                           ;E:/UVG/Semestre 5/Digital2/Lab3/Lab3.X/ADC.c: 121:             break;
  4864  02B5  2AD5               	goto	i1l171
  4865  02B6                     i1l173:	
  4866                           ;E:/UVG/Semestre 5/Digital2/Lab3/Lab3.X/ADC.c: 122:         case 2:
  4867                           
  4868                           
  4869                           ;E:/UVG/Semestre 5/Digital2/Lab3/Lab3.X/ADC.c: 123:             ADCON0bits.ADCS0 = 1;
  4870  02B6  171F               	bsf	31,6	;volatile
  4871                           
  4872                           ;E:/UVG/Semestre 5/Digital2/Lab3/Lab3.X/ADC.c: 124:             ADCON0bits.ADCS0 = 0;
  4873  02B7  131F               	bcf	31,6	;volatile
  4874                           
  4875                           ;E:/UVG/Semestre 5/Digital2/Lab3/Lab3.X/ADC.c: 125:             break;
  4876  02B8  2AD5               	goto	i1l171
  4877  02B9                     i1l174:	
  4878                           ;E:/UVG/Semestre 5/Digital2/Lab3/Lab3.X/ADC.c: 126:         case 3:
  4879                           
  4880                           
  4881                           ;E:/UVG/Semestre 5/Digital2/Lab3/Lab3.X/ADC.c: 127:             ADCON0bits.ADCS0 = 1;
  4882  02B9  171F               	bsf	31,6	;volatile
  4883                           
  4884                           ;E:/UVG/Semestre 5/Digital2/Lab3/Lab3.X/ADC.c: 128:             ADCON0bits.ADCS0 = 1;
  4885  02BA  171F               	bsf	31,6	;volatile
  4886                           
  4887                           ;E:/UVG/Semestre 5/Digital2/Lab3/Lab3.X/ADC.c: 129:             break;
  4888  02BB  2AD5               	goto	i1l171
  4889  02BC                     i1l175:	
  4890                           ;E:/UVG/Semestre 5/Digital2/Lab3/Lab3.X/ADC.c: 130:         default:
  4891                           
  4892                           
  4893                           ;E:/UVG/Semestre 5/Digital2/Lab3/Lab3.X/ADC.c: 131:             ADCON0bits.ADCS0 = 0;
  4894  02BC  131F               	bcf	31,6	;volatile
  4895                           
  4896                           ;E:/UVG/Semestre 5/Digital2/Lab3/Lab3.X/ADC.c: 132:             ADCON0bits.ADCS0 = 0;
  4897  02BD  131F               	bcf	31,6	;volatile
  4898                           
  4899                           ;E:/UVG/Semestre 5/Digital2/Lab3/Lab3.X/ADC.c: 133:             break;
  4900  02BE  2AD5               	goto	i1l171
  4901  02BF                     i1l2296:
  4902  02BF  0873               	movf	i1initADC@ADCS,w
  4903  02C0  00F1               	movwf	??i1_initADC
  4904  02C1  01F2               	clrf	??i1_initADC+1
  4905                           
  4906                           ; Switch on 2 bytes has been partitioned into a top level switch of size 1, and 1 sub-sw
      +                          itches
  4907                           ; Switch size 1, requested type "simple"
  4908                           ; Number of cases is 1, Range of values is 0 to 0
  4909                           ; switch strategies available:
  4910                           ; Name         Instructions Cycles
  4911                           ; simple_byte            4     3 (average)
  4912                           ; direct_byte           11     8 (fixed)
  4913                           ; jumptable            260     6 (fixed)
  4914                           ;	Chosen strategy is simple_byte
  4915  02C2  0872               	movf	??i1_initADC+1,w
  4916  02C3  3A00               	xorlw	0	; case 0
  4917  02C4  1903               	skipnz
  4918  02C5  2AC7               	goto	i1l2626
  4919  02C6  2ABC               	goto	i1l175
  4920  02C7                     i1l2626:
  4921                           
  4922                           ; Switch size 1, requested type "simple"
  4923                           ; Number of cases is 4, Range of values is 0 to 3
  4924                           ; switch strategies available:
  4925                           ; Name         Instructions Cycles
  4926                           ; simple_byte           13     7 (average)
  4927                           ; direct_byte           20     8 (fixed)
  4928                           ; jumptable            260     6 (fixed)
  4929                           ;	Chosen strategy is simple_byte
  4930  02C7  0871               	movf	??i1_initADC,w
  4931  02C8  3A00               	xorlw	0	; case 0
  4932  02C9  1903               	skipnz
  4933  02CA  2AB0               	goto	i1l170
  4934  02CB  3A01               	xorlw	1	; case 1
  4935  02CC  1903               	skipnz
  4936  02CD  2AB3               	goto	i1l172
  4937  02CE  3A03               	xorlw	3	; case 2
  4938  02CF  1903               	skipnz
  4939  02D0  2AB6               	goto	i1l173
  4940  02D1  3A01               	xorlw	1	; case 3
  4941  02D2  1903               	skipnz
  4942  02D3  2AB9               	goto	i1l174
  4943  02D4  2ABC               	goto	i1l175
  4944  02D5                     i1l171:
  4945                           
  4946                           ;E:/UVG/Semestre 5/Digital2/Lab3/Lab3.X/ADC.c: 136:     ADCON0bits.ADON = 1;
  4947  02D5  141F               	bsf	31,0	;volatile
  4948                           
  4949                           ;E:/UVG/Semestre 5/Digital2/Lab3/Lab3.X/ADC.c: 138:     ADCON0bits.GO_nDONE = 1;
  4950  02D6  149F               	bsf	31,1	;volatile
  4951  02D7                     i1l2298:
  4952                           
  4953                           ;E:/UVG/Semestre 5/Digital2/Lab3/Lab3.X/ADC.c: 140:     ADCON1 = 0b00000000;
  4954  02D7  1683               	bsf	3,5	;RP0=1, select bank1
  4955  02D8  1303               	bcf	3,6	;RP1=0, select bank1
  4956  02D9  019F               	clrf	31	;volatile
  4957  02DA                     i1l2300:
  4958                           
  4959                           ;E:/UVG/Semestre 5/Digital2/Lab3/Lab3.X/ADC.c: 142:     _delay((unsigned long)((10)*(400
      +                          0000/4000.0)));
  4960  02DA  300D               	movlw	13
  4961  02DB  00F2               	movwf	??i1_initADC+1
  4962  02DC  30FB               	movlw	251
  4963  02DD  00F1               	movwf	??i1_initADC
  4964  02DE                     u96_27:
  4965  02DE  0BF1               	decfsz	??i1_initADC,f
  4966  02DF  2ADE               	goto	u96_27
  4967  02E0  0BF2               	decfsz	??i1_initADC+1,f
  4968  02E1  2ADE               	goto	u96_27
  4969  02E2  2AE3               	nop2
  4970  02E3                     i1l176:
  4971  02E3  0008               	return
  4972  02E4                     __end_ofi1_initADC:
  4973                           
  4974                           	psect	text20
  4975  04FE                     __ptext20:	
  4976 ;; *************** function _Envio *****************
  4977 ;; Defined at:
  4978 ;;		line 192 in file "code.c"
  4979 ;; Parameters:    Size  Location     Type
  4980 ;;		None
  4981 ;; Auto vars:     Size  Location     Type
  4982 ;;  temporal        1    5[COMMON] unsigned char 
  4983 ;; Return value:  Size  Location     Type
  4984 ;;                  1    wreg      unsigned char 
  4985 ;; Registers used:
  4986 ;;		wreg, fsr0l, fsr0h, status,2, status,0, pclath, cstack
  4987 ;; Tracked objects:
  4988 ;;		On entry : 0/0
  4989 ;;		On exit  : 0/0
  4990 ;;		Unchanged: 0/0
  4991 ;; Data sizes:     COMMON   BANK0   BANK1   BANK3   BANK2
  4992 ;;      Params:         0       0       0       0       0
  4993 ;;      Locals:         1       0       0       0       0
  4994 ;;      Temps:          2       0       0       0       0
  4995 ;;      Totals:         3       0       0       0       0
  4996 ;;Total ram usage:        3 bytes
  4997 ;; Hardware stack levels used:    1
  4998 ;; Hardware stack levels required when called:    1
  4999 ;; This function calls:
  5000 ;;		_ASCII
  5001 ;; This function is called by:
  5002 ;;		_isr
  5003 ;; This function uses a non-reentrant model
  5004 ;;
  5005                           
  5006                           
  5007                           ;psect for function _Envio
  5008  04FE                     _Envio:
  5009  04FE                     i1l2102:	
  5010                           ;incstack = 0
  5011                           ; Regs used in _Envio: [wreg-fsr0h+status,2+status,0+pclath+cstack]
  5012                           
  5013                           
  5014                           ;code.c: 193:     uint8_t temporal;;code.c: 194:     switch(FLAGTX){
  5015  04FE  2D64               	goto	i1l2174
  5016  04FF                     i1l2104:
  5017                           
  5018                           ;code.c: 196:             FLAGTX++;
  5019  04FF  3001               	movlw	1
  5020  0500  00F3               	movwf	??_Envio
  5021  0501  0873               	movf	??_Envio,w
  5022  0502  07B9               	addwf	_FLAGTX,f
  5023  0503                     i1l2106:
  5024                           
  5025                           ;code.c: 197:             return 0x28;
  5026  0503  3028               	movlw	40
  5027  0504  2D88               	goto	i1l125
  5028  0505                     i1l2112:
  5029                           
  5030                           ;code.c: 200:             temporal = (VAR_ADC1 & 0xF0)>>4;
  5031  0505  087D               	movf	_VAR_ADC1,w
  5032  0506  00F3               	movwf	??_Envio
  5033  0507  3004               	movlw	4
  5034  0508                     u71_25:
  5035  0508  1003               	clrc
  5036  0509  0CF3               	rrf	??_Envio,f
  5037  050A  3EFF               	addlw	-1
  5038  050B  1D03               	skipz
  5039  050C  2D08               	goto	u71_25
  5040  050D  0873               	movf	??_Envio,w
  5041  050E  390F               	andlw	15
  5042  050F  00F4               	movwf	??_Envio+1
  5043  0510  0874               	movf	??_Envio+1,w
  5044  0511  00F5               	movwf	Envio@temporal
  5045                           
  5046                           ;code.c: 201:             FLAGTX++;
  5047  0512  3001               	movlw	1
  5048  0513  00F3               	movwf	??_Envio
  5049  0514  0873               	movf	??_Envio,w
  5050  0515  07B9               	addwf	_FLAGTX,f
  5051  0516                     i1l2114:
  5052                           
  5053                           ;code.c: 202:             return ASCII(temporal);
  5054  0516  0875               	movf	Envio@temporal,w
  5055  0517  120A  118A  26AE  120A  118A  	fcall	_ASCII
  5056  051C  2D88               	goto	i1l125
  5057  051D                     i1l2120:
  5058                           
  5059                           ;code.c: 205:             temporal = VAR_ADC1 & 0x0F;
  5060  051D  087D               	movf	_VAR_ADC1,w
  5061  051E  390F               	andlw	15
  5062  051F  00F3               	movwf	??_Envio
  5063  0520  0873               	movf	??_Envio,w
  5064  0521  00F5               	movwf	Envio@temporal
  5065  0522                     i1l2122:
  5066                           
  5067                           ;code.c: 206:             FLAGTX++;
  5068  0522  3001               	movlw	1
  5069  0523  00F3               	movwf	??_Envio
  5070  0524  0873               	movf	??_Envio,w
  5071  0525  07B9               	addwf	_FLAGTX,f
  5072  0526                     i1l2124:
  5073                           
  5074                           ;code.c: 207:             return ASCII(temporal);
  5075  0526  0875               	movf	Envio@temporal,w
  5076  0527  120A  118A  26AE  120A  118A  	fcall	_ASCII
  5077  052C  2D88               	goto	i1l125
  5078  052D                     i1l2130:
  5079                           
  5080                           ;code.c: 210:             FLAGTX++;
  5081  052D  3001               	movlw	1
  5082  052E  00F3               	movwf	??_Envio
  5083  052F  0873               	movf	??_Envio,w
  5084  0530  07B9               	addwf	_FLAGTX,f
  5085  0531                     i1l2132:
  5086                           
  5087                           ;code.c: 211:             return 0x2C;
  5088  0531  302C               	movlw	44
  5089  0532  2D88               	goto	i1l125
  5090  0533                     i1l2138:
  5091                           
  5092                           ;code.c: 214:             temporal = (VAR_ADC2 & 0xF0)>>4;
  5093  0533  087C               	movf	_VAR_ADC2,w
  5094  0534  00F3               	movwf	??_Envio
  5095  0535  3004               	movlw	4
  5096  0536                     u72_25:
  5097  0536  1003               	clrc
  5098  0537  0CF3               	rrf	??_Envio,f
  5099  0538  3EFF               	addlw	-1
  5100  0539  1D03               	skipz
  5101  053A  2D36               	goto	u72_25
  5102  053B  0873               	movf	??_Envio,w
  5103  053C  390F               	andlw	15
  5104  053D  00F4               	movwf	??_Envio+1
  5105  053E  0874               	movf	??_Envio+1,w
  5106  053F  00F5               	movwf	Envio@temporal
  5107                           
  5108                           ;code.c: 215:             FLAGTX++;
  5109  0540  3001               	movlw	1
  5110  0541  00F3               	movwf	??_Envio
  5111  0542  0873               	movf	??_Envio,w
  5112  0543  07B9               	addwf	_FLAGTX,f
  5113  0544                     i1l2140:
  5114                           
  5115                           ;code.c: 216:             return ASCII(temporal);
  5116  0544  0875               	movf	Envio@temporal,w
  5117  0545  120A  118A  26AE  120A  118A  	fcall	_ASCII
  5118  054A  2D88               	goto	i1l125
  5119  054B                     i1l2146:
  5120                           
  5121                           ;code.c: 219:             FLAGTX++;
  5122  054B  3001               	movlw	1
  5123  054C  00F3               	movwf	??_Envio
  5124  054D  0873               	movf	??_Envio,w
  5125  054E  07B9               	addwf	_FLAGTX,f
  5126  054F                     i1l2148:
  5127                           
  5128                           ;code.c: 220:             temporal = VAR_ADC2 & 0x0F;
  5129  054F  087C               	movf	_VAR_ADC2,w
  5130  0550  390F               	andlw	15
  5131  0551  00F3               	movwf	??_Envio
  5132  0552  0873               	movf	??_Envio,w
  5133  0553  00F5               	movwf	Envio@temporal
  5134  0554                     i1l2150:
  5135                           
  5136                           ;code.c: 221:             return ASCII(temporal);
  5137  0554  0875               	movf	Envio@temporal,w
  5138  0555  120A  118A  26AE  120A  118A  	fcall	_ASCII
  5139  055A  2D88               	goto	i1l125
  5140  055B                     i1l2156:
  5141                           
  5142                           ;code.c: 224:             FLAGTX++;
  5143  055B  3001               	movlw	1
  5144  055C  00F3               	movwf	??_Envio
  5145  055D  0873               	movf	??_Envio,w
  5146  055E  07B9               	addwf	_FLAGTX,f
  5147  055F                     i1l2158:
  5148                           
  5149                           ;code.c: 225:             return 0x29;
  5150  055F  3029               	movlw	41
  5151  0560  2D88               	goto	i1l125
  5152  0561                     i1l2164:
  5153                           
  5154                           ;code.c: 228:             FLAGTX = 0;
  5155  0561  01B9               	clrf	_FLAGTX
  5156  0562                     i1l2166:
  5157                           
  5158                           ;code.c: 229:             return 0x0D;
  5159  0562  300D               	movlw	13
  5160  0563  2D88               	goto	i1l125
  5161  0564                     i1l2174:
  5162  0564  1283               	bcf	3,5	;RP0=0, select bank0
  5163  0565  1303               	bcf	3,6	;RP1=0, select bank0
  5164  0566  0839               	movf	_FLAGTX,w
  5165  0567  00F3               	movwf	??_Envio
  5166  0568  01F4               	clrf	??_Envio+1
  5167                           
  5168                           ; Switch on 2 bytes has been partitioned into a top level switch of size 1, and 1 sub-sw
      +                          itches
  5169                           ; Switch size 1, requested type "simple"
  5170                           ; Number of cases is 1, Range of values is 0 to 0
  5171                           ; switch strategies available:
  5172                           ; Name         Instructions Cycles
  5173                           ; simple_byte            4     3 (average)
  5174                           ; direct_byte           11     8 (fixed)
  5175                           ; jumptable            260     6 (fixed)
  5176                           ;	Chosen strategy is simple_byte
  5177  0569  0874               	movf	??_Envio+1,w
  5178  056A  3A00               	xorlw	0	; case 0
  5179  056B  1903               	skipnz
  5180  056C  2D6E               	goto	i1l2628
  5181  056D  2D88               	goto	i1l125
  5182  056E                     i1l2628:
  5183                           
  5184                           ; Switch size 1, requested type "simple"
  5185                           ; Number of cases is 8, Range of values is 0 to 7
  5186                           ; switch strategies available:
  5187                           ; Name         Instructions Cycles
  5188                           ; simple_byte           25    13 (average)
  5189                           ; direct_byte           32     8 (fixed)
  5190                           ; jumptable            260     6 (fixed)
  5191                           ;	Chosen strategy is simple_byte
  5192  056E  0873               	movf	??_Envio,w
  5193  056F  3A00               	xorlw	0	; case 0
  5194  0570  1903               	skipnz
  5195  0571  2CFF               	goto	i1l2104
  5196  0572  3A01               	xorlw	1	; case 1
  5197  0573  1903               	skipnz
  5198  0574  2D05               	goto	i1l2112
  5199  0575  3A03               	xorlw	3	; case 2
  5200  0576  1903               	skipnz
  5201  0577  2D1D               	goto	i1l2120
  5202  0578  3A01               	xorlw	1	; case 3
  5203  0579  1903               	skipnz
  5204  057A  2D2D               	goto	i1l2130
  5205  057B  3A07               	xorlw	7	; case 4
  5206  057C  1903               	skipnz
  5207  057D  2D33               	goto	i1l2138
  5208  057E  3A01               	xorlw	1	; case 5
  5209  057F  1903               	skipnz
  5210  0580  2D4B               	goto	i1l2146
  5211  0581  3A03               	xorlw	3	; case 6
  5212  0582  1903               	skipnz
  5213  0583  2D5B               	goto	i1l2156
  5214  0584  3A01               	xorlw	1	; case 7
  5215  0585  1903               	skipnz
  5216  0586  2D61               	goto	i1l2164
  5217  0587  2D88               	goto	i1l125
  5218  0588                     i1l125:
  5219  0588  0008               	return
  5220  0589                     __end_of_Envio:
  5221                           
  5222                           	psect	text21
  5223  06AE                     __ptext21:	
  5224 ;; *************** function _ASCII *****************
  5225 ;; Defined at:
  5226 ;;		line 22 in file "E:/UVG/Semestre 5/Digital2/Lab3/Lab3.X/USART.c"
  5227 ;; Parameters:    Size  Location     Type
  5228 ;;  valor           1    wreg     unsigned char 
  5229 ;; Auto vars:     Size  Location     Type
  5230 ;;  valor           1    2[COMMON] unsigned char 
  5231 ;; Return value:  Size  Location     Type
  5232 ;;                  1    wreg      unsigned char 
  5233 ;; Registers used:
  5234 ;;		wreg, fsr0l, fsr0h, status,2, status,0
  5235 ;; Tracked objects:
  5236 ;;		On entry : 0/0
  5237 ;;		On exit  : 0/0
  5238 ;;		Unchanged: 0/0
  5239 ;; Data sizes:     COMMON   BANK0   BANK1   BANK3   BANK2
  5240 ;;      Params:         0       0       0       0       0
  5241 ;;      Locals:         1       0       0       0       0
  5242 ;;      Temps:          2       0       0       0       0
  5243 ;;      Totals:         3       0       0       0       0
  5244 ;;Total ram usage:        3 bytes
  5245 ;; Hardware stack levels used:    1
  5246 ;; This function calls:
  5247 ;;		Nothing
  5248 ;; This function is called by:
  5249 ;;		_Envio
  5250 ;; This function uses a non-reentrant model
  5251 ;;
  5252                           
  5253                           
  5254                           ;psect for function _ASCII
  5255  06AE                     _ASCII:
  5256                           
  5257                           ;incstack = 0
  5258                           ; Regs used in _ASCII: [wreg-fsr0h+status,2+status,0]
  5259                           ;ASCII@valor stored from wreg
  5260  06AE  00F2               	movwf	ASCII@valor
  5261  06AF                     i1l1826:
  5262                           
  5263                           ;E:/UVG/Semestre 5/Digital2/Lab3/Lab3.X/USART.c: 23:     switch(valor){
  5264  06AF  2ED0               	goto	i1l1926
  5265  06B0                     i1l1828:
  5266                           
  5267                           ;E:/UVG/Semestre 5/Digital2/Lab3/Lab3.X/USART.c: 25:             return 0x30;
  5268  06B0  3030               	movlw	48
  5269  06B1  2F0A               	goto	i1l264
  5270  06B2                     i1l1834:
  5271                           
  5272                           ;E:/UVG/Semestre 5/Digital2/Lab3/Lab3.X/USART.c: 28:             return 0x31;
  5273  06B2  3031               	movlw	49
  5274  06B3  2F0A               	goto	i1l264
  5275  06B4                     i1l1840:
  5276                           
  5277                           ;E:/UVG/Semestre 5/Digital2/Lab3/Lab3.X/USART.c: 31:             return 0x32;
  5278  06B4  3032               	movlw	50
  5279  06B5  2F0A               	goto	i1l264
  5280  06B6                     i1l1846:
  5281                           
  5282                           ;E:/UVG/Semestre 5/Digital2/Lab3/Lab3.X/USART.c: 34:             return 0x33;
  5283  06B6  3033               	movlw	51
  5284  06B7  2F0A               	goto	i1l264
  5285  06B8                     i1l1852:
  5286                           
  5287                           ;E:/UVG/Semestre 5/Digital2/Lab3/Lab3.X/USART.c: 37:             return 0x34;
  5288  06B8  3034               	movlw	52
  5289  06B9  2F0A               	goto	i1l264
  5290  06BA                     i1l1858:
  5291                           
  5292                           ;E:/UVG/Semestre 5/Digital2/Lab3/Lab3.X/USART.c: 40:             return 0x35;
  5293  06BA  3035               	movlw	53
  5294  06BB  2F0A               	goto	i1l264
  5295  06BC                     i1l1864:
  5296                           
  5297                           ;E:/UVG/Semestre 5/Digital2/Lab3/Lab3.X/USART.c: 43:             return 0x36;
  5298  06BC  3036               	movlw	54
  5299  06BD  2F0A               	goto	i1l264
  5300  06BE                     i1l1870:
  5301                           
  5302                           ;E:/UVG/Semestre 5/Digital2/Lab3/Lab3.X/USART.c: 46:             return 0x37;
  5303  06BE  3037               	movlw	55
  5304  06BF  2F0A               	goto	i1l264
  5305  06C0                     i1l1876:
  5306                           
  5307                           ;E:/UVG/Semestre 5/Digital2/Lab3/Lab3.X/USART.c: 49:             return 0x38;
  5308  06C0  3038               	movlw	56
  5309  06C1  2F0A               	goto	i1l264
  5310  06C2                     i1l1882:
  5311                           
  5312                           ;E:/UVG/Semestre 5/Digital2/Lab3/Lab3.X/USART.c: 52:             return 0x39;
  5313  06C2  3039               	movlw	57
  5314  06C3  2F0A               	goto	i1l264
  5315  06C4                     i1l1888:
  5316                           
  5317                           ;E:/UVG/Semestre 5/Digital2/Lab3/Lab3.X/USART.c: 55:             return 0x41;
  5318  06C4  3041               	movlw	65
  5319  06C5  2F0A               	goto	i1l264
  5320  06C6                     i1l1894:
  5321                           
  5322                           ;E:/UVG/Semestre 5/Digital2/Lab3/Lab3.X/USART.c: 58:             return 0x42;
  5323  06C6  3042               	movlw	66
  5324  06C7  2F0A               	goto	i1l264
  5325  06C8                     i1l1900:
  5326                           
  5327                           ;E:/UVG/Semestre 5/Digital2/Lab3/Lab3.X/USART.c: 61:             return 0x43;
  5328  06C8  3043               	movlw	67
  5329  06C9  2F0A               	goto	i1l264
  5330  06CA                     i1l1906:
  5331                           
  5332                           ;E:/UVG/Semestre 5/Digital2/Lab3/Lab3.X/USART.c: 64:             return 0x44;
  5333  06CA  3044               	movlw	68
  5334  06CB  2F0A               	goto	i1l264
  5335  06CC                     i1l1912:
  5336                           
  5337                           ;E:/UVG/Semestre 5/Digital2/Lab3/Lab3.X/USART.c: 67:             return 0x45;
  5338  06CC  3045               	movlw	69
  5339  06CD  2F0A               	goto	i1l264
  5340  06CE                     i1l1918:
  5341                           
  5342                           ;E:/UVG/Semestre 5/Digital2/Lab3/Lab3.X/USART.c: 70:             return 0x46;
  5343  06CE  3046               	movlw	70
  5344  06CF  2F0A               	goto	i1l264
  5345  06D0                     i1l1926:
  5346  06D0  0872               	movf	ASCII@valor,w
  5347  06D1  00F0               	movwf	??_ASCII
  5348  06D2  01F1               	clrf	??_ASCII+1
  5349                           
  5350                           ; Switch on 2 bytes has been partitioned into a top level switch of size 1, and 1 sub-sw
      +                          itches
  5351                           ; Switch size 1, requested type "simple"
  5352                           ; Number of cases is 1, Range of values is 0 to 0
  5353                           ; switch strategies available:
  5354                           ; Name         Instructions Cycles
  5355                           ; simple_byte            4     3 (average)
  5356                           ; direct_byte           11     8 (fixed)
  5357                           ; jumptable            260     6 (fixed)
  5358                           ;	Chosen strategy is simple_byte
  5359  06D3  0871               	movf	??_ASCII+1,w
  5360  06D4  3A00               	xorlw	0	; case 0
  5361  06D5  1903               	skipnz
  5362  06D6  2ED8               	goto	i1l2630
  5363  06D7  2F0A               	goto	i1l264
  5364  06D8                     i1l2630:
  5365                           
  5366                           ; Switch size 1, requested type "simple"
  5367                           ; Number of cases is 16, Range of values is 0 to 15
  5368                           ; switch strategies available:
  5369                           ; Name         Instructions Cycles
  5370                           ; simple_byte           49    25 (average)
  5371                           ; direct_byte           56     8 (fixed)
  5372                           ; jumptable            260     6 (fixed)
  5373                           ;	Chosen strategy is simple_byte
  5374  06D8  0870               	movf	??_ASCII,w
  5375  06D9  3A00               	xorlw	0	; case 0
  5376  06DA  1903               	skipnz
  5377  06DB  2EB0               	goto	i1l1828
  5378  06DC  3A01               	xorlw	1	; case 1
  5379  06DD  1903               	skipnz
  5380  06DE  2EB2               	goto	i1l1834
  5381  06DF  3A03               	xorlw	3	; case 2
  5382  06E0  1903               	skipnz
  5383  06E1  2EB4               	goto	i1l1840
  5384  06E2  3A01               	xorlw	1	; case 3
  5385  06E3  1903               	skipnz
  5386  06E4  2EB6               	goto	i1l1846
  5387  06E5  3A07               	xorlw	7	; case 4
  5388  06E6  1903               	skipnz
  5389  06E7  2EB8               	goto	i1l1852
  5390  06E8  3A01               	xorlw	1	; case 5
  5391  06E9  1903               	skipnz
  5392  06EA  2EBA               	goto	i1l1858
  5393  06EB  3A03               	xorlw	3	; case 6
  5394  06EC  1903               	skipnz
  5395  06ED  2EBC               	goto	i1l1864
  5396  06EE  3A01               	xorlw	1	; case 7
  5397  06EF  1903               	skipnz
  5398  06F0  2EBE               	goto	i1l1870
  5399  06F1  3A0F               	xorlw	15	; case 8
  5400  06F2  1903               	skipnz
  5401  06F3  2EC0               	goto	i1l1876
  5402  06F4  3A01               	xorlw	1	; case 9
  5403  06F5  1903               	skipnz
  5404  06F6  2EC2               	goto	i1l1882
  5405  06F7  3A03               	xorlw	3	; case 10
  5406  06F8  1903               	skipnz
  5407  06F9  2EC4               	goto	i1l1888
  5408  06FA  3A01               	xorlw	1	; case 11
  5409  06FB  1903               	skipnz
  5410  06FC  2EC6               	goto	i1l1894
  5411  06FD  3A07               	xorlw	7	; case 12
  5412  06FE  1903               	skipnz
  5413  06FF  2EC8               	goto	i1l1900
  5414  0700  3A01               	xorlw	1	; case 13
  5415  0701  1903               	skipnz
  5416  0702  2ECA               	goto	i1l1906
  5417  0703  3A03               	xorlw	3	; case 14
  5418  0704  1903               	skipnz
  5419  0705  2ECC               	goto	i1l1912
  5420  0706  3A01               	xorlw	1	; case 15
  5421  0707  1903               	skipnz
  5422  0708  2ECE               	goto	i1l1918
  5423  0709  2F0A               	goto	i1l264
  5424  070A                     i1l264:
  5425  070A  0008               	return
  5426  070B                     __end_of_ASCII:
  5427  007E                     btemp	set	126	;btemp
  5428  007E                     wtemp0	set	126
  5429                           
  5430                           	psect	config
  5431                           
  5432                           ;Config register CONFIG1 @ 0x2007
  5433                           ;	Oscillator Selection bits
  5434                           ;	FOSC = INTRC_NOCLKOUT, INTOSCIO oscillator: I/O function on RA6/OSC2/CLKOUT pin, I/O f
      +                          unction on RA7/OSC1/CLKIN
  5435                           ;	Watchdog Timer Enable bit
  5436                           ;	WDTE = OFF, WDT disabled and can be enabled by SWDTEN bit of the WDTCON register
  5437                           ;	Power-up Timer Enable bit
  5438                           ;	PWRTE = OFF, PWRT disabled
  5439                           ;	RE3/MCLR pin function select bit
  5440                           ;	MCLRE = OFF, RE3/MCLR pin function is digital input, MCLR internally tied to VDD
  5441                           ;	Code Protection bit
  5442                           ;	CP = OFF, Program memory code protection is disabled
  5443                           ;	Data Code Protection bit
  5444                           ;	CPD = OFF, Data memory code protection is disabled
  5445                           ;	Brown Out Reset Selection bits
  5446                           ;	BOREN = OFF, BOR disabled
  5447                           ;	Internal External Switchover bit
  5448                           ;	IESO = OFF, Internal/External Switchover mode is disabled
  5449                           ;	Fail-Safe Clock Monitor Enabled bit
  5450                           ;	FCMEN = OFF, Fail-Safe Clock Monitor is disabled
  5451                           ;	Low Voltage Programming Enable bit
  5452                           ;	LVP = OFF, RB3 pin has digital I/O, HV on MCLR must be used for programming
  5453                           ;	In-Circuit Debugger Mode bit
  5454                           ;	DEBUG = 0x1, unprogrammed default
  5455  2007                     	org	8199
  5456  2007  20D4               	dw	8404
  5457                           
  5458                           ;Config register CONFIG2 @ 0x2008
  5459                           ;	Brown-out Reset Selection bit
  5460                           ;	BOR4V = BOR40V, Brown-out Reset set to 4.0V
  5461                           ;	Flash Program Memory Self Write Enable bits
  5462                           ;	WRT = OFF, Write protection off
  5463  2008                     	org	8200
  5464  2008  3FFF               	dw	16383

Data Sizes:
    Strings     35
    Constant    0
    Data        0
    BSS         9
    Persistent  0
    Stack       0

Auto Spaces:
    Space          Size  Autos    Used
    COMMON           14     10      14
    BANK0            80     23      28
    BANK1            80      0       0
    BANK3            96      0       0
    BANK2            96      0       0

Pointer List with Targets:

    Lcd_Write_String@a	PTR unsigned char  size(1) Largest target is 6
		 -> STR_15(CODE[2]), STR_14(CODE[2]), STR_13(CODE[2]), STR_12(CODE[2]), 
		 -> STR_11(CODE[2]), STR_10(CODE[2]), STR_9(CODE[2]), STR_8(CODE[2]), 
		 -> STR_7(CODE[2]), STR_6(CODE[2]), STR_5(CODE[2]), STR_4(CODE[2]), 
		 -> STR_3(CODE[5]), STR_2(CODE[6]), STR_1(CODE[6]), 

    sp__Cambio	PTR const unsigned char  size(1) Largest target is 2
		 -> STR_15(CODE[2]), STR_14(CODE[2]), STR_13(CODE[2]), STR_12(CODE[2]), 
		 -> STR_11(CODE[2]), STR_10(CODE[2]), STR_9(CODE[2]), STR_8(CODE[2]), 
		 -> STR_7(CODE[2]), STR_6(CODE[2]), 


Critical Paths under _main in COMMON

    None.

Critical Paths under _isr in COMMON

    _isr->_Envio
    _Envio->_ASCII

Critical Paths under _main in BANK0

    _main->_Conversiones
    _main->_Envio_Contador
    _Setup->_Lcd_Init
    _Lcd_Init->_Lcd_Cmd
    _Envio_Contador->___awdiv
    _Conversiones->___awdiv
    ___awdiv->___wmul
    _Lcd_Write_String->_Lcd_Write_Char
    _Lcd_Write_Char->_Lcd_Port
    _Lcd_Set_Cursor->_Lcd_Cmd
    _Lcd_Cmd->_Lcd_Port

Critical Paths under _isr in BANK0

    None.

Critical Paths under _main in BANK1

    None.

Critical Paths under _isr in BANK1

    None.

Critical Paths under _main in BANK3

    None.

Critical Paths under _isr in BANK3

    None.

Critical Paths under _main in BANK2

    None.

Critical Paths under _isr in BANK2

    None.

Call Graph Tables:

 ---------------------------------------------------------------------------------
 (Depth) Function   	        Calls       Base Space   Used Autos Params    Refs
 ---------------------------------------------------------------------------------
 (0) _main                                                 1     1      0   10696
                                             22 BANK0      1     1      0
                       _Conversiones
                     _Envio_Contador
                     _Lcd_Set_Cursor
                   _Lcd_Write_String
                              _Setup
 ---------------------------------------------------------------------------------
 (1) _Setup                                                1     1      0     308
                                              6 BANK0      1     1      0
                           _Lcd_Init
                            _initADC
                            _initOsc
                           _initUART
 ---------------------------------------------------------------------------------
 (2) _initUART                                             0     0      0       0
 ---------------------------------------------------------------------------------
 (2) _initOsc                                              3     3      0      22
                                              0 BANK0      3     3      0
 ---------------------------------------------------------------------------------
 (2) _initADC                                              4     3      1     220
                                              0 BANK0      4     3      1
 ---------------------------------------------------------------------------------
 (2) _Lcd_Init                                             2     2      0      66
                                              4 BANK0      2     2      0
                            _Lcd_Cmd
                           _Lcd_Port
 ---------------------------------------------------------------------------------
 (1) _Envio_Contador                                       7     7      0    3344
                                             15 BANK0      7     7      0
                             _Cambio
                     _Lcd_Set_Cursor
                   _Lcd_Write_String
                            ___awdiv
                             ___bmul
 ---------------------------------------------------------------------------------
 (2) ___bmul                                               4     3      1     244
                                              0 BANK0      4     3      1
 ---------------------------------------------------------------------------------
 (1) _Conversiones                                         7     7      0    5100
                                             15 BANK0      7     7      0
                             _Cambio
                     _Lcd_Set_Cursor
                   _Lcd_Write_String
                            ___awdiv
                            ___lwdiv
                             ___wmul
 ---------------------------------------------------------------------------------
 (2) ___wmul                                               6     2      4    1004
                                              0 BANK0      6     2      4
 ---------------------------------------------------------------------------------
 (2) ___lwdiv                                              8     4      4     770
                                              0 BANK0      8     4      4
 ---------------------------------------------------------------------------------
 (2) ___awdiv                                              9     5      4     908
                                              6 BANK0      9     5      4
                             ___wmul (ARG)
 ---------------------------------------------------------------------------------
 (1) _Lcd_Write_String                                     3     3      0     596
                                              3 BANK0      3     3      0
                     _Lcd_Write_Char
 ---------------------------------------------------------------------------------
 (2) _Lcd_Write_Char                                       2     2      0      44
                                              1 BANK0      2     2      0
                           _Lcd_Port
 ---------------------------------------------------------------------------------
 (1) _Lcd_Set_Cursor                                       2     1      1    1348
                                              4 BANK0      2     1      1
                            _Lcd_Cmd
 ---------------------------------------------------------------------------------
 (3) _Lcd_Cmd                                              3     3      0      44
                                              1 BANK0      3     3      0
                           _Lcd_Port
 ---------------------------------------------------------------------------------
 (3) _Lcd_Port                                             1     1      0      22
                                              0 BANK0      1     1      0
 ---------------------------------------------------------------------------------
 (2) _Cambio                                               3     3      0      22
                                              0 BANK0      3     3      0
 ---------------------------------------------------------------------------------
 Estimated maximum stack depth 3
 ---------------------------------------------------------------------------------
 (Depth) Function   	        Calls       Base Space   Used Autos Params    Refs
 ---------------------------------------------------------------------------------
 (5) _isr                                                  4     4      0     210
                                              6 COMMON     4     4      0
                              _Envio
                          i1_initADC
 ---------------------------------------------------------------------------------
 (6) i1_initADC                                            4     3      1      96
                                              0 COMMON     4     3      1
 ---------------------------------------------------------------------------------
 (6) _Envio                                                3     3      0     114
                                              3 COMMON     3     3      0
                              _ASCII
 ---------------------------------------------------------------------------------
 (7) _ASCII                                                3     3      0      22
                                              0 COMMON     3     3      0
 ---------------------------------------------------------------------------------
 Estimated maximum stack depth 7
 ---------------------------------------------------------------------------------

 Call Graph Graphs:

 _main (ROOT)
   _Conversiones
     _Cambio
     _Lcd_Set_Cursor
       _Lcd_Cmd
         _Lcd_Port
     _Lcd_Write_String
       _Lcd_Write_Char
         _Lcd_Port
     ___awdiv
       ___wmul (ARG)
     ___lwdiv
     ___wmul
   _Envio_Contador
     _Cambio
     _Lcd_Set_Cursor
       _Lcd_Cmd
         _Lcd_Port
     _Lcd_Write_String
       _Lcd_Write_Char
         _Lcd_Port
     ___awdiv
       ___wmul (ARG)
     ___bmul
   _Lcd_Set_Cursor
     _Lcd_Cmd
       _Lcd_Port
   _Lcd_Write_String
     _Lcd_Write_Char
       _Lcd_Port
   _Setup
     _Lcd_Init
       _Lcd_Cmd
         _Lcd_Port
       _Lcd_Port
     _initADC
     _initOsc
     _initUART

 _isr (ROOT)
   _Envio
     _ASCII
   i1_initADC

 Address spaces:
Name               Size   Autos  Total    Cost      Usage
BITCOMMON            E      0       0       0        0.0%
EEDATA             100      0       0       0        0.0%
NULL                 0      0       0       0        0.0%
CODE                 0      0       0       0        0.0%
COMMON               E      A       E       1      100.0%
BITSFR0              0      0       0       1        0.0%
SFR0                 0      0       0       1        0.0%
BITSFR1              0      0       0       2        0.0%
SFR1                 0      0       0       2        0.0%
STACK                0      0       0       2        0.0%
ABS                  0      0      2A       3        0.0%
BITBANK0            50      0       0       4        0.0%
BITSFR3              0      0       0       4        0.0%
SFR3                 0      0       0       4        0.0%
BANK0               50     17      1C       5       35.0%
BITSFR2              0      0       0       5        0.0%
SFR2                 0      0       0       5        0.0%
BITBANK1            50      0       0       6        0.0%
BANK1               50      0       0       7        0.0%
BITBANK3            60      0       0       8        0.0%
BANK3               60      0       0       9        0.0%
BITBANK2            60      0       0      10        0.0%
BANK2               60      0       0      11        0.0%
DATA                 0      0      2A      12        0.0%


Microchip Technology PIC Macro Assembler V2.31 build 20201012212115 
Symbol Table                                                                                   Sun Feb 07 02:18:02 2021

                        pc 0002             ___bmul@product 0022             _Envio_Contador 03AC  
             ___awdiv@sign 002C                         fsr 0004        ___wmul@multiplicand 0022  
                      l200 06AD                        l120 07DD                        l203 0F53  
                      l220 0FFF                        l141 0457                        l151 02E8  
                      l160 0310                        l240 0608                        l209 0FBE  
                      l161 0315                        l153 02ED                        l241 060E  
                      l138 01FC                        l170 0377                        l162 031A  
                      l154 02F2                        l242 0614                        l171 039C  
                      l163 031F                        l155 02F7                        l243 061A  
                      l172 037A                        l164 0324                        l156 02FC  
                      l244 0620                        l236 05F6                        l173 037D  
                      l165 0329                        l157 0301                        l245 0626  
                      l237 064E                        l174 0380                        l166 032E  
                      l158 0306                        l246 064F                        l238 05FC  
                      l175 0383                        l167 0333                        l159 030B  
                      l239 0602                        l176 03AB                        l168 0338  
                      l185 0F10                        l259 0F24                        l188 0F6E  
                      l197 07FB                        l366 0F7D                        l519 05F1  
                      l368 0F95                        l392 0F3B                        l638 079C  
                      u510 0F91                        u511 0F90                        u600 05CF  
                      u520 0F2D                        u601 05CE                        u505 0F85  
                      u521 0F2C                        u450 0FBE                        u530 0F3A  
                      u451 0FBD                        u531 0F39                        u460 07E6  
                      u620 05E3                        u540 0590                        u700 0798  
                      u461 07E5                        u621 05E2                        u605 05CB  
                      u541 058F                        u701 0797                        u470 07F4  
                      u630 05E8                        u550 059B                        u471 07F3  
                      u631 05E7                        u615 05D7                        u551 059A  
                      u560 05AC                        u640 0761                        u480 0F77  
                      u561 05AB                        u641 0760                        u481 0F76  
                      u730 0025                        u731 0024                        u580 05BE  
                      u660 0773                        u581 05BD                        u661 0772  
                      u575 05B0                        u655 0765                        u495 0F7E  
                      u680 0784                        u681 0783                        u595 05BF  
                      u675 0774                        u907 0656                        u685 0780  
                      u917 0666                        u695 078C                        u927 0677  
                      u880 0742                        u937 0686                        u881 0741  
                      u947 0F4D                        u957 0F67                        u897 03A7  
                      _isr 0458                        fsr0 0004                       l2010 0F84  
                     l2012 0F8B                       l2004 0F6F                       l2020 0F29  
                     l2014 0F91                       l2006 0F73                       l2022 0F2D  
                     l2040 0597                       l2032 0589                       l2008 0F77  
                     l2024 0F31                       l2200 07B7                       l2050 05AC  
                     l2042 059B                       l2034 058C                       l2026 0F33  
                     l2018 0F28                       l2210 07CC                       l2202 07B8  
                     l2060 05CF                       l2052 05AF                       l2044 05A0  
                     l2036 0590                       l2220 0025                       l2028 0F3A  
                     l2212 07D1                       l2204 07B9                       l2070 05E8  
                     l2062 05D5                       l2054 05B6                       l2046 05A4  
                     l2038 0595                       l2230 00CB                       l2222 00A6  
                     l2214 07D6                       l2206 07BA                       l2072 05ED  
                     l2064 05D6                       l2056 05BA                       l2048 05A6  
                     l2080 0761                       l2240 0103                       l2232 00D1  
                     l2224 00AA                       l2216 07D9                       l2208 07C0  
                     l2066 05DD                       l2058 05BE                       l2090 0784  
                     l2082 0764                       l2250 01AC                       l2234 00DD  
                     l2226 00B2                       l2242 0110                       l2218 0020  
                     l2068 05E3                       l2092 078A                       l2084 076B  
                     l2076 0757                       l2260 01E3                       l2252 01B8  
                     l2244 0191                       l2236 00EA                       l2228 00BF  
                     l2094 078B                       l2086 076F                       l2078 075B  
                     l2262 01F0                       l2254 01BE                       l2246 0195  
                     l2238 00F6                       l2270 03D8                       l2190 07B0  
                     l2182 079D                       l1720 0F5E                       l2096 0792  
                     l2088 0773                       l2256 01CA                       l2248 019F  
                     l2280 0425                       l2272 03EE                       l2264 03AC  
                     l1800 0F22                       l2192 07B3                       l2184 07A7  
                     l1714 0F0E                       l1722 0F61                       l1730 0F46  
                     l2098 0798                       l2258 01D7                       l2282 0432  
                     l2274 0402                       l2266 03B2                       l1810 0671  
                     l1802 0F23                       l2194 07B4                       l2186 07A8  
                     l1724 0F6B                       l1716 0F57                       l1732 0F49  
                     l2284 043E                       l2276 040C                       l2268 03C8  
                     l1820 069B                       l1812 067C                       l1804 0650  
                     l2620 038E                       l1740 033D                       l2196 07B5  
                     l2188 07AE                       l2622 0FDF                       l1718 0F58  
                     l1734 0F50                       l1726 0F3F                       l2286 044B  
                     l2278 0419                       l1822 06A1                       l1814 0689  
                     l1806 065A                       l2198 07B6                       l2390 073A  
                     l2382 070B                       l1728 0F40                       l1824 06A7  
                     l1816 068F                       l1808 0660                       l1744 0386  
                     l1736 02E7                       l2616 0634                       l2392 0742  
                     l2384 0716                       l1770 07E1                       l1762 0F99  
                     l1818 0695                       l1746 039E                       l2618 0345  
                     l2394 0746                       l2386 0722                       l1940 0FC5  
                     l1932 0FC2                       l1772 07E6                       l1764 0F9C  
                     l1748 03A1                       l2396 0749                       l2388 0734  
                     l1934 0FC3                       l1774 07EE                       l1766 0FA9  
                     l1782 062C                       l1790 0F11                       l2398 074E  
                     l1952 0FC9                       l1776 07F4                       l1768 0FB1  
                     l1792 0F19                       l1970 0FCF                       l1946 0FC7  
                     l1778 05F5                       l1794 0F1D                       l1964 0FCD  
                     l1796 0F1E                       l1982 0FD3                       l1958 0FCB  
                     l1798 0F1F                       l1976 0FD1                       l1988 0FD5  
                     l1996 0FD7                       ?_isr 0070                       STR_1 0806  
                     STR_2 080C                       STR_3 0812                       STR_4 0827  
                     STR_5 0827                       STR_6 0817                       STR_7 080A  
                     STR_8 0810                       STR_9 0819                       _TMR0 0001  
        ?_Lcd_Write_String 0070                       _main 070B                       btemp 007E  
           ??_Conversiones 002F                       start 000E         ??_Lcd_Write_String 0023  
          __end_of_Lcd_Cmd 0F6F          ___bmul@multiplier 0023     __end_of_Envio_Contador 0458  
              initADC@ADCS 0023                      ??_isr 0076                      ?_main 0070  
          __end_of___awdiv 05F2                      STR_10 081B                      STR_11 081D  
                    STR_12 081F                      STR_13 0821                      STR_14 0823  
                    STR_15 0825                      _ASCII 06AE                      _FLAGD 0038  
                    _FLAGI 0037                      _ANSEL 0188            ___awdiv@divisor 0026  
          __end_of___lwdiv 079D                      i1l101 04E5                      i1l108 04F5  
                    i1l125 0588                      i1l151 01FF                      i1l160 0237  
                    i1l161 023E                      i1l153 0206                      i1l170 02B0  
                    i1l162 0245                      i1l154 020D                      i1l171 02D5  
                    i1l163 024C                      i1l155 0214                      i1l172 02B3  
                    i1l164 0253                      i1l156 021B                      i1l173 02B6  
                    i1l165 025A                      i1l157 0222                      i1l174 02B9  
                    i1l166 0261                      i1l158 0229                      i1l175 02BC  
                    i1l167 0268                      i1l159 0230                      i1l264 070A  
                    i1l176 02E3                      i1l168 026F            ___awdiv@counter 002B  
                    _RCREG 001A                      _SPBRG 0099                      _PORTA 0005  
                    _PORTB 0006                      _PORTC 0007                      _PORTD 0008  
                    _PORTE 0009                      u71_25 0508                      u80_20 04B2  
                    u80_21 04B1                      u72_25 0536                      u81_20 04BE  
                    u81_21 04BD    __size_of_Lcd_Set_Cursor 001E                      _TRISA 0085  
                    _TRISB 0086                      _TRISC 0087                      _TRISD 0088  
                    _TRISE 0089                      u82_20 04C6                      u74_20 045D  
                    u82_21 04C5                      u74_21 045C                      u83_20 04CC  
                    u75_20 046C                      u83_21 04CB                      u75_21 046B  
                    u84_20 04D6                      u76_20 0471                      u84_21 04D5  
                    u76_21 0470                      u85_20 04DC                      u77_20 049A  
                    u85_21 04DB                      u77_21 0499                      u86_20 04E2  
                    u78_20 04A4                      u86_21 04E1                      u78_21 04A3  
                    u87_20 04E9                      u79_20 04AC                      u87_21 04E8  
                    u79_21 04AB                      u96_27 02DE                      _TXREG 0019  
                    _Envio 04FE                      _Setup 079D            __end_of_initADC 03AC  
          __end_of_initOsc 0650                      pclath 000A                      status 0003  
                    wtemp0 007E           __end_of_Lcd_Init 06AE           __end_of_Lcd_Port 0F11  
          __initialization 0011            ?_Envio_Contador 0070         __size_ofi1_initADC 00E7  
             __end_of_main 0757                     ??_main 0036                     ?_ASCII 0070  
                   ?_Envio 0070                     ?_Setup 0070                     _ADCON1 009F  
                   _ADRESH 001E                initOsc@IRCF 0022           ___awdiv@dividend 0028  
                   _ANSELH 0189                     _FLAGTX 0039                     i1l2102 04FE  
                   i1l2120 051D                     i1l2112 0505                     i1l2104 04FF  
                   i1l2130 052D                     i1l2122 0522                     i1l2114 0516  
                   i1l2106 0503                     i1l2140 0544                     i1l2132 0531  
                   i1l2124 0526                     i1l2300 02DA                     i1l2150 0554  
                   i1l2310 0458                     i1l2320 046C                     i1l2312 045D  
                   i1l2146 054B                     i1l2138 0533                     i1l2330 0486  
                   i1l2322 0471                     i1l2314 0461                     i1l2164 0561  
                   i1l2156 055B                     i1l2148 054F                     i1l2340 049A  
                   i1l2332 0490                     i1l2324 0475                     i1l2316 0465  
                   i1l2166 0562                     i1l2158 055F                     i1l2174 0564  
                   i1l2350 04B2                     i1l2342 049E                     i1l2334 0491  
                   i1l2326 047F                     i1l2318 0466                     i1l2360 04C6  
                   i1l2352 04B3                     i1l2344 04A4                     i1l2336 0495  
                   i1l2328 0482                     i1l2370 04DC                     i1l2362 04CC  
                   i1l2354 04B8                     i1l2346 04A7                     i1l2338 0496  
                   i1l1900 06C8                     i1l2292 0276                     i1l2380 04F4  
                   i1l2372 04E2                     i1l2364 04CD                     i1l2356 04BE  
                   i1l2348 04AC                     i1l2630 06D8                     i1l2366 04D0  
                   i1l2358 04C1                     i1l2374 04E5                     i1l1912 06CC  
                   i1l1840 06B4                     i1l2624 027E                     i1l2296 02BF  
                   i1l2288 01FE                     i1l2376 04E9                     i1l2368 04D6  
                   i1l1906 06CA                     i1l1834 06B2                     i1l1826 06AF  
                   i1l2298 02D7                     i1l2626 02C7                     i1l2378 04F1  
                   i1l1852 06B8                     i1l1828 06B0                     i1l2628 056E  
                   i1l1918 06CE                     i1l1870 06BE                     i1l1846 06B6  
                   i1l1926 06D0                     i1l1864 06BC                     i1l1882 06C2  
                   i1l1858 06BA                     i1l1876 06C0                     i1l1894 06C6  
                   i1l1888 06C4                  ??_Lcd_Cmd 0021                     _SPBRGH 009A  
                   _TOGGLE 003A                     _WDTCON 0105    __size_of_Lcd_Write_Char 0018  
                   _Cambio 0FBF                     ___bmul 0F25                     ___wmul 0F6F  
                ??___awdiv 002A           __end_of_initUART 0F25                  ??___lwdiv 0024  
         ___awdiv@quotient 002D                  ??_initADC 0021                  ??_initOsc 0020  
     __end_of_Conversiones 01FD                     saved_w 007E          __end_ofi1_initADC 02E4  
          Lcd_Set_Cursor@a 0025            Lcd_Set_Cursor@b 0024              Envio@temporal 0075  
  __end_of__initialization 001C              __end_of_ASCII 070B        ___bmul@multiplicand 0020  
            __end_of_Envio 0589             __pcstackCOMMON 0070              __end_of_Setup 07DE  
                  ??_ASCII 0070             _Lcd_Set_Cursor 07DE                    ??_Envio 0073  
                  ??_Setup 0026                  ?_Lcd_Init 0070                  ?_Lcd_Port 0070  
             i1initADC@CHS 0070                 __pbssBANK0 0037                    ?_Cambio 0070  
               __pmaintext 070B                    ?___bmul 0020                    ?___wmul 0020  
               __pintentry 0004  __size_of_Lcd_Write_String 0029     __end_of_Lcd_Set_Cursor 07FC  
                  _FLAGADC 007A               Cambio@numero 0022                 ??_Lcd_Init 0024  
               ??_Lcd_Port 0020                 __stringtab 0800                  ?_initUART 0070  
           _Lcd_Write_Char 0F3C                    _Lcd_Cmd 0F54           ??_Envio_Contador 002F  
          __size_of_Cambio 0041            __size_of___bmul 0017                    ___awdiv 0589  
          __size_of___wmul 0027                    ___lwdiv 0757                 ASCII@valor 0072  
    __size_of_Conversiones 01DD                  _ANSELbits 0188            ?_Lcd_Set_Cursor 0024  
                  __ptext1 079D                    __ptext2 0F11                    __ptext3 05F2  
                  __ptext4 02E4                    __ptext5 0650                    __ptext6 03AC  
                  __ptext7 0F25                    __ptext8 0020                    __ptext9 0F6F  
                  _initADC 02E4                    _initOsc 05F2               __size_of_isr 00A6  
   __end_of_Lcd_Write_Char 0F54       end_of_initialization 001C                  _RECEPCION 007B  
               ??_initUART 0020        Conversiones@decimas 0033               _Conversiones 0020  
                _RCSTAbits 0018                  Lcd_Port@a 0020                  _PORTDbits 0008  
          ?_Lcd_Write_Char 0070          Lcd_Write_String@a 0025          Lcd_Write_String@i 0023  
                i1_initADC 01FD                  _TXSTAbits 0098             __end_of_Cambio 1000  
               initADC@CHS 0020             __end_of___bmul 0F3C             __end_of___wmul 0F96  
         _Lcd_Write_String 0F96                _BAUDCTLbits 0187        start_initialization 0011  
              __end_of_isr 04FE     Envio_Contador@centimas 0032          __size_of_Lcd_Init 005E  
        __size_of_Lcd_Port 0006                 ?i1_initADC 0070                   ??_Cambio 0020  
                 ??___bmul 0021                   ??___wmul 0024     Envio_Contador@temporal 0035  
   Envio_Contador@unidades 0033            Lcd_Write_Char@a 0022              i1initADC@ADCS 0073  
              __pbssCOMMON 007A                  ___latbits 0002              __pcstackBANK0 0020  
                 ?_Lcd_Cmd 0070          __size_of_initUART 0014           ___lwdiv@dividend 0022  
         ??_Lcd_Set_Cursor 0025                   ?___awdiv 0026                   ?___lwdiv 0020  
                __pstrings 0800             __size_of_ASCII 005D                   ?_initADC 0020  
                 ?_initOsc 0070             __size_of_Envio 008B             __size_of_Setup 0041  
         ___lwdiv@quotient 0025                   _CONTADOR 003B          interrupt_function 0004  
              ??i1_initADC 0071             ___wmul@product 0024                   _PIE1bits 008C  
                 Lcd_Cmd@a 0023                   _PIR1bits 000C                   _VAR_ADC1 007D  
                 _VAR_ADC2 007C                 _ADCON0bits 001F                __stringbase 0805  
        ___wmul@multiplier 0020           ??_Lcd_Write_Char 0021                   _Lcd_Init 0650  
                 _Lcd_Port 0F0B   __end_of_Lcd_Write_String 0FBF      Envio_Contador@decimas 0034  
         __size_of_Lcd_Cmd 001B           __size_of___awdiv 0069    __size_of_Envio_Contador 00AC  
         __size_of___lwdiv 0046         __end_of__stringtab 0806           __size_of_initADC 00C8  
         __size_of_initOsc 005E            ___lwdiv@divisor 0020            ___lwdiv@counter 0027  
                 __ptext10 0757                   __ptext11 0589                   __ptext20 04FE  
                 __ptext12 0F96                   __ptext21 06AE                   __ptext13 0F3C  
                 __ptext14 07DE                   __ptext15 0F54                   __ptext16 0F0B  
                 __ptext17 0FBF                   __ptext18 0458                   __ptext19 01FD  
                 _initUART 0F11              __size_of_main 004C                 _INTCONbits 000B  
                 intlevel1 0000       Conversiones@centimas 0031                  stringcode 0800  
               _OSCCONbits 008F       Conversiones@temporal 0034       Conversiones@unidades 0032  
               _OPTION_REG 0081                   stringdir 0800                   stringtab 0800  
            ?_Conversiones 0070  
