

Microchip MPLAB XC8 Assembler V2.31 build 20201012212115 
                                                                                               Thu Feb 04 22:08:30 2021

Microchip MPLAB XC8 C Compiler v2.31 (Free license) build 20201012212115 Og1 
     1                           	processor	16F887
     2                           	pagewidth 120
     3                           	opt	flic
     4                           	psect	cinit,global,class=CODE,merge=1,delta=2
     5                           	psect	bssCOMMON,global,class=COMMON,space=1,delta=1,noexec
     6                           	psect	bssBANK0,global,class=BANK0,space=1,delta=1,noexec
     7                           	psect	cstackCOMMON,global,class=COMMON,space=1,delta=1,noexec
     8                           	psect	cstackBANK0,global,class=BANK0,space=1,delta=1,noexec
     9                           	psect	maintext,global,class=CODE,split=1,delta=2
    10                           	psect	text1,local,class=CODE,merge=1,delta=2
    11                           	psect	text2,local,class=CODE,merge=1,delta=2
    12                           	psect	text3,local,class=CODE,merge=1,delta=2
    13                           	psect	text4,local,class=CODE,merge=1,delta=2
    14                           	psect	text5,local,class=CODE,merge=1,delta=2
    15                           	psect	text6,local,class=CODE,merge=1,delta=2
    16                           	psect	text7,local,class=CODE,merge=1,delta=2
    17                           	psect	text8,local,class=CODE,merge=1,delta=2
    18                           	psect	intentry,global,class=CODE,delta=2
    19                           	psect	text9,local,class=CODE,merge=1,delta=2
    20                           	psect	config,global,abs,ovrld,class=CONFIG,space=4,delta=2,noexec
    21                           	dabs	1,0x7E,2
    22  0000                     
    23                           ; Version 2.31
    24                           ; Generated 13/10/2020 GMT
    25                           ; 
    26                           ; Copyright © 2020, Microchip Technology Inc. and its subsidiaries ("Microchip")
    27                           ; All rights reserved.
    28                           ; 
    29                           ; This software is developed by Microchip Technology Inc. and its subsidiaries ("Microch
      +                          ip").
    30                           ; 
    31                           ; Redistribution and use in source and binary forms, with or without modification, are
    32                           ; permitted provided that the following conditions are met:
    33                           ; 
    34                           ;     1. Redistributions of source code must retain the above copyright notice, this lis
      +                          t of
    35                           ;        conditions and the following disclaimer.
    36                           ; 
    37                           ;     2. Redistributions in binary form must reproduce the above copyright notice, this 
      +                          list
    38                           ;        of conditions and the following disclaimer in the documentation and/or other
    39                           ;        materials provided with the distribution. Publication is not required when
    40                           ;        this file is used in an embedded application.
    41                           ; 
    42                           ;     3. Microchip's name may not be used to endorse or promote products derived from th
      +                          is
    43                           ;        software without specific prior written permission.
    44                           ; 
    45                           ; THIS SOFTWARE IS PROVIDED BY MICROCHIP "AS IS" AND ANY EXPRESS OR IMPLIED WARRANTIES,
    46                           ; INCLUDING, BUT NOT LIMITED TO, THE IMPLIED WARRANTIES OF MERCHANTABILITY AND FITNESS F
      +                          OR
    47                           ; PURPOSE ARE DISCLAIMED.  IN NO EVENT SHALL MICROCHIP BE LIABLE FOR ANY DIRECT, INDIREC
      +                          T,
    48                           ; INCIDENTAL, SPECIAL, EXEMPLARY, OR CONSEQUENTIAL DAMAGES (INCLUDING BUT NOT LIMITED TO
    49                           ; PROCUREMENT OF SUBSTITUTE GOODS OR SERVICES; LOSS OF USE, DATA OR PROFITS; OR BUSINESS
    50                           ; INTERRUPTION) HOWSOEVER CAUSED AND ON ANY THEORY OF LIABILITY, WHETHER IN CONTRACT, ST
      +                          RICT
    51                           ; LIABILITY, OR TORT (INCLUDING NEGLIGENCE OR OTHERWISE) ARISING IN ANY WAY OUT OF THE U
      +                          SE OF
    52                           ; THIS SOFTWARE, EVEN IF ADVISED OF THE POSSIBILITY OF SUCH DAMAGE.
    53                           ; 
    54                           ; 
    55                           ; Code-generator required, PIC16F887 Definitions
    56                           ; 
    57                           ; SFR Addresses
    58  0000                     	;# 
    59  0001                     	;# 
    60  0002                     	;# 
    61  0003                     	;# 
    62  0004                     	;# 
    63  0005                     	;# 
    64  0006                     	;# 
    65  0007                     	;# 
    66  0008                     	;# 
    67  0009                     	;# 
    68  000A                     	;# 
    69  000B                     	;# 
    70  000C                     	;# 
    71  000D                     	;# 
    72  000E                     	;# 
    73  000E                     	;# 
    74  000F                     	;# 
    75  0010                     	;# 
    76  0011                     	;# 
    77  0012                     	;# 
    78  0013                     	;# 
    79  0014                     	;# 
    80  0015                     	;# 
    81  0015                     	;# 
    82  0016                     	;# 
    83  0017                     	;# 
    84  0018                     	;# 
    85  0019                     	;# 
    86  001A                     	;# 
    87  001B                     	;# 
    88  001B                     	;# 
    89  001C                     	;# 
    90  001D                     	;# 
    91  001E                     	;# 
    92  001F                     	;# 
    93  0081                     	;# 
    94  0085                     	;# 
    95  0086                     	;# 
    96  0087                     	;# 
    97  0088                     	;# 
    98  0089                     	;# 
    99  008C                     	;# 
   100  008D                     	;# 
   101  008E                     	;# 
   102  008F                     	;# 
   103  0090                     	;# 
   104  0091                     	;# 
   105  0092                     	;# 
   106  0093                     	;# 
   107  0093                     	;# 
   108  0093                     	;# 
   109  0094                     	;# 
   110  0095                     	;# 
   111  0096                     	;# 
   112  0097                     	;# 
   113  0098                     	;# 
   114  0099                     	;# 
   115  009A                     	;# 
   116  009B                     	;# 
   117  009C                     	;# 
   118  009D                     	;# 
   119  009E                     	;# 
   120  009F                     	;# 
   121  0105                     	;# 
   122  0107                     	;# 
   123  0108                     	;# 
   124  0109                     	;# 
   125  010C                     	;# 
   126  010C                     	;# 
   127  010D                     	;# 
   128  010E                     	;# 
   129  010F                     	;# 
   130  0185                     	;# 
   131  0187                     	;# 
   132  0188                     	;# 
   133  0189                     	;# 
   134  018C                     	;# 
   135  018D                     	;# 
   136  0000                     	;# 
   137  0001                     	;# 
   138  0002                     	;# 
   139  0003                     	;# 
   140  0004                     	;# 
   141  0005                     	;# 
   142  0006                     	;# 
   143  0007                     	;# 
   144  0008                     	;# 
   145  0009                     	;# 
   146  000A                     	;# 
   147  000B                     	;# 
   148  000C                     	;# 
   149  000D                     	;# 
   150  000E                     	;# 
   151  000E                     	;# 
   152  000F                     	;# 
   153  0010                     	;# 
   154  0011                     	;# 
   155  0012                     	;# 
   156  0013                     	;# 
   157  0014                     	;# 
   158  0015                     	;# 
   159  0015                     	;# 
   160  0016                     	;# 
   161  0017                     	;# 
   162  0018                     	;# 
   163  0019                     	;# 
   164  001A                     	;# 
   165  001B                     	;# 
   166  001B                     	;# 
   167  001C                     	;# 
   168  001D                     	;# 
   169  001E                     	;# 
   170  001F                     	;# 
   171  0081                     	;# 
   172  0085                     	;# 
   173  0086                     	;# 
   174  0087                     	;# 
   175  0088                     	;# 
   176  0089                     	;# 
   177  008C                     	;# 
   178  008D                     	;# 
   179  008E                     	;# 
   180  008F                     	;# 
   181  0090                     	;# 
   182  0091                     	;# 
   183  0092                     	;# 
   184  0093                     	;# 
   185  0093                     	;# 
   186  0093                     	;# 
   187  0094                     	;# 
   188  0095                     	;# 
   189  0096                     	;# 
   190  0097                     	;# 
   191  0098                     	;# 
   192  0099                     	;# 
   193  009A                     	;# 
   194  009B                     	;# 
   195  009C                     	;# 
   196  009D                     	;# 
   197  009E                     	;# 
   198  009F                     	;# 
   199  0105                     	;# 
   200  0107                     	;# 
   201  0108                     	;# 
   202  0109                     	;# 
   203  010C                     	;# 
   204  010C                     	;# 
   205  010D                     	;# 
   206  010E                     	;# 
   207  010F                     	;# 
   208  0185                     	;# 
   209  0187                     	;# 
   210  0188                     	;# 
   211  0189                     	;# 
   212  018C                     	;# 
   213  018D                     	;# 
   214  0000                     	;# 
   215  0001                     	;# 
   216  0002                     	;# 
   217  0003                     	;# 
   218  0004                     	;# 
   219  0005                     	;# 
   220  0006                     	;# 
   221  0007                     	;# 
   222  0008                     	;# 
   223  0009                     	;# 
   224  000A                     	;# 
   225  000B                     	;# 
   226  000C                     	;# 
   227  000D                     	;# 
   228  000E                     	;# 
   229  000E                     	;# 
   230  000F                     	;# 
   231  0010                     	;# 
   232  0011                     	;# 
   233  0012                     	;# 
   234  0013                     	;# 
   235  0014                     	;# 
   236  0015                     	;# 
   237  0015                     	;# 
   238  0016                     	;# 
   239  0017                     	;# 
   240  0018                     	;# 
   241  0019                     	;# 
   242  001A                     	;# 
   243  001B                     	;# 
   244  001B                     	;# 
   245  001C                     	;# 
   246  001D                     	;# 
   247  001E                     	;# 
   248  001F                     	;# 
   249  0081                     	;# 
   250  0085                     	;# 
   251  0086                     	;# 
   252  0087                     	;# 
   253  0088                     	;# 
   254  0089                     	;# 
   255  008C                     	;# 
   256  008D                     	;# 
   257  008E                     	;# 
   258  008F                     	;# 
   259  0090                     	;# 
   260  0091                     	;# 
   261  0092                     	;# 
   262  0093                     	;# 
   263  0093                     	;# 
   264  0093                     	;# 
   265  0094                     	;# 
   266  0095                     	;# 
   267  0096                     	;# 
   268  0097                     	;# 
   269  0098                     	;# 
   270  0099                     	;# 
   271  009A                     	;# 
   272  009B                     	;# 
   273  009C                     	;# 
   274  009D                     	;# 
   275  009E                     	;# 
   276  009F                     	;# 
   277  0105                     	;# 
   278  0107                     	;# 
   279  0108                     	;# 
   280  0109                     	;# 
   281  010C                     	;# 
   282  010C                     	;# 
   283  010D                     	;# 
   284  010E                     	;# 
   285  010F                     	;# 
   286  0185                     	;# 
   287  0187                     	;# 
   288  0188                     	;# 
   289  0189                     	;# 
   290  018C                     	;# 
   291  018D                     	;# 
   292  0000                     	;# 
   293  0001                     	;# 
   294  0002                     	;# 
   295  0003                     	;# 
   296  0004                     	;# 
   297  0005                     	;# 
   298  0006                     	;# 
   299  0007                     	;# 
   300  0008                     	;# 
   301  0009                     	;# 
   302  000A                     	;# 
   303  000B                     	;# 
   304  000C                     	;# 
   305  000D                     	;# 
   306  000E                     	;# 
   307  000E                     	;# 
   308  000F                     	;# 
   309  0010                     	;# 
   310  0011                     	;# 
   311  0012                     	;# 
   312  0013                     	;# 
   313  0014                     	;# 
   314  0015                     	;# 
   315  0015                     	;# 
   316  0016                     	;# 
   317  0017                     	;# 
   318  0018                     	;# 
   319  0019                     	;# 
   320  001A                     	;# 
   321  001B                     	;# 
   322  001B                     	;# 
   323  001C                     	;# 
   324  001D                     	;# 
   325  001E                     	;# 
   326  001F                     	;# 
   327  0081                     	;# 
   328  0085                     	;# 
   329  0086                     	;# 
   330  0087                     	;# 
   331  0088                     	;# 
   332  0089                     	;# 
   333  008C                     	;# 
   334  008D                     	;# 
   335  008E                     	;# 
   336  008F                     	;# 
   337  0090                     	;# 
   338  0091                     	;# 
   339  0092                     	;# 
   340  0093                     	;# 
   341  0093                     	;# 
   342  0093                     	;# 
   343  0094                     	;# 
   344  0095                     	;# 
   345  0096                     	;# 
   346  0097                     	;# 
   347  0098                     	;# 
   348  0099                     	;# 
   349  009A                     	;# 
   350  009B                     	;# 
   351  009C                     	;# 
   352  009D                     	;# 
   353  009E                     	;# 
   354  009F                     	;# 
   355  0105                     	;# 
   356  0107                     	;# 
   357  0108                     	;# 
   358  0109                     	;# 
   359  010C                     	;# 
   360  010C                     	;# 
   361  010D                     	;# 
   362  010E                     	;# 
   363  010F                     	;# 
   364  0185                     	;# 
   365  0187                     	;# 
   366  0188                     	;# 
   367  0189                     	;# 
   368  018C                     	;# 
   369  018D                     	;# 
   370  0000                     	;# 
   371  0001                     	;# 
   372  0002                     	;# 
   373  0003                     	;# 
   374  0004                     	;# 
   375  0005                     	;# 
   376  0006                     	;# 
   377  0007                     	;# 
   378  0008                     	;# 
   379  0009                     	;# 
   380  000A                     	;# 
   381  000B                     	;# 
   382  000C                     	;# 
   383  000D                     	;# 
   384  000E                     	;# 
   385  000E                     	;# 
   386  000F                     	;# 
   387  0010                     	;# 
   388  0011                     	;# 
   389  0012                     	;# 
   390  0013                     	;# 
   391  0014                     	;# 
   392  0015                     	;# 
   393  0015                     	;# 
   394  0016                     	;# 
   395  0017                     	;# 
   396  0018                     	;# 
   397  0019                     	;# 
   398  001A                     	;# 
   399  001B                     	;# 
   400  001B                     	;# 
   401  001C                     	;# 
   402  001D                     	;# 
   403  001E                     	;# 
   404  001F                     	;# 
   405  0081                     	;# 
   406  0085                     	;# 
   407  0086                     	;# 
   408  0087                     	;# 
   409  0088                     	;# 
   410  0089                     	;# 
   411  008C                     	;# 
   412  008D                     	;# 
   413  008E                     	;# 
   414  008F                     	;# 
   415  0090                     	;# 
   416  0091                     	;# 
   417  0092                     	;# 
   418  0093                     	;# 
   419  0093                     	;# 
   420  0093                     	;# 
   421  0094                     	;# 
   422  0095                     	;# 
   423  0096                     	;# 
   424  0097                     	;# 
   425  0098                     	;# 
   426  0099                     	;# 
   427  009A                     	;# 
   428  009B                     	;# 
   429  009C                     	;# 
   430  009D                     	;# 
   431  009E                     	;# 
   432  009F                     	;# 
   433  0105                     	;# 
   434  0107                     	;# 
   435  0108                     	;# 
   436  0109                     	;# 
   437  010C                     	;# 
   438  010C                     	;# 
   439  010D                     	;# 
   440  010E                     	;# 
   441  010F                     	;# 
   442  0185                     	;# 
   443  0187                     	;# 
   444  0188                     	;# 
   445  0189                     	;# 
   446  018C                     	;# 
   447  018D                     	;# 
   448  0000                     	;# 
   449  0001                     	;# 
   450  0002                     	;# 
   451  0003                     	;# 
   452  0004                     	;# 
   453  0005                     	;# 
   454  0006                     	;# 
   455  0007                     	;# 
   456  0008                     	;# 
   457  0009                     	;# 
   458  000A                     	;# 
   459  000B                     	;# 
   460  000C                     	;# 
   461  000D                     	;# 
   462  000E                     	;# 
   463  000E                     	;# 
   464  000F                     	;# 
   465  0010                     	;# 
   466  0011                     	;# 
   467  0012                     	;# 
   468  0013                     	;# 
   469  0014                     	;# 
   470  0015                     	;# 
   471  0015                     	;# 
   472  0016                     	;# 
   473  0017                     	;# 
   474  0018                     	;# 
   475  0019                     	;# 
   476  001A                     	;# 
   477  001B                     	;# 
   478  001B                     	;# 
   479  001C                     	;# 
   480  001D                     	;# 
   481  001E                     	;# 
   482  001F                     	;# 
   483  0081                     	;# 
   484  0085                     	;# 
   485  0086                     	;# 
   486  0087                     	;# 
   487  0088                     	;# 
   488  0089                     	;# 
   489  008C                     	;# 
   490  008D                     	;# 
   491  008E                     	;# 
   492  008F                     	;# 
   493  0090                     	;# 
   494  0091                     	;# 
   495  0092                     	;# 
   496  0093                     	;# 
   497  0093                     	;# 
   498  0093                     	;# 
   499  0094                     	;# 
   500  0095                     	;# 
   501  0096                     	;# 
   502  0097                     	;# 
   503  0098                     	;# 
   504  0099                     	;# 
   505  009A                     	;# 
   506  009B                     	;# 
   507  009C                     	;# 
   508  009D                     	;# 
   509  009E                     	;# 
   510  009F                     	;# 
   511  0105                     	;# 
   512  0107                     	;# 
   513  0108                     	;# 
   514  0109                     	;# 
   515  010C                     	;# 
   516  010C                     	;# 
   517  010D                     	;# 
   518  010E                     	;# 
   519  010F                     	;# 
   520  0185                     	;# 
   521  0187                     	;# 
   522  0188                     	;# 
   523  0189                     	;# 
   524  018C                     	;# 
   525  018D                     	;# 
   526  0018                     _RCSTAbits	set	24
   527  0008                     _PORTDbits	set	8
   528  0009                     _PORTE	set	9
   529  0008                     _PORTD	set	8
   530  0007                     _PORTC	set	7
   531  0005                     _PORTA	set	5
   532  001F                     _ADCON0bits	set	31
   533  001A                     _RCREG	set	26
   534  0006                     _PORTB	set	6
   535  001E                     _ADRESH	set	30
   536  000C                     _PIR1bits	set	12
   537  0001                     _TMR0	set	1
   538  000B                     _INTCONbits	set	11
   539  009A                     _SPBRGH	set	154
   540  0099                     _SPBRG	set	153
   541  0098                     _TXSTAbits	set	152
   542  008F                     _OSCCONbits	set	143
   543  009F                     _ADCON1	set	159
   544  0081                     _OPTION_REG	set	129
   545  008C                     _PIE1bits	set	140
   546  0089                     _TRISE	set	137
   547  0088                     _TRISD	set	136
   548  0087                     _TRISC	set	135
   549  0086                     _TRISB	set	134
   550  0085                     _TRISA	set	133
   551  0105                     _WDTCON	set	261
   552  0187                     _BAUDCTLbits	set	391
   553  0189                     _ANSELH	set	393
   554  0188                     _ANSELbits	set	392
   555  0188                     _ANSEL	set	392
   556                           
   557                           	psect	cinit
   558  0011                     start_initialization:	
   559                           ; #config settings
   560                           
   561  0011                     __initialization:
   562                           
   563                           ; Clear objects allocated to COMMON
   564  0011  01F8               	clrf	__pbssCOMMON& (0+127)
   565  0012  01F9               	clrf	(__pbssCOMMON+1)& (0+127)
   566  0013  01FA               	clrf	(__pbssCOMMON+2)& (0+127)
   567  0014  01FB               	clrf	(__pbssCOMMON+3)& (0+127)
   568  0015  01FC               	clrf	(__pbssCOMMON+4)& (0+127)
   569                           
   570                           ; Clear objects allocated to BANK0
   571  0016  1283               	bcf	3,5	;RP0=0, select bank0
   572  0017  1303               	bcf	3,6	;RP1=0, select bank0
   573  0018  01A7               	clrf	__pbssBANK0& (0+127)
   574  0019                     end_of_initialization:	
   575                           ;End of C runtime variable initialization code
   576                           
   577  0019                     __end_of__initialization:
   578  0019  0183               	clrf	3
   579  001A  120A  118A  2B39   	ljmp	_main	;jump to C main() function
   580                           
   581                           	psect	bssCOMMON
   582  0078                     __pbssCOMMON:
   583  0078                     _FLAGADC:
   584  0078                     	ds	1
   585  0079                     _RECEPCION:
   586  0079                     	ds	1
   587  007A                     _TOGGLE:
   588  007A                     	ds	1
   589  007B                     _VAR_ADC2:
   590  007B                     	ds	1
   591  007C                     _VAR_ADC1:
   592  007C                     	ds	1
   593                           
   594                           	psect	bssBANK0
   595  0027                     __pbssBANK0:
   596  0027                     _CONTADOR:
   597  0027                     	ds	1
   598                           
   599                           	psect	cstackCOMMON
   600  0070                     __pcstackCOMMON:
   601  0070                     ?_Setup:
   602  0070                     ?_initOsc:	
   603                           ; 1 bytes @ 0x0
   604                           
   605  0070                     ?_initUART:	
   606                           ; 1 bytes @ 0x0
   607                           
   608  0070                     ?_Lcd_Init:	
   609                           ; 1 bytes @ 0x0
   610                           
   611  0070                     ?_isr:	
   612                           ; 1 bytes @ 0x0
   613                           
   614  0070                     ?_main:	
   615                           ; 1 bytes @ 0x0
   616                           
   617  0070                     ?_Lcd_Port:	
   618                           ; 1 bytes @ 0x0
   619                           
   620  0070                     ?_Lcd_Cmd:	
   621                           ; 1 bytes @ 0x0
   622                           
   623  0070                     ?i1_initADC:	
   624                           ; 1 bytes @ 0x0
   625                           
   626  0070                     i1initADC@CHS:	
   627                           ; 1 bytes @ 0x0
   628                           
   629                           
   630                           ; 1 bytes @ 0x0
   631  0070                     	ds	1
   632  0071                     ??i1_initADC:
   633                           
   634                           ; 1 bytes @ 0x1
   635  0071                     	ds	2
   636  0073                     i1initADC@ADCS:
   637                           
   638                           ; 1 bytes @ 0x3
   639  0073                     	ds	1
   640  0074                     ??_isr:
   641                           
   642                           ; 1 bytes @ 0x4
   643  0074                     	ds	4
   644                           
   645                           	psect	cstackBANK0
   646  0020                     __pcstackBANK0:
   647  0020                     ?_initADC:
   648  0020                     ??_initOsc:	
   649                           ; 1 bytes @ 0x0
   650                           
   651  0020                     ??_initUART:	
   652                           ; 1 bytes @ 0x0
   653                           
   654  0020                     ??_Lcd_Port:	
   655                           ; 1 bytes @ 0x0
   656                           
   657  0020                     initADC@CHS:	
   658                           ; 1 bytes @ 0x0
   659                           
   660  0020                     Lcd_Port@a:	
   661                           ; 1 bytes @ 0x0
   662                           
   663                           
   664                           ; 1 bytes @ 0x0
   665  0020                     	ds	1
   666  0021                     ??_initADC:
   667  0021                     ??_Lcd_Cmd:	
   668                           ; 1 bytes @ 0x1
   669                           
   670                           
   671                           ; 1 bytes @ 0x1
   672  0021                     	ds	1
   673  0022                     initOsc@IRCF:
   674                           
   675                           ; 1 bytes @ 0x2
   676  0022                     	ds	1
   677  0023                     initADC@ADCS:
   678  0023                     Lcd_Cmd@a:	
   679                           ; 1 bytes @ 0x3
   680                           
   681                           
   682                           ; 1 bytes @ 0x3
   683  0023                     	ds	1
   684  0024                     ??_Lcd_Init:
   685                           
   686                           ; 1 bytes @ 0x4
   687  0024                     	ds	2
   688  0026                     ??_Setup:
   689                           
   690                           ; 1 bytes @ 0x6
   691  0026                     	ds	1
   692  0027                     ??_main:
   693                           
   694                           	psect	maintext
   695  0339                     __pmaintext:	
   696                           ; 1 bytes @ 0x7
   697 ;;
   698 ;;Main: autosize = 0, tempsize = 0, incstack = 0, save=0
   699 ;;
   700 ;; *************** function _main *****************
   701 ;; Defined at:
   702 ;;		line 99 in file "code.c"
   703 ;; Parameters:    Size  Location     Type
   704 ;;		None
   705 ;; Auto vars:     Size  Location     Type
   706 ;;		None
   707 ;; Return value:  Size  Location     Type
   708 ;;                  1    wreg      void 
   709 ;; Registers used:
   710 ;;		wreg, fsr0l, fsr0h, status,2, status,0, pclath, cstack
   711 ;; Tracked objects:
   712 ;;		On entry : B00/0
   713 ;;		On exit  : 0/0
   714 ;;		Unchanged: 0/0
   715 ;; Data sizes:     COMMON   BANK0   BANK1   BANK3   BANK2
   716 ;;      Params:         0       0       0       0       0
   717 ;;      Locals:         0       0       0       0       0
   718 ;;      Temps:          0       0       0       0       0
   719 ;;      Totals:         0       0       0       0       0
   720 ;;Total ram usage:        0 bytes
   721 ;; Hardware stack levels required when called:    6
   722 ;; This function calls:
   723 ;;		_Setup
   724 ;; This function is called by:
   725 ;;		Startup code after reset
   726 ;; This function uses a non-reentrant model
   727 ;;
   728                           
   729                           
   730                           ;psect for function _main
   731  0339                     _main:
   732  0339                     l1283:	
   733                           ;incstack = 0
   734                           ; Regs used in _main: [wreg-fsr0h+status,2+status,0+pclath+cstack]
   735                           
   736                           
   737                           ;code.c: 100:     Setup();
   738  0339  120A  118A  22CA  120A  118A  	fcall	_Setup
   739  033E                     l1285:
   740                           
   741                           ;code.c: 104:         if(CONTADOR>10){
   742  033E  300B               	movlw	11
   743  033F  1283               	bcf	3,5	;RP0=0, select bank0
   744  0340  1303               	bcf	3,6	;RP1=0, select bank0
   745  0341  0227               	subwf	_CONTADOR,w
   746  0342  1C03               	skipc
   747  0343  2B45               	goto	u131
   748  0344  2B46               	goto	u130
   749  0345                     u131:
   750  0345  2B3E               	goto	l1285
   751  0346                     u130:
   752  0346                     l1287:
   753                           
   754                           ;code.c: 105:             ADCON0bits.GO_nDONE = 1;
   755  0346  149F               	bsf	31,1	;volatile
   756  0347                     l1289:
   757                           
   758                           ;code.c: 106:             CONTADOR = 0;
   759  0347  01A7               	clrf	_CONTADOR
   760  0348  2B3E               	goto	l1285
   761  0349  120A  118A  280E   	ljmp	start
   762  034C                     __end_of_main:
   763                           
   764                           	psect	text1
   765  02CA                     __ptext1:	
   766 ;; *************** function _Setup *****************
   767 ;; Defined at:
   768 ;;		line 114 in file "code.c"
   769 ;; Parameters:    Size  Location     Type
   770 ;;		None
   771 ;; Auto vars:     Size  Location     Type
   772 ;;		None
   773 ;; Return value:  Size  Location     Type
   774 ;;                  1    wreg      void 
   775 ;; Registers used:
   776 ;;		wreg, fsr0l, fsr0h, status,2, status,0, pclath, cstack
   777 ;; Tracked objects:
   778 ;;		On entry : 0/0
   779 ;;		On exit  : 0/0
   780 ;;		Unchanged: 0/0
   781 ;; Data sizes:     COMMON   BANK0   BANK1   BANK3   BANK2
   782 ;;      Params:         0       0       0       0       0
   783 ;;      Locals:         0       0       0       0       0
   784 ;;      Temps:          0       1       0       0       0
   785 ;;      Totals:         0       1       0       0       0
   786 ;;Total ram usage:        1 bytes
   787 ;; Hardware stack levels used:    1
   788 ;; Hardware stack levels required when called:    5
   789 ;; This function calls:
   790 ;;		_Lcd_Init
   791 ;;		_initADC
   792 ;;		_initOsc
   793 ;;		_initUART
   794 ;; This function is called by:
   795 ;;		_main
   796 ;; This function uses a non-reentrant model
   797 ;;
   798                           
   799                           
   800                           ;psect for function _Setup
   801  02CA                     _Setup:
   802  02CA                     l1185:	
   803                           ;incstack = 0
   804                           ; Regs used in _Setup: [wreg-fsr0h+status,2+status,0+pclath+cstack]
   805                           
   806                           
   807                           ;code.c: 116:     PORTA = 0;
   808  02CA  1283               	bcf	3,5	;RP0=0, select bank0
   809  02CB  1303               	bcf	3,6	;RP1=0, select bank0
   810  02CC  0185               	clrf	5	;volatile
   811                           
   812                           ;code.c: 117:     PORTB = 0;
   813  02CD  0186               	clrf	6	;volatile
   814                           
   815                           ;code.c: 118:     PORTC = 0;
   816  02CE  0187               	clrf	7	;volatile
   817                           
   818                           ;code.c: 119:     PORTD = 0;
   819  02CF  0188               	clrf	8	;volatile
   820                           
   821                           ;code.c: 120:     PORTE = 0;
   822  02D0  0189               	clrf	9	;volatile
   823                           
   824                           ;code.c: 122:     ANSEL = 0;
   825  02D1  1683               	bsf	3,5	;RP0=1, select bank3
   826  02D2  1703               	bsf	3,6	;RP1=1, select bank3
   827  02D3  0188               	clrf	8	;volatile
   828  02D4                     l1187:
   829                           
   830                           ;code.c: 123:     ANSELbits.ANS5 = 1;
   831  02D4  1688               	bsf	8,5	;volatile
   832  02D5                     l1189:
   833                           
   834                           ;code.c: 124:     ANSELbits.ANS6 = 1;
   835  02D5  1708               	bsf	8,6	;volatile
   836                           
   837                           ;code.c: 125:     ANSELH = 0;
   838  02D6  0189               	clrf	9	;volatile
   839                           
   840                           ;code.c: 127:     TRISA = 0;
   841  02D7  1683               	bsf	3,5	;RP0=1, select bank1
   842  02D8  1303               	bcf	3,6	;RP1=0, select bank1
   843  02D9  0185               	clrf	5	;volatile
   844                           
   845                           ;code.c: 128:     TRISB = 0;
   846  02DA  0186               	clrf	6	;volatile
   847                           
   848                           ;code.c: 129:     TRISC = 0;
   849  02DB  0187               	clrf	7	;volatile
   850                           
   851                           ;code.c: 130:     TRISD = 0;
   852  02DC  0188               	clrf	8	;volatile
   853  02DD                     l1191:
   854                           
   855                           ;code.c: 131:     TRISE = 3;
   856  02DD  3003               	movlw	3
   857  02DE  0089               	movwf	9	;volatile
   858  02DF                     l1193:
   859                           
   860                           ;code.c: 134:     INTCONbits.GIE = 1;
   861  02DF  178B               	bsf	11,7	;volatile
   862  02E0                     l1195:
   863                           
   864                           ;code.c: 135:     INTCONbits.PEIE = 1;
   865  02E0  170B               	bsf	11,6	;volatile
   866  02E1                     l1197:
   867                           
   868                           ;code.c: 136:     INTCONbits.T0IE = 1;
   869  02E1  168B               	bsf	11,5	;volatile
   870  02E2                     l1199:
   871                           
   872                           ;code.c: 137:     INTCONbits.T0IF = 0;
   873  02E2  110B               	bcf	11,2	;volatile
   874  02E3                     l1201:
   875                           
   876                           ;code.c: 138:     PIE1bits.ADIE = 1;
   877  02E3  170C               	bsf	12,6	;volatile
   878  02E4                     l1203:
   879                           
   880                           ;code.c: 139:     PIE1bits.RCIE = 1;
   881  02E4  168C               	bsf	12,5	;volatile
   882  02E5                     l1205:
   883                           
   884                           ;code.c: 142:     initOsc(6);
   885  02E5  3006               	movlw	6
   886  02E6  120A  118A  21CC  120A  118A  	fcall	_initOsc
   887  02EB                     l1207:
   888                           
   889                           ;code.c: 144:     initADC(2,5);
   890  02EB  3005               	movlw	5
   891  02EC  1283               	bcf	3,5	;RP0=0, select bank0
   892  02ED  1303               	bcf	3,6	;RP1=0, select bank0
   893  02EE  00A6               	movwf	??_Setup
   894  02EF  0826               	movf	??_Setup,w
   895  02F0  00A0               	movwf	initADC@CHS
   896  02F1  3002               	movlw	2
   897  02F2  120A  118A  2104  120A  118A  	fcall	_initADC
   898  02F7                     l1209:
   899                           
   900                           ;code.c: 146:     initUART();
   901  02F7  120A  118A  2325  120A  118A  	fcall	_initUART
   902  02FC                     l1211:
   903                           
   904                           ;code.c: 148:     Lcd_Init();
   905  02FC  120A  118A  227E  120A  118A  	fcall	_Lcd_Init
   906  0301                     l1213:
   907                           
   908                           ;code.c: 150:     WDTCON = 0;
   909  0301  1283               	bcf	3,5	;RP0=0, select bank2
   910  0302  1703               	bsf	3,6	;RP1=1, select bank2
   911  0303  0185               	clrf	5	;volatile
   912                           
   913                           ;code.c: 151:     OPTION_REG = 0b11010111;
   914  0304  30D7               	movlw	215
   915  0305  1683               	bsf	3,5	;RP0=1, select bank1
   916  0306  1303               	bcf	3,6	;RP1=0, select bank1
   917  0307  0081               	movwf	1	;volatile
   918  0308                     l96:
   919  0308  0008               	return
   920  0309                     __end_of_Setup:
   921                           
   922                           	psect	text2
   923  0325                     __ptext2:	
   924 ;; *************** function _initUART *****************
   925 ;; Defined at:
   926 ;;		line 6 in file "E:/UVG/Semestre 5/Digital2/Lab3/Lab3.X/USART.c"
   927 ;; Parameters:    Size  Location     Type
   928 ;;		None
   929 ;; Auto vars:     Size  Location     Type
   930 ;;		None
   931 ;; Return value:  Size  Location     Type
   932 ;;                  1    wreg      void 
   933 ;; Registers used:
   934 ;;		wreg, status,2
   935 ;; Tracked objects:
   936 ;;		On entry : 0/0
   937 ;;		On exit  : 0/0
   938 ;;		Unchanged: 0/0
   939 ;; Data sizes:     COMMON   BANK0   BANK1   BANK3   BANK2
   940 ;;      Params:         0       0       0       0       0
   941 ;;      Locals:         0       0       0       0       0
   942 ;;      Temps:          0       0       0       0       0
   943 ;;      Totals:         0       0       0       0       0
   944 ;;Total ram usage:        0 bytes
   945 ;; Hardware stack levels used:    1
   946 ;; Hardware stack levels required when called:    2
   947 ;; This function calls:
   948 ;;		Nothing
   949 ;; This function is called by:
   950 ;;		_Setup
   951 ;; This function uses a non-reentrant model
   952 ;;
   953                           
   954                           
   955                           ;psect for function _initUART
   956  0325                     _initUART:
   957  0325                     l1161:	
   958                           ;incstack = 0
   959                           ; Regs used in _initUART: [wreg+status,2]
   960                           
   961                           
   962                           ;E:/UVG/Semestre 5/Digital2/Lab3/Lab3.X/USART.c: 8:     TXSTAbits.TX9 = 0;
   963  0325  1683               	bsf	3,5	;RP0=1, select bank1
   964  0326  1303               	bcf	3,6	;RP1=0, select bank1
   965  0327  1318               	bcf	24,6	;volatile
   966                           
   967                           ;E:/UVG/Semestre 5/Digital2/Lab3/Lab3.X/USART.c: 9:     TXSTAbits.SYNC = 0;
   968  0328  1218               	bcf	24,4	;volatile
   969                           
   970                           ;E:/UVG/Semestre 5/Digital2/Lab3/Lab3.X/USART.c: 10:     TXSTAbits.BRGH = 1;
   971  0329  1518               	bsf	24,2	;volatile
   972                           
   973                           ;E:/UVG/Semestre 5/Digital2/Lab3/Lab3.X/USART.c: 11:     BAUDCTLbits.BRG16 = 0;
   974  032A  1683               	bsf	3,5	;RP0=1, select bank3
   975  032B  1703               	bsf	3,6	;RP1=1, select bank3
   976  032C  1187               	bcf	7,3	;volatile
   977  032D                     l1163:
   978                           
   979                           ;E:/UVG/Semestre 5/Digital2/Lab3/Lab3.X/USART.c: 12:     SPBRG = 25;
   980  032D  3019               	movlw	25
   981  032E  1683               	bsf	3,5	;RP0=1, select bank1
   982  032F  1303               	bcf	3,6	;RP1=0, select bank1
   983  0330  0099               	movwf	25	;volatile
   984  0331                     l1165:
   985                           
   986                           ;E:/UVG/Semestre 5/Digital2/Lab3/Lab3.X/USART.c: 13:     SPBRGH = 0;
   987  0331  019A               	clrf	26	;volatile
   988  0332                     l1167:
   989                           
   990                           ;E:/UVG/Semestre 5/Digital2/Lab3/Lab3.X/USART.c: 14:     TXSTAbits.TXEN = 1;
   991  0332  1698               	bsf	24,5	;volatile
   992  0333                     l1169:
   993                           
   994                           ;E:/UVG/Semestre 5/Digital2/Lab3/Lab3.X/USART.c: 17:     RCSTAbits.SPEN = 1;
   995  0333  1283               	bcf	3,5	;RP0=0, select bank0
   996  0334  1303               	bcf	3,6	;RP1=0, select bank0
   997  0335  1798               	bsf	24,7	;volatile
   998  0336                     l1171:
   999                           
  1000                           ;E:/UVG/Semestre 5/Digital2/Lab3/Lab3.X/USART.c: 18:     RCSTAbits.RX9 = 0;
  1001  0336  1318               	bcf	24,6	;volatile
  1002  0337                     l1173:
  1003                           
  1004                           ;E:/UVG/Semestre 5/Digital2/Lab3/Lab3.X/USART.c: 19:     RCSTAbits.CREN = 1;
  1005  0337  1618               	bsf	24,4	;volatile
  1006  0338                     l205:
  1007  0338  0008               	return
  1008  0339                     __end_of_initUART:
  1009                           
  1010                           	psect	text3
  1011  01CC                     __ptext3:	
  1012 ;; *************** function _initOsc *****************
  1013 ;; Defined at:
  1014 ;;		line 6 in file "E:/UVG/Semestre 5/Digital2/Lab3/Lab3.X/Oscilador.c"
  1015 ;; Parameters:    Size  Location     Type
  1016 ;;  IRCF            1    wreg     unsigned char 
  1017 ;; Auto vars:     Size  Location     Type
  1018 ;;  IRCF            1    2[BANK0 ] unsigned char 
  1019 ;; Return value:  Size  Location     Type
  1020 ;;                  1    wreg      void 
  1021 ;; Registers used:
  1022 ;;		wreg, fsr0l, fsr0h, status,2, status,0
  1023 ;; Tracked objects:
  1024 ;;		On entry : 0/0
  1025 ;;		On exit  : 0/0
  1026 ;;		Unchanged: 0/0
  1027 ;; Data sizes:     COMMON   BANK0   BANK1   BANK3   BANK2
  1028 ;;      Params:         0       0       0       0       0
  1029 ;;      Locals:         0       1       0       0       0
  1030 ;;      Temps:          0       2       0       0       0
  1031 ;;      Totals:         0       3       0       0       0
  1032 ;;Total ram usage:        3 bytes
  1033 ;; Hardware stack levels used:    1
  1034 ;; Hardware stack levels required when called:    2
  1035 ;; This function calls:
  1036 ;;		Nothing
  1037 ;; This function is called by:
  1038 ;;		_Setup
  1039 ;; This function uses a non-reentrant model
  1040 ;;
  1041                           
  1042                           
  1043                           ;psect for function _initOsc
  1044  01CC                     _initOsc:
  1045                           
  1046                           ;incstack = 0
  1047                           ; Regs used in _initOsc: [wreg-fsr0h+status,2+status,0]
  1048                           ;initOsc@IRCF stored from wreg
  1049  01CC  1283               	bcf	3,5	;RP0=0, select bank0
  1050  01CD  1303               	bcf	3,6	;RP1=0, select bank0
  1051  01CE  00A2               	movwf	initOsc@IRCF
  1052  01CF                     l1149:
  1053                           
  1054                           ;E:/UVG/Semestre 5/Digital2/Lab3/Lab3.X/Oscilador.c: 8:     switch(IRCF){
  1055  01CF  2A06               	goto	l1153
  1056  01D0                     l182:	
  1057                           ;E:/UVG/Semestre 5/Digital2/Lab3/Lab3.X/Oscilador.c: 9:         case 0:
  1058                           
  1059                           
  1060                           ;E:/UVG/Semestre 5/Digital2/Lab3/Lab3.X/Oscilador.c: 10:             OSCCONbits.IRCF2 = 
      +                          0;
  1061  01D0  1683               	bsf	3,5	;RP0=1, select bank1
  1062  01D1  1303               	bcf	3,6	;RP1=0, select bank1
  1063  01D2  130F               	bcf	15,6	;volatile
  1064                           
  1065                           ;E:/UVG/Semestre 5/Digital2/Lab3/Lab3.X/Oscilador.c: 11:             OSCCONbits.IRCF1 = 
      +                          0;
  1066  01D3  128F               	bcf	15,5	;volatile
  1067                           
  1068                           ;E:/UVG/Semestre 5/Digital2/Lab3/Lab3.X/Oscilador.c: 12:             OSCCONbits.IRCF0 = 
      +                          0;
  1069  01D4  120F               	bcf	15,4	;volatile
  1070                           
  1071                           ;E:/UVG/Semestre 5/Digital2/Lab3/Lab3.X/Oscilador.c: 13:             break;
  1072  01D5  2A28               	goto	l183
  1073  01D6                     l184:	
  1074                           ;E:/UVG/Semestre 5/Digital2/Lab3/Lab3.X/Oscilador.c: 14:         case 1:
  1075                           
  1076                           
  1077                           ;E:/UVG/Semestre 5/Digital2/Lab3/Lab3.X/Oscilador.c: 15:             OSCCONbits.IRCF2 = 
      +                          0;
  1078  01D6  1683               	bsf	3,5	;RP0=1, select bank1
  1079  01D7  1303               	bcf	3,6	;RP1=0, select bank1
  1080  01D8  130F               	bcf	15,6	;volatile
  1081                           
  1082                           ;E:/UVG/Semestre 5/Digital2/Lab3/Lab3.X/Oscilador.c: 16:             OSCCONbits.IRCF1 = 
      +                          0;
  1083  01D9  128F               	bcf	15,5	;volatile
  1084                           
  1085                           ;E:/UVG/Semestre 5/Digital2/Lab3/Lab3.X/Oscilador.c: 17:             OSCCONbits.IRCF0 = 
      +                          1;
  1086  01DA  160F               	bsf	15,4	;volatile
  1087                           
  1088                           ;E:/UVG/Semestre 5/Digital2/Lab3/Lab3.X/Oscilador.c: 18:             break;
  1089  01DB  2A28               	goto	l183
  1090  01DC                     l185:	
  1091                           ;E:/UVG/Semestre 5/Digital2/Lab3/Lab3.X/Oscilador.c: 19:         case 2:
  1092                           
  1093                           
  1094                           ;E:/UVG/Semestre 5/Digital2/Lab3/Lab3.X/Oscilador.c: 20:             OSCCONbits.IRCF2 = 
      +                          0;
  1095  01DC  1683               	bsf	3,5	;RP0=1, select bank1
  1096  01DD  1303               	bcf	3,6	;RP1=0, select bank1
  1097  01DE  130F               	bcf	15,6	;volatile
  1098                           
  1099                           ;E:/UVG/Semestre 5/Digital2/Lab3/Lab3.X/Oscilador.c: 21:             OSCCONbits.IRCF1 = 
      +                          1;
  1100  01DF  168F               	bsf	15,5	;volatile
  1101                           
  1102                           ;E:/UVG/Semestre 5/Digital2/Lab3/Lab3.X/Oscilador.c: 22:             OSCCONbits.IRCF0 = 
      +                          0;
  1103  01E0  120F               	bcf	15,4	;volatile
  1104                           
  1105                           ;E:/UVG/Semestre 5/Digital2/Lab3/Lab3.X/Oscilador.c: 23:             break;
  1106  01E1  2A28               	goto	l183
  1107  01E2                     l186:	
  1108                           ;E:/UVG/Semestre 5/Digital2/Lab3/Lab3.X/Oscilador.c: 24:         case 3:
  1109                           
  1110                           
  1111                           ;E:/UVG/Semestre 5/Digital2/Lab3/Lab3.X/Oscilador.c: 25:             OSCCONbits.IRCF2 = 
      +                          0;
  1112  01E2  1683               	bsf	3,5	;RP0=1, select bank1
  1113  01E3  1303               	bcf	3,6	;RP1=0, select bank1
  1114  01E4  130F               	bcf	15,6	;volatile
  1115                           
  1116                           ;E:/UVG/Semestre 5/Digital2/Lab3/Lab3.X/Oscilador.c: 26:             OSCCONbits.IRCF1 = 
      +                          1;
  1117  01E5  168F               	bsf	15,5	;volatile
  1118                           
  1119                           ;E:/UVG/Semestre 5/Digital2/Lab3/Lab3.X/Oscilador.c: 27:             OSCCONbits.IRCF0 = 
      +                          1;
  1120  01E6  160F               	bsf	15,4	;volatile
  1121                           
  1122                           ;E:/UVG/Semestre 5/Digital2/Lab3/Lab3.X/Oscilador.c: 28:             break;
  1123  01E7  2A28               	goto	l183
  1124  01E8                     l187:	
  1125                           ;E:/UVG/Semestre 5/Digital2/Lab3/Lab3.X/Oscilador.c: 29:         case 4:
  1126                           
  1127                           
  1128                           ;E:/UVG/Semestre 5/Digital2/Lab3/Lab3.X/Oscilador.c: 30:             OSCCONbits.IRCF2 = 
      +                          1;
  1129  01E8  1683               	bsf	3,5	;RP0=1, select bank1
  1130  01E9  1303               	bcf	3,6	;RP1=0, select bank1
  1131  01EA  170F               	bsf	15,6	;volatile
  1132                           
  1133                           ;E:/UVG/Semestre 5/Digital2/Lab3/Lab3.X/Oscilador.c: 31:             OSCCONbits.IRCF1 = 
      +                          0;
  1134  01EB  128F               	bcf	15,5	;volatile
  1135                           
  1136                           ;E:/UVG/Semestre 5/Digital2/Lab3/Lab3.X/Oscilador.c: 32:             OSCCONbits.IRCF0 = 
      +                          0;
  1137  01EC  120F               	bcf	15,4	;volatile
  1138                           
  1139                           ;E:/UVG/Semestre 5/Digital2/Lab3/Lab3.X/Oscilador.c: 33:             break;
  1140  01ED  2A28               	goto	l183
  1141  01EE                     l188:	
  1142                           ;E:/UVG/Semestre 5/Digital2/Lab3/Lab3.X/Oscilador.c: 34:         case 5:
  1143                           
  1144                           
  1145                           ;E:/UVG/Semestre 5/Digital2/Lab3/Lab3.X/Oscilador.c: 35:             OSCCONbits.IRCF2 = 
      +                          1;
  1146  01EE  1683               	bsf	3,5	;RP0=1, select bank1
  1147  01EF  1303               	bcf	3,6	;RP1=0, select bank1
  1148  01F0  170F               	bsf	15,6	;volatile
  1149                           
  1150                           ;E:/UVG/Semestre 5/Digital2/Lab3/Lab3.X/Oscilador.c: 36:             OSCCONbits.IRCF1 = 
      +                          0;
  1151  01F1  128F               	bcf	15,5	;volatile
  1152                           
  1153                           ;E:/UVG/Semestre 5/Digital2/Lab3/Lab3.X/Oscilador.c: 37:             OSCCONbits.IRCF0 = 
      +                          1;
  1154  01F2  160F               	bsf	15,4	;volatile
  1155                           
  1156                           ;E:/UVG/Semestre 5/Digital2/Lab3/Lab3.X/Oscilador.c: 38:             break;
  1157  01F3  2A28               	goto	l183
  1158  01F4                     l189:	
  1159                           ;E:/UVG/Semestre 5/Digital2/Lab3/Lab3.X/Oscilador.c: 39:         case 6:
  1160                           
  1161                           
  1162                           ;E:/UVG/Semestre 5/Digital2/Lab3/Lab3.X/Oscilador.c: 40:             OSCCONbits.IRCF2 = 
      +                          1;
  1163  01F4  1683               	bsf	3,5	;RP0=1, select bank1
  1164  01F5  1303               	bcf	3,6	;RP1=0, select bank1
  1165  01F6  170F               	bsf	15,6	;volatile
  1166                           
  1167                           ;E:/UVG/Semestre 5/Digital2/Lab3/Lab3.X/Oscilador.c: 41:             OSCCONbits.IRCF1 = 
      +                          1;
  1168  01F7  168F               	bsf	15,5	;volatile
  1169                           
  1170                           ;E:/UVG/Semestre 5/Digital2/Lab3/Lab3.X/Oscilador.c: 42:             OSCCONbits.IRCF0 = 
      +                          0;
  1171  01F8  120F               	bcf	15,4	;volatile
  1172                           
  1173                           ;E:/UVG/Semestre 5/Digital2/Lab3/Lab3.X/Oscilador.c: 43:             break;
  1174  01F9  2A28               	goto	l183
  1175  01FA                     l190:	
  1176                           ;E:/UVG/Semestre 5/Digital2/Lab3/Lab3.X/Oscilador.c: 44:         case 7:
  1177                           
  1178                           
  1179                           ;E:/UVG/Semestre 5/Digital2/Lab3/Lab3.X/Oscilador.c: 45:             OSCCONbits.IRCF2 = 
      +                          1;
  1180  01FA  1683               	bsf	3,5	;RP0=1, select bank1
  1181  01FB  1303               	bcf	3,6	;RP1=0, select bank1
  1182  01FC  170F               	bsf	15,6	;volatile
  1183                           
  1184                           ;E:/UVG/Semestre 5/Digital2/Lab3/Lab3.X/Oscilador.c: 46:             OSCCONbits.IRCF1 = 
      +                          1;
  1185  01FD  168F               	bsf	15,5	;volatile
  1186                           
  1187                           ;E:/UVG/Semestre 5/Digital2/Lab3/Lab3.X/Oscilador.c: 47:             OSCCONbits.IRCF0 = 
      +                          1;
  1188  01FE  160F               	bsf	15,4	;volatile
  1189                           
  1190                           ;E:/UVG/Semestre 5/Digital2/Lab3/Lab3.X/Oscilador.c: 48:             break;
  1191  01FF  2A28               	goto	l183
  1192  0200                     l191:	
  1193                           ;E:/UVG/Semestre 5/Digital2/Lab3/Lab3.X/Oscilador.c: 49:         default:
  1194                           
  1195                           
  1196                           ;E:/UVG/Semestre 5/Digital2/Lab3/Lab3.X/Oscilador.c: 50:             OSCCONbits.IRCF2 = 
      +                          1;
  1197  0200  1683               	bsf	3,5	;RP0=1, select bank1
  1198  0201  1303               	bcf	3,6	;RP1=0, select bank1
  1199  0202  170F               	bsf	15,6	;volatile
  1200                           
  1201                           ;E:/UVG/Semestre 5/Digital2/Lab3/Lab3.X/Oscilador.c: 51:             OSCCONbits.IRCF1 = 
      +                          1;
  1202  0203  168F               	bsf	15,5	;volatile
  1203                           
  1204                           ;E:/UVG/Semestre 5/Digital2/Lab3/Lab3.X/Oscilador.c: 52:             OSCCONbits.IRCF0 = 
      +                          0;
  1205  0204  120F               	bcf	15,4	;volatile
  1206                           
  1207                           ;E:/UVG/Semestre 5/Digital2/Lab3/Lab3.X/Oscilador.c: 53:             break;
  1208  0205  2A28               	goto	l183
  1209  0206                     l1153:
  1210  0206  0822               	movf	initOsc@IRCF,w
  1211  0207  00A0               	movwf	??_initOsc
  1212  0208  01A1               	clrf	??_initOsc+1
  1213                           
  1214                           ; Switch on 2 bytes has been partitioned into a top level switch of size 1, and 1 sub-sw
      +                          itches
  1215                           ; Switch size 1, requested type "simple"
  1216                           ; Number of cases is 1, Range of values is 0 to 0
  1217                           ; switch strategies available:
  1218                           ; Name         Instructions Cycles
  1219                           ; simple_byte            4     3 (average)
  1220                           ; direct_byte           11     8 (fixed)
  1221                           ; jumptable            260     6 (fixed)
  1222                           ;	Chosen strategy is simple_byte
  1223  0209  0821               	movf	??_initOsc+1,w
  1224  020A  3A00               	xorlw	0	; case 0
  1225  020B  1903               	skipnz
  1226  020C  2A0E               	goto	l1461
  1227  020D  2A00               	goto	l191
  1228  020E                     l1461:
  1229                           
  1230                           ; Switch size 1, requested type "simple"
  1231                           ; Number of cases is 8, Range of values is 0 to 7
  1232                           ; switch strategies available:
  1233                           ; Name         Instructions Cycles
  1234                           ; simple_byte           25    13 (average)
  1235                           ; direct_byte           32     8 (fixed)
  1236                           ; jumptable            260     6 (fixed)
  1237                           ;	Chosen strategy is simple_byte
  1238  020E  0820               	movf	??_initOsc,w
  1239  020F  3A00               	xorlw	0	; case 0
  1240  0210  1903               	skipnz
  1241  0211  29D0               	goto	l182
  1242  0212  3A01               	xorlw	1	; case 1
  1243  0213  1903               	skipnz
  1244  0214  29D6               	goto	l184
  1245  0215  3A03               	xorlw	3	; case 2
  1246  0216  1903               	skipnz
  1247  0217  29DC               	goto	l185
  1248  0218  3A01               	xorlw	1	; case 3
  1249  0219  1903               	skipnz
  1250  021A  29E2               	goto	l186
  1251  021B  3A07               	xorlw	7	; case 4
  1252  021C  1903               	skipnz
  1253  021D  29E8               	goto	l187
  1254  021E  3A01               	xorlw	1	; case 5
  1255  021F  1903               	skipnz
  1256  0220  29EE               	goto	l188
  1257  0221  3A03               	xorlw	3	; case 6
  1258  0222  1903               	skipnz
  1259  0223  29F4               	goto	l189
  1260  0224  3A01               	xorlw	1	; case 7
  1261  0225  1903               	skipnz
  1262  0226  29FA               	goto	l190
  1263  0227  2A00               	goto	l191
  1264  0228                     l183:
  1265                           
  1266                           ;E:/UVG/Semestre 5/Digital2/Lab3/Lab3.X/Oscilador.c: 56:     OSCCONbits.SCS = 1;
  1267  0228  140F               	bsf	15,0	;volatile
  1268  0229                     l192:
  1269  0229  0008               	return
  1270  022A                     __end_of_initOsc:
  1271                           
  1272                           	psect	text4
  1273  0104                     __ptext4:	
  1274 ;; *************** function _initADC *****************
  1275 ;; Defined at:
  1276 ;;		line 6 in file "E:/UVG/Semestre 5/Digital2/Lab3/Lab3.X/ADC.c"
  1277 ;; Parameters:    Size  Location     Type
  1278 ;;  ADCS            1    wreg     unsigned char 
  1279 ;;  CHS             1    0[BANK0 ] unsigned char 
  1280 ;; Auto vars:     Size  Location     Type
  1281 ;;  ADCS            1    3[BANK0 ] unsigned char 
  1282 ;; Return value:  Size  Location     Type
  1283 ;;                  1    wreg      void 
  1284 ;; Registers used:
  1285 ;;		wreg, fsr0l, fsr0h, status,2, status,0
  1286 ;; Tracked objects:
  1287 ;;		On entry : 0/0
  1288 ;;		On exit  : 0/0
  1289 ;;		Unchanged: 0/0
  1290 ;; Data sizes:     COMMON   BANK0   BANK1   BANK3   BANK2
  1291 ;;      Params:         0       1       0       0       0
  1292 ;;      Locals:         0       1       0       0       0
  1293 ;;      Temps:          0       2       0       0       0
  1294 ;;      Totals:         0       4       0       0       0
  1295 ;;Total ram usage:        4 bytes
  1296 ;; Hardware stack levels used:    1
  1297 ;; Hardware stack levels required when called:    2
  1298 ;; This function calls:
  1299 ;;		Nothing
  1300 ;; This function is called by:
  1301 ;;		_Setup
  1302 ;; This function uses a non-reentrant model
  1303 ;;
  1304                           
  1305                           
  1306                           ;psect for function _initADC
  1307  0104                     _initADC:
  1308                           
  1309                           ;incstack = 0
  1310                           ; Regs used in _initADC: [wreg-fsr0h+status,2+status,0]
  1311                           ;initADC@ADCS stored from wreg
  1312  0104  1283               	bcf	3,5	;RP0=0, select bank0
  1313  0105  1303               	bcf	3,6	;RP1=0, select bank0
  1314  0106  00A3               	movwf	initADC@ADCS
  1315  0107                     l1123:
  1316                           
  1317                           ;E:/UVG/Semestre 5/Digital2/Lab3/Lab3.X/ADC.c: 8:     switch(CHS){
  1318  0107  295D               	goto	l1127
  1319  0108                     l112:	
  1320                           ;E:/UVG/Semestre 5/Digital2/Lab3/Lab3.X/ADC.c: 9:         case 0:
  1321                           
  1322                           
  1323                           ;E:/UVG/Semestre 5/Digital2/Lab3/Lab3.X/ADC.c: 10:             ADCON0bits.CHS3 = 0;
  1324  0108  129F               	bcf	31,5	;volatile
  1325                           
  1326                           ;E:/UVG/Semestre 5/Digital2/Lab3/Lab3.X/ADC.c: 11:             ADCON0bits.CHS2 = 0;
  1327  0109  121F               	bcf	31,4	;volatile
  1328                           
  1329                           ;E:/UVG/Semestre 5/Digital2/Lab3/Lab3.X/ADC.c: 12:             ADCON0bits.CHS1 = 0;
  1330  010A  119F               	bcf	31,3	;volatile
  1331                           
  1332                           ;E:/UVG/Semestre 5/Digital2/Lab3/Lab3.X/ADC.c: 13:             ADCON0bits.CHS0 = 0;
  1333  010B  111F               	bcf	31,2	;volatile
  1334                           
  1335                           ;E:/UVG/Semestre 5/Digital2/Lab3/Lab3.X/ADC.c: 14:             break;
  1336  010C  29A6               	goto	l1131
  1337  010D                     l114:	
  1338                           ;E:/UVG/Semestre 5/Digital2/Lab3/Lab3.X/ADC.c: 15:         case 1:
  1339                           
  1340                           
  1341                           ;E:/UVG/Semestre 5/Digital2/Lab3/Lab3.X/ADC.c: 16:             ADCON0bits.CHS3 = 0;
  1342  010D  129F               	bcf	31,5	;volatile
  1343                           
  1344                           ;E:/UVG/Semestre 5/Digital2/Lab3/Lab3.X/ADC.c: 17:             ADCON0bits.CHS2 = 0;
  1345  010E  121F               	bcf	31,4	;volatile
  1346                           
  1347                           ;E:/UVG/Semestre 5/Digital2/Lab3/Lab3.X/ADC.c: 18:             ADCON0bits.CHS1 = 0;
  1348  010F  119F               	bcf	31,3	;volatile
  1349                           
  1350                           ;E:/UVG/Semestre 5/Digital2/Lab3/Lab3.X/ADC.c: 19:             ADCON0bits.CHS0 = 1;
  1351  0110  151F               	bsf	31,2	;volatile
  1352                           
  1353                           ;E:/UVG/Semestre 5/Digital2/Lab3/Lab3.X/ADC.c: 20:             break;
  1354  0111  29A6               	goto	l1131
  1355  0112                     l115:	
  1356                           ;E:/UVG/Semestre 5/Digital2/Lab3/Lab3.X/ADC.c: 21:         case 2:
  1357                           
  1358                           
  1359                           ;E:/UVG/Semestre 5/Digital2/Lab3/Lab3.X/ADC.c: 22:             ADCON0bits.CHS3 = 0;
  1360  0112  129F               	bcf	31,5	;volatile
  1361                           
  1362                           ;E:/UVG/Semestre 5/Digital2/Lab3/Lab3.X/ADC.c: 23:             ADCON0bits.CHS2 = 0;
  1363  0113  121F               	bcf	31,4	;volatile
  1364                           
  1365                           ;E:/UVG/Semestre 5/Digital2/Lab3/Lab3.X/ADC.c: 24:             ADCON0bits.CHS1 = 1;
  1366  0114  159F               	bsf	31,3	;volatile
  1367                           
  1368                           ;E:/UVG/Semestre 5/Digital2/Lab3/Lab3.X/ADC.c: 25:             ADCON0bits.CHS0 = 0;
  1369  0115  111F               	bcf	31,2	;volatile
  1370                           
  1371                           ;E:/UVG/Semestre 5/Digital2/Lab3/Lab3.X/ADC.c: 26:             break;
  1372  0116  29A6               	goto	l1131
  1373  0117                     l116:	
  1374                           ;E:/UVG/Semestre 5/Digital2/Lab3/Lab3.X/ADC.c: 27:         case 3:
  1375                           
  1376                           
  1377                           ;E:/UVG/Semestre 5/Digital2/Lab3/Lab3.X/ADC.c: 28:             ADCON0bits.CHS3 = 0;
  1378  0117  129F               	bcf	31,5	;volatile
  1379                           
  1380                           ;E:/UVG/Semestre 5/Digital2/Lab3/Lab3.X/ADC.c: 29:             ADCON0bits.CHS2 = 0;
  1381  0118  121F               	bcf	31,4	;volatile
  1382                           
  1383                           ;E:/UVG/Semestre 5/Digital2/Lab3/Lab3.X/ADC.c: 30:             ADCON0bits.CHS1 = 1;
  1384  0119  159F               	bsf	31,3	;volatile
  1385                           
  1386                           ;E:/UVG/Semestre 5/Digital2/Lab3/Lab3.X/ADC.c: 31:             ADCON0bits.CHS0 = 1;
  1387  011A  151F               	bsf	31,2	;volatile
  1388                           
  1389                           ;E:/UVG/Semestre 5/Digital2/Lab3/Lab3.X/ADC.c: 32:             break;
  1390  011B  29A6               	goto	l1131
  1391  011C                     l117:	
  1392                           ;E:/UVG/Semestre 5/Digital2/Lab3/Lab3.X/ADC.c: 33:         case 4:
  1393                           
  1394                           
  1395                           ;E:/UVG/Semestre 5/Digital2/Lab3/Lab3.X/ADC.c: 34:             ADCON0bits.CHS3 = 0;
  1396  011C  129F               	bcf	31,5	;volatile
  1397                           
  1398                           ;E:/UVG/Semestre 5/Digital2/Lab3/Lab3.X/ADC.c: 35:             ADCON0bits.CHS2 = 1;
  1399  011D  161F               	bsf	31,4	;volatile
  1400                           
  1401                           ;E:/UVG/Semestre 5/Digital2/Lab3/Lab3.X/ADC.c: 36:             ADCON0bits.CHS1 = 0;
  1402  011E  119F               	bcf	31,3	;volatile
  1403                           
  1404                           ;E:/UVG/Semestre 5/Digital2/Lab3/Lab3.X/ADC.c: 37:             ADCON0bits.CHS0 = 0;
  1405  011F  111F               	bcf	31,2	;volatile
  1406                           
  1407                           ;E:/UVG/Semestre 5/Digital2/Lab3/Lab3.X/ADC.c: 38:             break;
  1408  0120  29A6               	goto	l1131
  1409  0121                     l118:	
  1410                           ;E:/UVG/Semestre 5/Digital2/Lab3/Lab3.X/ADC.c: 39:         case 5:
  1411                           
  1412                           
  1413                           ;E:/UVG/Semestre 5/Digital2/Lab3/Lab3.X/ADC.c: 40:             ADCON0bits.CHS3 = 0;
  1414  0121  129F               	bcf	31,5	;volatile
  1415                           
  1416                           ;E:/UVG/Semestre 5/Digital2/Lab3/Lab3.X/ADC.c: 41:             ADCON0bits.CHS2 = 1;
  1417  0122  161F               	bsf	31,4	;volatile
  1418                           
  1419                           ;E:/UVG/Semestre 5/Digital2/Lab3/Lab3.X/ADC.c: 42:             ADCON0bits.CHS1 = 0;
  1420  0123  119F               	bcf	31,3	;volatile
  1421                           
  1422                           ;E:/UVG/Semestre 5/Digital2/Lab3/Lab3.X/ADC.c: 43:             ADCON0bits.CHS0 = 1;
  1423  0124  151F               	bsf	31,2	;volatile
  1424                           
  1425                           ;E:/UVG/Semestre 5/Digital2/Lab3/Lab3.X/ADC.c: 44:             break;
  1426  0125  29A6               	goto	l1131
  1427  0126                     l119:	
  1428                           ;E:/UVG/Semestre 5/Digital2/Lab3/Lab3.X/ADC.c: 45:         case 6:
  1429                           
  1430                           
  1431                           ;E:/UVG/Semestre 5/Digital2/Lab3/Lab3.X/ADC.c: 46:             ADCON0bits.CHS3 = 0;
  1432  0126  129F               	bcf	31,5	;volatile
  1433                           
  1434                           ;E:/UVG/Semestre 5/Digital2/Lab3/Lab3.X/ADC.c: 47:             ADCON0bits.CHS2 = 1;
  1435  0127  161F               	bsf	31,4	;volatile
  1436                           
  1437                           ;E:/UVG/Semestre 5/Digital2/Lab3/Lab3.X/ADC.c: 48:             ADCON0bits.CHS1 = 1;
  1438  0128  159F               	bsf	31,3	;volatile
  1439                           
  1440                           ;E:/UVG/Semestre 5/Digital2/Lab3/Lab3.X/ADC.c: 49:             ADCON0bits.CHS0 = 0;
  1441  0129  111F               	bcf	31,2	;volatile
  1442                           
  1443                           ;E:/UVG/Semestre 5/Digital2/Lab3/Lab3.X/ADC.c: 50:             break;
  1444  012A  29A6               	goto	l1131
  1445  012B                     l120:	
  1446                           ;E:/UVG/Semestre 5/Digital2/Lab3/Lab3.X/ADC.c: 51:         case 7:
  1447                           
  1448                           
  1449                           ;E:/UVG/Semestre 5/Digital2/Lab3/Lab3.X/ADC.c: 52:             ADCON0bits.CHS3 = 0;
  1450  012B  129F               	bcf	31,5	;volatile
  1451                           
  1452                           ;E:/UVG/Semestre 5/Digital2/Lab3/Lab3.X/ADC.c: 53:             ADCON0bits.CHS2 = 1;
  1453  012C  161F               	bsf	31,4	;volatile
  1454                           
  1455                           ;E:/UVG/Semestre 5/Digital2/Lab3/Lab3.X/ADC.c: 54:             ADCON0bits.CHS1 = 1;
  1456  012D  159F               	bsf	31,3	;volatile
  1457                           
  1458                           ;E:/UVG/Semestre 5/Digital2/Lab3/Lab3.X/ADC.c: 55:             ADCON0bits.CHS0 = 1;
  1459  012E  151F               	bsf	31,2	;volatile
  1460                           
  1461                           ;E:/UVG/Semestre 5/Digital2/Lab3/Lab3.X/ADC.c: 56:             break;
  1462  012F  29A6               	goto	l1131
  1463  0130                     l121:	
  1464                           ;E:/UVG/Semestre 5/Digital2/Lab3/Lab3.X/ADC.c: 57:         case 8:
  1465                           
  1466                           
  1467                           ;E:/UVG/Semestre 5/Digital2/Lab3/Lab3.X/ADC.c: 58:             ADCON0bits.CHS3 = 1;
  1468  0130  169F               	bsf	31,5	;volatile
  1469                           
  1470                           ;E:/UVG/Semestre 5/Digital2/Lab3/Lab3.X/ADC.c: 59:             ADCON0bits.CHS2 = 0;
  1471  0131  121F               	bcf	31,4	;volatile
  1472                           
  1473                           ;E:/UVG/Semestre 5/Digital2/Lab3/Lab3.X/ADC.c: 60:             ADCON0bits.CHS1 = 0;
  1474  0132  119F               	bcf	31,3	;volatile
  1475                           
  1476                           ;E:/UVG/Semestre 5/Digital2/Lab3/Lab3.X/ADC.c: 61:             ADCON0bits.CHS0 = 0;
  1477  0133  111F               	bcf	31,2	;volatile
  1478                           
  1479                           ;E:/UVG/Semestre 5/Digital2/Lab3/Lab3.X/ADC.c: 62:             break;
  1480  0134  29A6               	goto	l1131
  1481  0135                     l122:	
  1482                           ;E:/UVG/Semestre 5/Digital2/Lab3/Lab3.X/ADC.c: 63:         case 9:
  1483                           
  1484                           
  1485                           ;E:/UVG/Semestre 5/Digital2/Lab3/Lab3.X/ADC.c: 64:             ADCON0bits.CHS3 = 1;
  1486  0135  169F               	bsf	31,5	;volatile
  1487                           
  1488                           ;E:/UVG/Semestre 5/Digital2/Lab3/Lab3.X/ADC.c: 65:             ADCON0bits.CHS2 = 0;
  1489  0136  121F               	bcf	31,4	;volatile
  1490                           
  1491                           ;E:/UVG/Semestre 5/Digital2/Lab3/Lab3.X/ADC.c: 66:             ADCON0bits.CHS1 = 0;
  1492  0137  119F               	bcf	31,3	;volatile
  1493                           
  1494                           ;E:/UVG/Semestre 5/Digital2/Lab3/Lab3.X/ADC.c: 67:             ADCON0bits.CHS0 = 1;
  1495  0138  151F               	bsf	31,2	;volatile
  1496                           
  1497                           ;E:/UVG/Semestre 5/Digital2/Lab3/Lab3.X/ADC.c: 68:             break;
  1498  0139  29A6               	goto	l1131
  1499  013A                     l123:	
  1500                           ;E:/UVG/Semestre 5/Digital2/Lab3/Lab3.X/ADC.c: 69:         case 10:
  1501                           
  1502                           
  1503                           ;E:/UVG/Semestre 5/Digital2/Lab3/Lab3.X/ADC.c: 70:             ADCON0bits.CHS3 = 1;
  1504  013A  169F               	bsf	31,5	;volatile
  1505                           
  1506                           ;E:/UVG/Semestre 5/Digital2/Lab3/Lab3.X/ADC.c: 71:             ADCON0bits.CHS2 = 0;
  1507  013B  121F               	bcf	31,4	;volatile
  1508                           
  1509                           ;E:/UVG/Semestre 5/Digital2/Lab3/Lab3.X/ADC.c: 72:             ADCON0bits.CHS1 = 1;
  1510  013C  159F               	bsf	31,3	;volatile
  1511                           
  1512                           ;E:/UVG/Semestre 5/Digital2/Lab3/Lab3.X/ADC.c: 73:             ADCON0bits.CHS0 = 0;
  1513  013D  111F               	bcf	31,2	;volatile
  1514                           
  1515                           ;E:/UVG/Semestre 5/Digital2/Lab3/Lab3.X/ADC.c: 74:             break;
  1516  013E  29A6               	goto	l1131
  1517  013F                     l124:	
  1518                           ;E:/UVG/Semestre 5/Digital2/Lab3/Lab3.X/ADC.c: 75:         case 11:
  1519                           
  1520                           
  1521                           ;E:/UVG/Semestre 5/Digital2/Lab3/Lab3.X/ADC.c: 76:             ADCON0bits.CHS3 = 1;
  1522  013F  169F               	bsf	31,5	;volatile
  1523                           
  1524                           ;E:/UVG/Semestre 5/Digital2/Lab3/Lab3.X/ADC.c: 77:             ADCON0bits.CHS2 = 0;
  1525  0140  121F               	bcf	31,4	;volatile
  1526                           
  1527                           ;E:/UVG/Semestre 5/Digital2/Lab3/Lab3.X/ADC.c: 78:             ADCON0bits.CHS1 = 1;
  1528  0141  159F               	bsf	31,3	;volatile
  1529                           
  1530                           ;E:/UVG/Semestre 5/Digital2/Lab3/Lab3.X/ADC.c: 79:             ADCON0bits.CHS0 = 1;
  1531  0142  151F               	bsf	31,2	;volatile
  1532                           
  1533                           ;E:/UVG/Semestre 5/Digital2/Lab3/Lab3.X/ADC.c: 80:             break;
  1534  0143  29A6               	goto	l1131
  1535  0144                     l125:	
  1536                           ;E:/UVG/Semestre 5/Digital2/Lab3/Lab3.X/ADC.c: 81:         case 12:
  1537                           
  1538                           
  1539                           ;E:/UVG/Semestre 5/Digital2/Lab3/Lab3.X/ADC.c: 82:             ADCON0bits.CHS3 = 1;
  1540  0144  169F               	bsf	31,5	;volatile
  1541                           
  1542                           ;E:/UVG/Semestre 5/Digital2/Lab3/Lab3.X/ADC.c: 83:             ADCON0bits.CHS2 = 1;
  1543  0145  161F               	bsf	31,4	;volatile
  1544                           
  1545                           ;E:/UVG/Semestre 5/Digital2/Lab3/Lab3.X/ADC.c: 84:             ADCON0bits.CHS1 = 0;
  1546  0146  119F               	bcf	31,3	;volatile
  1547                           
  1548                           ;E:/UVG/Semestre 5/Digital2/Lab3/Lab3.X/ADC.c: 85:             ADCON0bits.CHS0 = 0;
  1549  0147  111F               	bcf	31,2	;volatile
  1550                           
  1551                           ;E:/UVG/Semestre 5/Digital2/Lab3/Lab3.X/ADC.c: 86:             break;
  1552  0148  29A6               	goto	l1131
  1553  0149                     l126:	
  1554                           ;E:/UVG/Semestre 5/Digital2/Lab3/Lab3.X/ADC.c: 87:         case 13:
  1555                           
  1556                           
  1557                           ;E:/UVG/Semestre 5/Digital2/Lab3/Lab3.X/ADC.c: 88:             ADCON0bits.CHS3 = 1;
  1558  0149  169F               	bsf	31,5	;volatile
  1559                           
  1560                           ;E:/UVG/Semestre 5/Digital2/Lab3/Lab3.X/ADC.c: 89:             ADCON0bits.CHS2 = 1;
  1561  014A  161F               	bsf	31,4	;volatile
  1562                           
  1563                           ;E:/UVG/Semestre 5/Digital2/Lab3/Lab3.X/ADC.c: 90:             ADCON0bits.CHS1 = 0;
  1564  014B  119F               	bcf	31,3	;volatile
  1565                           
  1566                           ;E:/UVG/Semestre 5/Digital2/Lab3/Lab3.X/ADC.c: 91:             ADCON0bits.CHS0 = 1;
  1567  014C  151F               	bsf	31,2	;volatile
  1568                           
  1569                           ;E:/UVG/Semestre 5/Digital2/Lab3/Lab3.X/ADC.c: 92:             break;
  1570  014D  29A6               	goto	l1131
  1571  014E                     l127:	
  1572                           ;E:/UVG/Semestre 5/Digital2/Lab3/Lab3.X/ADC.c: 93:         case 14:
  1573                           
  1574                           
  1575                           ;E:/UVG/Semestre 5/Digital2/Lab3/Lab3.X/ADC.c: 94:             ADCON0bits.CHS3 = 1;
  1576  014E  169F               	bsf	31,5	;volatile
  1577                           
  1578                           ;E:/UVG/Semestre 5/Digital2/Lab3/Lab3.X/ADC.c: 95:             ADCON0bits.CHS2 = 1;
  1579  014F  161F               	bsf	31,4	;volatile
  1580                           
  1581                           ;E:/UVG/Semestre 5/Digital2/Lab3/Lab3.X/ADC.c: 96:             ADCON0bits.CHS1 = 1;
  1582  0150  159F               	bsf	31,3	;volatile
  1583                           
  1584                           ;E:/UVG/Semestre 5/Digital2/Lab3/Lab3.X/ADC.c: 97:             ADCON0bits.CHS0 = 0;
  1585  0151  111F               	bcf	31,2	;volatile
  1586                           
  1587                           ;E:/UVG/Semestre 5/Digital2/Lab3/Lab3.X/ADC.c: 98:             break;
  1588  0152  29A6               	goto	l1131
  1589  0153                     l128:	
  1590                           ;E:/UVG/Semestre 5/Digital2/Lab3/Lab3.X/ADC.c: 99:         case 15:
  1591                           
  1592                           
  1593                           ;E:/UVG/Semestre 5/Digital2/Lab3/Lab3.X/ADC.c: 100:             ADCON0bits.CHS3 = 1;
  1594  0153  169F               	bsf	31,5	;volatile
  1595                           
  1596                           ;E:/UVG/Semestre 5/Digital2/Lab3/Lab3.X/ADC.c: 101:             ADCON0bits.CHS2 = 1;
  1597  0154  161F               	bsf	31,4	;volatile
  1598                           
  1599                           ;E:/UVG/Semestre 5/Digital2/Lab3/Lab3.X/ADC.c: 102:             ADCON0bits.CHS1 = 1;
  1600  0155  159F               	bsf	31,3	;volatile
  1601                           
  1602                           ;E:/UVG/Semestre 5/Digital2/Lab3/Lab3.X/ADC.c: 103:             ADCON0bits.CHS0 = 1;
  1603  0156  151F               	bsf	31,2	;volatile
  1604                           
  1605                           ;E:/UVG/Semestre 5/Digital2/Lab3/Lab3.X/ADC.c: 104:             break;
  1606  0157  29A6               	goto	l1131
  1607  0158                     l129:	
  1608                           ;E:/UVG/Semestre 5/Digital2/Lab3/Lab3.X/ADC.c: 105:         default:
  1609                           
  1610                           
  1611                           ;E:/UVG/Semestre 5/Digital2/Lab3/Lab3.X/ADC.c: 106:             ADCON0bits.CHS3 = 0;
  1612  0158  129F               	bcf	31,5	;volatile
  1613                           
  1614                           ;E:/UVG/Semestre 5/Digital2/Lab3/Lab3.X/ADC.c: 107:             ADCON0bits.CHS2 = 0;
  1615  0159  121F               	bcf	31,4	;volatile
  1616                           
  1617                           ;E:/UVG/Semestre 5/Digital2/Lab3/Lab3.X/ADC.c: 108:             ADCON0bits.CHS1 = 0;
  1618  015A  119F               	bcf	31,3	;volatile
  1619                           
  1620                           ;E:/UVG/Semestre 5/Digital2/Lab3/Lab3.X/ADC.c: 109:             ADCON0bits.CHS0 = 0;
  1621  015B  111F               	bcf	31,2	;volatile
  1622                           
  1623                           ;E:/UVG/Semestre 5/Digital2/Lab3/Lab3.X/ADC.c: 110:             break;
  1624  015C  29A6               	goto	l1131
  1625  015D                     l1127:
  1626  015D  0820               	movf	initADC@CHS,w
  1627  015E  00A1               	movwf	??_initADC
  1628  015F  01A2               	clrf	??_initADC+1
  1629                           
  1630                           ; Switch on 2 bytes has been partitioned into a top level switch of size 1, and 1 sub-sw
      +                          itches
  1631                           ; Switch size 1, requested type "simple"
  1632                           ; Number of cases is 1, Range of values is 0 to 0
  1633                           ; switch strategies available:
  1634                           ; Name         Instructions Cycles
  1635                           ; simple_byte            4     3 (average)
  1636                           ; direct_byte           11     8 (fixed)
  1637                           ; jumptable            260     6 (fixed)
  1638                           ;	Chosen strategy is simple_byte
  1639  0160  0822               	movf	??_initADC+1,w
  1640  0161  3A00               	xorlw	0	; case 0
  1641  0162  1903               	skipnz
  1642  0163  2965               	goto	l1463
  1643  0164  2958               	goto	l129
  1644  0165                     l1463:
  1645                           
  1646                           ; Switch size 1, requested type "simple"
  1647                           ; Number of cases is 16, Range of values is 0 to 15
  1648                           ; switch strategies available:
  1649                           ; Name         Instructions Cycles
  1650                           ; simple_byte           49    25 (average)
  1651                           ; direct_byte           56     8 (fixed)
  1652                           ; jumptable            260     6 (fixed)
  1653                           ;	Chosen strategy is simple_byte
  1654  0165  0821               	movf	??_initADC,w
  1655  0166  3A00               	xorlw	0	; case 0
  1656  0167  1903               	skipnz
  1657  0168  2908               	goto	l112
  1658  0169  3A01               	xorlw	1	; case 1
  1659  016A  1903               	skipnz
  1660  016B  290D               	goto	l114
  1661  016C  3A03               	xorlw	3	; case 2
  1662  016D  1903               	skipnz
  1663  016E  2912               	goto	l115
  1664  016F  3A01               	xorlw	1	; case 3
  1665  0170  1903               	skipnz
  1666  0171  2917               	goto	l116
  1667  0172  3A07               	xorlw	7	; case 4
  1668  0173  1903               	skipnz
  1669  0174  291C               	goto	l117
  1670  0175  3A01               	xorlw	1	; case 5
  1671  0176  1903               	skipnz
  1672  0177  2921               	goto	l118
  1673  0178  3A03               	xorlw	3	; case 6
  1674  0179  1903               	skipnz
  1675  017A  2926               	goto	l119
  1676  017B  3A01               	xorlw	1	; case 7
  1677  017C  1903               	skipnz
  1678  017D  292B               	goto	l120
  1679  017E  3A0F               	xorlw	15	; case 8
  1680  017F  1903               	skipnz
  1681  0180  2930               	goto	l121
  1682  0181  3A01               	xorlw	1	; case 9
  1683  0182  1903               	skipnz
  1684  0183  2935               	goto	l122
  1685  0184  3A03               	xorlw	3	; case 10
  1686  0185  1903               	skipnz
  1687  0186  293A               	goto	l123
  1688  0187  3A01               	xorlw	1	; case 11
  1689  0188  1903               	skipnz
  1690  0189  293F               	goto	l124
  1691  018A  3A07               	xorlw	7	; case 12
  1692  018B  1903               	skipnz
  1693  018C  2944               	goto	l125
  1694  018D  3A01               	xorlw	1	; case 13
  1695  018E  1903               	skipnz
  1696  018F  2949               	goto	l126
  1697  0190  3A03               	xorlw	3	; case 14
  1698  0191  1903               	skipnz
  1699  0192  294E               	goto	l127
  1700  0193  3A01               	xorlw	1	; case 15
  1701  0194  1903               	skipnz
  1702  0195  2953               	goto	l128
  1703  0196  2958               	goto	l129
  1704  0197                     l131:	
  1705                           ;E:/UVG/Semestre 5/Digital2/Lab3/Lab3.X/ADC.c: 114:         case 0:
  1706                           
  1707                           
  1708                           ;E:/UVG/Semestre 5/Digital2/Lab3/Lab3.X/ADC.c: 115:             ADCON0bits.ADCS0 = 0;
  1709  0197  131F               	bcf	31,6	;volatile
  1710                           
  1711                           ;E:/UVG/Semestre 5/Digital2/Lab3/Lab3.X/ADC.c: 116:             ADCON0bits.ADCS0 = 0;
  1712  0198  131F               	bcf	31,6	;volatile
  1713                           
  1714                           ;E:/UVG/Semestre 5/Digital2/Lab3/Lab3.X/ADC.c: 117:             break;
  1715  0199  29BC               	goto	l132
  1716  019A                     l133:	
  1717                           ;E:/UVG/Semestre 5/Digital2/Lab3/Lab3.X/ADC.c: 118:         case 1:
  1718                           
  1719                           
  1720                           ;E:/UVG/Semestre 5/Digital2/Lab3/Lab3.X/ADC.c: 119:             ADCON0bits.ADCS0 = 0;
  1721  019A  131F               	bcf	31,6	;volatile
  1722                           
  1723                           ;E:/UVG/Semestre 5/Digital2/Lab3/Lab3.X/ADC.c: 120:             ADCON0bits.ADCS0 = 1;
  1724  019B  171F               	bsf	31,6	;volatile
  1725                           
  1726                           ;E:/UVG/Semestre 5/Digital2/Lab3/Lab3.X/ADC.c: 121:             break;
  1727  019C  29BC               	goto	l132
  1728  019D                     l134:	
  1729                           ;E:/UVG/Semestre 5/Digital2/Lab3/Lab3.X/ADC.c: 122:         case 2:
  1730                           
  1731                           
  1732                           ;E:/UVG/Semestre 5/Digital2/Lab3/Lab3.X/ADC.c: 123:             ADCON0bits.ADCS0 = 1;
  1733  019D  171F               	bsf	31,6	;volatile
  1734                           
  1735                           ;E:/UVG/Semestre 5/Digital2/Lab3/Lab3.X/ADC.c: 124:             ADCON0bits.ADCS0 = 0;
  1736  019E  131F               	bcf	31,6	;volatile
  1737                           
  1738                           ;E:/UVG/Semestre 5/Digital2/Lab3/Lab3.X/ADC.c: 125:             break;
  1739  019F  29BC               	goto	l132
  1740  01A0                     l135:	
  1741                           ;E:/UVG/Semestre 5/Digital2/Lab3/Lab3.X/ADC.c: 126:         case 3:
  1742                           
  1743                           
  1744                           ;E:/UVG/Semestre 5/Digital2/Lab3/Lab3.X/ADC.c: 127:             ADCON0bits.ADCS0 = 1;
  1745  01A0  171F               	bsf	31,6	;volatile
  1746                           
  1747                           ;E:/UVG/Semestre 5/Digital2/Lab3/Lab3.X/ADC.c: 128:             ADCON0bits.ADCS0 = 1;
  1748  01A1  171F               	bsf	31,6	;volatile
  1749                           
  1750                           ;E:/UVG/Semestre 5/Digital2/Lab3/Lab3.X/ADC.c: 129:             break;
  1751  01A2  29BC               	goto	l132
  1752  01A3                     l136:	
  1753                           ;E:/UVG/Semestre 5/Digital2/Lab3/Lab3.X/ADC.c: 130:         default:
  1754                           
  1755                           
  1756                           ;E:/UVG/Semestre 5/Digital2/Lab3/Lab3.X/ADC.c: 131:             ADCON0bits.ADCS0 = 0;
  1757  01A3  131F               	bcf	31,6	;volatile
  1758                           
  1759                           ;E:/UVG/Semestre 5/Digital2/Lab3/Lab3.X/ADC.c: 132:             ADCON0bits.ADCS0 = 0;
  1760  01A4  131F               	bcf	31,6	;volatile
  1761                           
  1762                           ;E:/UVG/Semestre 5/Digital2/Lab3/Lab3.X/ADC.c: 133:             break;
  1763  01A5  29BC               	goto	l132
  1764  01A6                     l1131:
  1765  01A6  0823               	movf	initADC@ADCS,w
  1766  01A7  00A1               	movwf	??_initADC
  1767  01A8  01A2               	clrf	??_initADC+1
  1768                           
  1769                           ; Switch on 2 bytes has been partitioned into a top level switch of size 1, and 1 sub-sw
      +                          itches
  1770                           ; Switch size 1, requested type "simple"
  1771                           ; Number of cases is 1, Range of values is 0 to 0
  1772                           ; switch strategies available:
  1773                           ; Name         Instructions Cycles
  1774                           ; simple_byte            4     3 (average)
  1775                           ; direct_byte           11     8 (fixed)
  1776                           ; jumptable            260     6 (fixed)
  1777                           ;	Chosen strategy is simple_byte
  1778  01A9  0822               	movf	??_initADC+1,w
  1779  01AA  3A00               	xorlw	0	; case 0
  1780  01AB  1903               	skipnz
  1781  01AC  29AE               	goto	l1465
  1782  01AD  29A3               	goto	l136
  1783  01AE                     l1465:
  1784                           
  1785                           ; Switch size 1, requested type "simple"
  1786                           ; Number of cases is 4, Range of values is 0 to 3
  1787                           ; switch strategies available:
  1788                           ; Name         Instructions Cycles
  1789                           ; simple_byte           13     7 (average)
  1790                           ; direct_byte           20     8 (fixed)
  1791                           ; jumptable            260     6 (fixed)
  1792                           ;	Chosen strategy is simple_byte
  1793  01AE  0821               	movf	??_initADC,w
  1794  01AF  3A00               	xorlw	0	; case 0
  1795  01B0  1903               	skipnz
  1796  01B1  2997               	goto	l131
  1797  01B2  3A01               	xorlw	1	; case 1
  1798  01B3  1903               	skipnz
  1799  01B4  299A               	goto	l133
  1800  01B5  3A03               	xorlw	3	; case 2
  1801  01B6  1903               	skipnz
  1802  01B7  299D               	goto	l134
  1803  01B8  3A01               	xorlw	1	; case 3
  1804  01B9  1903               	skipnz
  1805  01BA  29A0               	goto	l135
  1806  01BB  29A3               	goto	l136
  1807  01BC                     l132:
  1808                           
  1809                           ;E:/UVG/Semestre 5/Digital2/Lab3/Lab3.X/ADC.c: 136:     ADCON0bits.ADON = 1;
  1810  01BC  141F               	bsf	31,0	;volatile
  1811                           
  1812                           ;E:/UVG/Semestre 5/Digital2/Lab3/Lab3.X/ADC.c: 138:     ADCON0bits.GO_nDONE = 1;
  1813  01BD  149F               	bsf	31,1	;volatile
  1814  01BE                     l1133:
  1815                           
  1816                           ;E:/UVG/Semestre 5/Digital2/Lab3/Lab3.X/ADC.c: 140:     ADCON1 = 0b00000000;
  1817  01BE  1683               	bsf	3,5	;RP0=1, select bank1
  1818  01BF  1303               	bcf	3,6	;RP1=0, select bank1
  1819  01C0  019F               	clrf	31	;volatile
  1820  01C1                     l1135:
  1821                           
  1822                           ;E:/UVG/Semestre 5/Digital2/Lab3/Lab3.X/ADC.c: 142:     _delay((unsigned long)((10)*(400
      +                          0000/4000.0)));
  1823  01C1  300D               	movlw	13
  1824  01C2  1283               	bcf	3,5	;RP0=0, select bank0
  1825  01C3  1303               	bcf	3,6	;RP1=0, select bank0
  1826  01C4  00A2               	movwf	??_initADC+1
  1827  01C5  30FB               	movlw	251
  1828  01C6  00A1               	movwf	??_initADC
  1829  01C7                     u177:
  1830  01C7  0BA1               	decfsz	??_initADC,f
  1831  01C8  29C7               	goto	u177
  1832  01C9  0BA2               	decfsz	??_initADC+1,f
  1833  01CA  29C7               	goto	u177
  1834  01CB                     l137:
  1835  01CB  0008               	return
  1836  01CC                     __end_of_initADC:
  1837                           
  1838                           	psect	text5
  1839  027E                     __ptext5:	
  1840 ;; *************** function _Lcd_Init *****************
  1841 ;; Defined at:
  1842 ;;		line 42 in file "E:/UVG/Semestre 5/Digital2/Lab3/Lab3.X/LCD.c"
  1843 ;; Parameters:    Size  Location     Type
  1844 ;;		None
  1845 ;; Auto vars:     Size  Location     Type
  1846 ;;		None
  1847 ;; Return value:  Size  Location     Type
  1848 ;;                  1    wreg      void 
  1849 ;; Registers used:
  1850 ;;		wreg, status,2, status,0, pclath, cstack
  1851 ;; Tracked objects:
  1852 ;;		On entry : 0/0
  1853 ;;		On exit  : 0/0
  1854 ;;		Unchanged: 0/0
  1855 ;; Data sizes:     COMMON   BANK0   BANK1   BANK3   BANK2
  1856 ;;      Params:         0       0       0       0       0
  1857 ;;      Locals:         0       0       0       0       0
  1858 ;;      Temps:          0       2       0       0       0
  1859 ;;      Totals:         0       2       0       0       0
  1860 ;;Total ram usage:        2 bytes
  1861 ;; Hardware stack levels used:    1
  1862 ;; Hardware stack levels required when called:    4
  1863 ;; This function calls:
  1864 ;;		_Lcd_Cmd
  1865 ;;		_Lcd_Port
  1866 ;; This function is called by:
  1867 ;;		_Setup
  1868 ;; This function uses a non-reentrant model
  1869 ;;
  1870                           
  1871                           
  1872                           ;psect for function _Lcd_Init
  1873  027E                     _Lcd_Init:
  1874  027E                     l1175:	
  1875                           ;incstack = 0
  1876                           ; Regs used in _Lcd_Init: [wreg+status,2+status,0+pclath+cstack]
  1877                           
  1878                           
  1879                           ;E:/UVG/Semestre 5/Digital2/Lab3/Lab3.X/LCD.c: 43:     Lcd_Port(0x00);
  1880  027E  3000               	movlw	0
  1881  027F  120A  118A  234C  120A  118A  	fcall	_Lcd_Port
  1882  0284                     l1177:
  1883                           
  1884                           ;E:/UVG/Semestre 5/Digital2/Lab3/Lab3.X/LCD.c: 44:      _delay((unsigned long)((10)*(400
      +                          0000/4000.0)));
  1885  0284  300D               	movlw	13
  1886  0285  1283               	bcf	3,5	;RP0=0, select bank0
  1887  0286  1303               	bcf	3,6	;RP1=0, select bank0
  1888  0287  00A5               	movwf	??_Lcd_Init+1
  1889  0288  30FB               	movlw	251
  1890  0289  00A4               	movwf	??_Lcd_Init
  1891  028A                     u187:
  1892  028A  0BA4               	decfsz	??_Lcd_Init,f
  1893  028B  2A8A               	goto	u187
  1894  028C  0BA5               	decfsz	??_Lcd_Init+1,f
  1895  028D  2A8A               	goto	u187
  1896  028E                     l1179:
  1897                           
  1898                           ;E:/UVG/Semestre 5/Digital2/Lab3/Lab3.X/LCD.c: 45:     Lcd_Cmd(0x30);
  1899  028E  3030               	movlw	48
  1900  028F  120A  118A  2309  120A  118A  	fcall	_Lcd_Cmd
  1901                           
  1902                           ;E:/UVG/Semestre 5/Digital2/Lab3/Lab3.X/LCD.c: 46:       _delay((unsigned long)((4)*(400
      +                          0000/4000.0)));
  1903  0294  3006               	movlw	6
  1904  0295  1283               	bcf	3,5	;RP0=0, select bank0
  1905  0296  1303               	bcf	3,6	;RP1=0, select bank0
  1906  0297  00A5               	movwf	??_Lcd_Init+1
  1907  0298  302F               	movlw	47
  1908  0299  00A4               	movwf	??_Lcd_Init
  1909  029A                     u197:
  1910  029A  0BA4               	decfsz	??_Lcd_Init,f
  1911  029B  2A9A               	goto	u197
  1912  029C  0BA5               	decfsz	??_Lcd_Init+1,f
  1913  029D  2A9A               	goto	u197
  1914  029E  2A9F               	nop2
  1915  029F                     l1181:
  1916                           
  1917                           ;E:/UVG/Semestre 5/Digital2/Lab3/Lab3.X/LCD.c: 47:     Lcd_Cmd(0x30);
  1918  029F  3030               	movlw	48
  1919  02A0  120A  118A  2309  120A  118A  	fcall	_Lcd_Cmd
  1920  02A5                     l1183:
  1921                           
  1922                           ;E:/UVG/Semestre 5/Digital2/Lab3/Lab3.X/LCD.c: 48:       _delay((unsigned long)((90)*(40
      +                          00000/4000000.0)));
  1923  02A5  301D               	movlw	29
  1924  02A6  1283               	bcf	3,5	;RP0=0, select bank0
  1925  02A7  1303               	bcf	3,6	;RP1=0, select bank0
  1926  02A8  00A4               	movwf	??_Lcd_Init
  1927  02A9                     u207:
  1928  02A9  0BA4               	decfsz	??_Lcd_Init,f
  1929  02AA  2AA9               	goto	u207
  1930                           
  1931                           ;E:/UVG/Semestre 5/Digital2/Lab3/Lab3.X/LCD.c: 49:     Lcd_Cmd(0x30);
  1932  02AB  3030               	movlw	48
  1933  02AC  120A  118A  2309  120A  118A  	fcall	_Lcd_Cmd
  1934                           
  1935                           ;E:/UVG/Semestre 5/Digital2/Lab3/Lab3.X/LCD.c: 51:     Lcd_Cmd(0x38);
  1936  02B1  3038               	movlw	56
  1937  02B2  120A  118A  2309  120A  118A  	fcall	_Lcd_Cmd
  1938                           
  1939                           ;E:/UVG/Semestre 5/Digital2/Lab3/Lab3.X/LCD.c: 52:     Lcd_Cmd(0x08);
  1940  02B7  3008               	movlw	8
  1941  02B8  120A  118A  2309  120A  118A  	fcall	_Lcd_Cmd
  1942                           
  1943                           ;E:/UVG/Semestre 5/Digital2/Lab3/Lab3.X/LCD.c: 53:     Lcd_Cmd(0x01);
  1944  02BD  3001               	movlw	1
  1945  02BE  120A  118A  2309  120A  118A  	fcall	_Lcd_Cmd
  1946                           
  1947                           ;E:/UVG/Semestre 5/Digital2/Lab3/Lab3.X/LCD.c: 54:     Lcd_Cmd(0x06);
  1948  02C3  3006               	movlw	6
  1949  02C4  120A  118A  2309  120A  118A  	fcall	_Lcd_Cmd
  1950  02C9                     l161:
  1951  02C9  0008               	return
  1952  02CA                     __end_of_Lcd_Init:
  1953                           
  1954                           	psect	text6
  1955  0309                     __ptext6:	
  1956 ;; *************** function _Lcd_Cmd *****************
  1957 ;; Defined at:
  1958 ;;		line 17 in file "E:/UVG/Semestre 5/Digital2/Lab3/Lab3.X/LCD.c"
  1959 ;; Parameters:    Size  Location     Type
  1960 ;;  a               1    wreg     unsigned char 
  1961 ;; Auto vars:     Size  Location     Type
  1962 ;;  a               1    3[BANK0 ] unsigned char 
  1963 ;; Return value:  Size  Location     Type
  1964 ;;                  1    wreg      void 
  1965 ;; Registers used:
  1966 ;;		wreg, status,2, status,0, pclath, cstack
  1967 ;; Tracked objects:
  1968 ;;		On entry : 0/0
  1969 ;;		On exit  : 0/0
  1970 ;;		Unchanged: 0/0
  1971 ;; Data sizes:     COMMON   BANK0   BANK1   BANK3   BANK2
  1972 ;;      Params:         0       0       0       0       0
  1973 ;;      Locals:         0       1       0       0       0
  1974 ;;      Temps:          0       2       0       0       0
  1975 ;;      Totals:         0       3       0       0       0
  1976 ;;Total ram usage:        3 bytes
  1977 ;; Hardware stack levels used:    1
  1978 ;; Hardware stack levels required when called:    3
  1979 ;; This function calls:
  1980 ;;		_Lcd_Port
  1981 ;; This function is called by:
  1982 ;;		_Lcd_Init
  1983 ;;		_Lcd_Clear
  1984 ;;		_Lcd_Set_Cursor
  1985 ;;		_Lcd_Shift_Right
  1986 ;;		_Lcd_Shift_Left
  1987 ;; This function uses a non-reentrant model
  1988 ;;
  1989                           
  1990                           
  1991                           ;psect for function _Lcd_Cmd
  1992  0309                     _Lcd_Cmd:
  1993                           
  1994                           ;incstack = 0
  1995                           ; Regs used in _Lcd_Cmd: [wreg+status,2+status,0+pclath+cstack]
  1996                           ;Lcd_Cmd@a stored from wreg
  1997  0309  1283               	bcf	3,5	;RP0=0, select bank0
  1998  030A  1303               	bcf	3,6	;RP1=0, select bank0
  1999  030B  00A3               	movwf	Lcd_Cmd@a
  2000  030C                     l1113:
  2001                           
  2002                           ;E:/UVG/Semestre 5/Digital2/Lab3/Lab3.X/LCD.c: 18:  PORTDbits.RD2 = 0;
  2003  030C  1108               	bcf	8,2	;volatile
  2004  030D                     l1115:
  2005                           
  2006                           ;E:/UVG/Semestre 5/Digital2/Lab3/Lab3.X/LCD.c: 19:  Lcd_Port(a);
  2007  030D  0823               	movf	Lcd_Cmd@a,w
  2008  030E  120A  118A  234C  120A  118A  	fcall	_Lcd_Port
  2009  0313                     l1117:
  2010                           
  2011                           ;E:/UVG/Semestre 5/Digital2/Lab3/Lab3.X/LCD.c: 20:  PORTDbits.RD0 = 1;
  2012  0313  1283               	bcf	3,5	;RP0=0, select bank0
  2013  0314  1303               	bcf	3,6	;RP1=0, select bank0
  2014  0315  1408               	bsf	8,0	;volatile
  2015  0316                     l1119:
  2016                           
  2017                           ;E:/UVG/Semestre 5/Digital2/Lab3/Lab3.X/LCD.c: 21:     _delay((unsigned long)((4)*(40000
      +                          00/4000.0)));
  2018  0316  3006               	movlw	6
  2019  0317  1283               	bcf	3,5	;RP0=0, select bank0
  2020  0318  1303               	bcf	3,6	;RP1=0, select bank0
  2021  0319  00A2               	movwf	??_Lcd_Cmd+1
  2022  031A  302F               	movlw	47
  2023  031B  00A1               	movwf	??_Lcd_Cmd
  2024  031C                     u217:
  2025  031C  0BA1               	decfsz	??_Lcd_Cmd,f
  2026  031D  2B1C               	goto	u217
  2027  031E  0BA2               	decfsz	??_Lcd_Cmd+1,f
  2028  031F  2B1C               	goto	u217
  2029  0320  2B21               	nop2
  2030  0321                     l1121:
  2031                           
  2032                           ;E:/UVG/Semestre 5/Digital2/Lab3/Lab3.X/LCD.c: 22:     PORTDbits.RD0 = 0;
  2033  0321  1283               	bcf	3,5	;RP0=0, select bank0
  2034  0322  1303               	bcf	3,6	;RP1=0, select bank0
  2035  0323  1008               	bcf	8,0	;volatile
  2036  0324                     l149:
  2037  0324  0008               	return
  2038  0325                     __end_of_Lcd_Cmd:
  2039                           
  2040                           	psect	text7
  2041  034C                     __ptext7:	
  2042 ;; *************** function _Lcd_Port *****************
  2043 ;; Defined at:
  2044 ;;		line 13 in file "E:/UVG/Semestre 5/Digital2/Lab3/Lab3.X/LCD.c"
  2045 ;; Parameters:    Size  Location     Type
  2046 ;;  a               1    wreg     unsigned char 
  2047 ;; Auto vars:     Size  Location     Type
  2048 ;;  a               1    0[BANK0 ] unsigned char 
  2049 ;; Return value:  Size  Location     Type
  2050 ;;                  1    wreg      void 
  2051 ;; Registers used:
  2052 ;;		wreg
  2053 ;; Tracked objects:
  2054 ;;		On entry : 0/0
  2055 ;;		On exit  : 0/0
  2056 ;;		Unchanged: 0/0
  2057 ;; Data sizes:     COMMON   BANK0   BANK1   BANK3   BANK2
  2058 ;;      Params:         0       0       0       0       0
  2059 ;;      Locals:         0       1       0       0       0
  2060 ;;      Temps:          0       0       0       0       0
  2061 ;;      Totals:         0       1       0       0       0
  2062 ;;Total ram usage:        1 bytes
  2063 ;; Hardware stack levels used:    1
  2064 ;; Hardware stack levels required when called:    2
  2065 ;; This function calls:
  2066 ;;		Nothing
  2067 ;; This function is called by:
  2068 ;;		_Lcd_Cmd
  2069 ;;		_Lcd_Init
  2070 ;;		_Lcd_Write_Char
  2071 ;; This function uses a non-reentrant model
  2072 ;;
  2073                           
  2074                           
  2075                           ;psect for function _Lcd_Port
  2076  034C                     _Lcd_Port:
  2077                           
  2078                           ;incstack = 0
  2079                           ; Regs used in _Lcd_Port: [wreg]
  2080                           ;Lcd_Port@a stored from wreg
  2081  034C  1283               	bcf	3,5	;RP0=0, select bank0
  2082  034D  1303               	bcf	3,6	;RP1=0, select bank0
  2083  034E  00A0               	movwf	Lcd_Port@a
  2084  034F                     l1111:
  2085                           
  2086                           ;E:/UVG/Semestre 5/Digital2/Lab3/Lab3.X/LCD.c: 14:  PORTA = a;
  2087  034F  0820               	movf	Lcd_Port@a,w
  2088  0350  0085               	movwf	5	;volatile
  2089  0351                     l146:
  2090  0351  0008               	return
  2091  0352                     __end_of_Lcd_Port:
  2092                           
  2093                           	psect	text8
  2094  022A                     __ptext8:	
  2095 ;; *************** function _isr *****************
  2096 ;; Defined at:
  2097 ;;		line 64 in file "code.c"
  2098 ;; Parameters:    Size  Location     Type
  2099 ;;		None
  2100 ;; Auto vars:     Size  Location     Type
  2101 ;;		None
  2102 ;; Return value:  Size  Location     Type
  2103 ;;                  1    wreg      void 
  2104 ;; Registers used:
  2105 ;;		wreg, fsr0l, fsr0h, status,2, status,0, pclath, cstack
  2106 ;; Tracked objects:
  2107 ;;		On entry : 0/0
  2108 ;;		On exit  : 0/0
  2109 ;;		Unchanged: 0/0
  2110 ;; Data sizes:     COMMON   BANK0   BANK1   BANK3   BANK2
  2111 ;;      Params:         0       0       0       0       0
  2112 ;;      Locals:         0       0       0       0       0
  2113 ;;      Temps:          4       0       0       0       0
  2114 ;;      Totals:         4       0       0       0       0
  2115 ;;Total ram usage:        4 bytes
  2116 ;; Hardware stack levels used:    1
  2117 ;; Hardware stack levels required when called:    1
  2118 ;; This function calls:
  2119 ;;		i1_initADC
  2120 ;; This function is called by:
  2121 ;;		Interrupt level 1
  2122 ;; This function uses a non-reentrant model
  2123 ;;
  2124                           
  2125                           
  2126                           ;psect for function _isr
  2127  022A                     _isr:
  2128  022A                     i1l1249:
  2129                           
  2130                           ;code.c: 65:     (INTCONbits.GIE = 0);
  2131  022A  138B               	bcf	11,7	;volatile
  2132                           
  2133                           ;code.c: 67:     if(INTCONbits.T0IF == 1){
  2134  022B  1D0B               	btfss	11,2	;volatile
  2135  022C  2A2E               	goto	u9_21
  2136  022D  2A2F               	goto	u9_20
  2137  022E                     u9_21:
  2138  022E  2A38               	goto	i1l1257
  2139  022F                     u9_20:
  2140  022F                     i1l1251:
  2141                           
  2142                           ;code.c: 68:         TMR0 = 236;
  2143  022F  30EC               	movlw	236
  2144  0230  1283               	bcf	3,5	;RP0=0, select bank0
  2145  0231  1303               	bcf	3,6	;RP1=0, select bank0
  2146  0232  0081               	movwf	1	;volatile
  2147  0233                     i1l1253:
  2148                           
  2149                           ;code.c: 69:         CONTADOR++;
  2150  0233  3001               	movlw	1
  2151  0234  00F4               	movwf	??_isr
  2152  0235  0874               	movf	??_isr,w
  2153  0236  07A7               	addwf	_CONTADOR,f
  2154  0237                     i1l1255:
  2155                           
  2156                           ;code.c: 70:         INTCONbits.T0IF = 0;
  2157  0237  110B               	bcf	11,2	;volatile
  2158  0238                     i1l1257:
  2159                           
  2160                           ;code.c: 73:     if(PIR1bits.ADIF == 1){
  2161  0238  1283               	bcf	3,5	;RP0=0, select bank0
  2162  0239  1303               	bcf	3,6	;RP1=0, select bank0
  2163  023A  1F0C               	btfss	12,6	;volatile
  2164  023B  2A3D               	goto	u10_21
  2165  023C  2A3E               	goto	u10_20
  2166  023D                     u10_21:
  2167  023D  2A6C               	goto	i1l1277
  2168  023E                     u10_20:
  2169  023E                     i1l1259:
  2170                           
  2171                           ;code.c: 74:         if(FLAGADC == 0){
  2172  023E  0878               	movf	_FLAGADC,w
  2173  023F  1D03               	btfss	3,2
  2174  0240  2A42               	goto	u11_21
  2175  0241  2A43               	goto	u11_20
  2176  0242                     u11_21:
  2177  0242  2A56               	goto	i1l1267
  2178  0243                     u11_20:
  2179  0243                     i1l1261:
  2180                           
  2181                           ;code.c: 75:             VAR_ADC1 = ADRESH;
  2182  0243  081E               	movf	30,w	;volatile
  2183  0244  00F4               	movwf	??_isr
  2184  0245  0874               	movf	??_isr,w
  2185  0246  00FC               	movwf	_VAR_ADC1
  2186                           
  2187                           ;code.c: 76:             PORTB = ADRESH;
  2188  0247  081E               	movf	30,w	;volatile
  2189  0248  0086               	movwf	6	;volatile
  2190  0249                     i1l1263:
  2191                           
  2192                           ;code.c: 77:             initADC(2,5);
  2193  0249  3005               	movlw	5
  2194  024A  00F4               	movwf	??_isr
  2195  024B  0874               	movf	??_isr,w
  2196  024C  00F0               	movwf	i1initADC@CHS
  2197  024D  3002               	movlw	2
  2198  024E  120A  118A  201D  120A  118A  	fcall	i1_initADC
  2199  0253                     i1l1265:
  2200                           
  2201                           ;code.c: 78:             FLAGADC = 1;
  2202  0253  01F8               	clrf	_FLAGADC
  2203  0254  0AF8               	incf	_FLAGADC,f
  2204                           
  2205                           ;code.c: 79:         }
  2206  0255  2A67               	goto	i1l1273
  2207  0256                     i1l1267:
  2208                           
  2209                           ;code.c: 81:             VAR_ADC2 = ADRESH;
  2210  0256  081E               	movf	30,w	;volatile
  2211  0257  00F4               	movwf	??_isr
  2212  0258  0874               	movf	??_isr,w
  2213  0259  00FB               	movwf	_VAR_ADC2
  2214                           
  2215                           ;code.c: 82:             PORTB = ADRESH;
  2216  025A  081E               	movf	30,w	;volatile
  2217  025B  0086               	movwf	6	;volatile
  2218  025C                     i1l1269:
  2219                           
  2220                           ;code.c: 83:             initADC(2,6);
  2221  025C  3006               	movlw	6
  2222  025D  00F4               	movwf	??_isr
  2223  025E  0874               	movf	??_isr,w
  2224  025F  00F0               	movwf	i1initADC@CHS
  2225  0260  3002               	movlw	2
  2226  0261  120A  118A  201D  120A  118A  	fcall	i1_initADC
  2227  0266                     i1l1271:
  2228                           
  2229                           ;code.c: 84:             FLAGADC = 0;
  2230  0266  01F8               	clrf	_FLAGADC
  2231  0267                     i1l1273:
  2232                           
  2233                           ;code.c: 86:         TOGGLE = 1;
  2234  0267  01FA               	clrf	_TOGGLE
  2235  0268  0AFA               	incf	_TOGGLE,f
  2236  0269                     i1l1275:
  2237                           
  2238                           ;code.c: 87:         PIR1bits.ADIF = 0;
  2239  0269  1283               	bcf	3,5	;RP0=0, select bank0
  2240  026A  1303               	bcf	3,6	;RP1=0, select bank0
  2241  026B  130C               	bcf	12,6	;volatile
  2242  026C                     i1l1277:
  2243                           
  2244                           ;code.c: 90:     if(PIR1bits.RCIF == 1){
  2245  026C  1E8C               	btfss	12,5	;volatile
  2246  026D  2A6F               	goto	u12_21
  2247  026E  2A70               	goto	u12_20
  2248  026F                     u12_21:
  2249  026F  2A74               	goto	i1l1281
  2250  0270                     u12_20:
  2251  0270                     i1l1279:
  2252                           
  2253                           ;code.c: 91:         RECEPCION = RCREG;
  2254  0270  081A               	movf	26,w	;volatile
  2255  0271  00F4               	movwf	??_isr
  2256  0272  0874               	movf	??_isr,w
  2257  0273  00F9               	movwf	_RECEPCION
  2258  0274                     i1l1281:
  2259                           
  2260                           ;code.c: 93:     (INTCONbits.GIE = 1);
  2261  0274  178B               	bsf	11,7	;volatile
  2262  0275                     i1l84:
  2263  0275  0877               	movf	??_isr+3,w
  2264  0276  008A               	movwf	10
  2265  0277  0876               	movf	??_isr+2,w
  2266  0278  0084               	movwf	4
  2267  0279  0E75               	swapf	??_isr+1,w
  2268  027A  0083               	movwf	3
  2269  027B  0EFE               	swapf	btemp,f
  2270  027C  0E7E               	swapf	btemp,w
  2271  027D  0009               	retfie
  2272  027E                     __end_of_isr:
  2273                           
  2274                           	psect	intentry
  2275  0004                     __pintentry:	
  2276                           ;incstack = 0
  2277                           ; Regs used in _isr: [wreg-fsr0h+status,2+status,0+pclath+cstack]
  2278                           
  2279  0004                     interrupt_function:
  2280  007E                     saved_w	set	btemp
  2281  0004  00FE               	movwf	btemp
  2282  0005  0E03               	swapf	3,w
  2283  0006  00F5               	movwf	??_isr+1
  2284  0007  0804               	movf	4,w
  2285  0008  00F6               	movwf	??_isr+2
  2286  0009  080A               	movf	10,w
  2287  000A  00F7               	movwf	??_isr+3
  2288  000B  120A  118A  2A2A   	ljmp	_isr
  2289                           
  2290                           	psect	text9
  2291  001D                     __ptext9:	
  2292 ;; *************** function i1_initADC *****************
  2293 ;; Defined at:
  2294 ;;		line 6 in file "E:/UVG/Semestre 5/Digital2/Lab3/Lab3.X/ADC.c"
  2295 ;; Parameters:    Size  Location     Type
  2296 ;;  ADCS            1    wreg     unsigned char 
  2297 ;;  CHS             1    0[COMMON] unsigned char 
  2298 ;; Auto vars:     Size  Location     Type
  2299 ;;  ADCS            1    3[COMMON] unsigned char 
  2300 ;; Return value:  Size  Location     Type
  2301 ;;                  1    wreg      void 
  2302 ;; Registers used:
  2303 ;;		wreg, fsr0l, fsr0h, status,2, status,0
  2304 ;; Tracked objects:
  2305 ;;		On entry : 0/0
  2306 ;;		On exit  : 0/0
  2307 ;;		Unchanged: 0/0
  2308 ;; Data sizes:     COMMON   BANK0   BANK1   BANK3   BANK2
  2309 ;;      Params:         1       0       0       0       0
  2310 ;;      Locals:         1       0       0       0       0
  2311 ;;      Temps:          2       0       0       0       0
  2312 ;;      Totals:         4       0       0       0       0
  2313 ;;Total ram usage:        4 bytes
  2314 ;; Hardware stack levels used:    1
  2315 ;; This function calls:
  2316 ;;		Nothing
  2317 ;; This function is called by:
  2318 ;;		_isr
  2319 ;; This function uses a non-reentrant model
  2320 ;;
  2321                           
  2322                           
  2323                           ;psect for function i1_initADC
  2324  001D                     i1_initADC:
  2325                           
  2326                           ;incstack = 0
  2327                           ; Regs used in i1_initADC: [wreg-fsr0h+status,2+status,0]
  2328                           ;i1initADC@ADCS stored from wreg
  2329  001D  00F3               	movwf	i1initADC@ADCS
  2330  001E                     i1l1227:
  2331                           
  2332                           ;E:/UVG/Semestre 5/Digital2/Lab3/Lab3.X/ADC.c: 8:     switch(CHS){
  2333  001E  2896               	goto	i1l1231
  2334  001F                     i1l112:	
  2335                           ;E:/UVG/Semestre 5/Digital2/Lab3/Lab3.X/ADC.c: 9:         case 0:
  2336                           
  2337                           
  2338                           ;E:/UVG/Semestre 5/Digital2/Lab3/Lab3.X/ADC.c: 10:             ADCON0bits.CHS3 = 0;
  2339  001F  1283               	bcf	3,5	;RP0=0, select bank0
  2340  0020  1303               	bcf	3,6	;RP1=0, select bank0
  2341  0021  129F               	bcf	31,5	;volatile
  2342                           
  2343                           ;E:/UVG/Semestre 5/Digital2/Lab3/Lab3.X/ADC.c: 11:             ADCON0bits.CHS2 = 0;
  2344  0022  121F               	bcf	31,4	;volatile
  2345                           
  2346                           ;E:/UVG/Semestre 5/Digital2/Lab3/Lab3.X/ADC.c: 12:             ADCON0bits.CHS1 = 0;
  2347  0023  119F               	bcf	31,3	;volatile
  2348                           
  2349                           ;E:/UVG/Semestre 5/Digital2/Lab3/Lab3.X/ADC.c: 13:             ADCON0bits.CHS0 = 0;
  2350  0024  111F               	bcf	31,2	;volatile
  2351                           
  2352                           ;E:/UVG/Semestre 5/Digital2/Lab3/Lab3.X/ADC.c: 14:             break;
  2353  0025  28DF               	goto	i1l1235
  2354  0026                     i1l114:	
  2355                           ;E:/UVG/Semestre 5/Digital2/Lab3/Lab3.X/ADC.c: 15:         case 1:
  2356                           
  2357                           
  2358                           ;E:/UVG/Semestre 5/Digital2/Lab3/Lab3.X/ADC.c: 16:             ADCON0bits.CHS3 = 0;
  2359  0026  1283               	bcf	3,5	;RP0=0, select bank0
  2360  0027  1303               	bcf	3,6	;RP1=0, select bank0
  2361  0028  129F               	bcf	31,5	;volatile
  2362                           
  2363                           ;E:/UVG/Semestre 5/Digital2/Lab3/Lab3.X/ADC.c: 17:             ADCON0bits.CHS2 = 0;
  2364  0029  121F               	bcf	31,4	;volatile
  2365                           
  2366                           ;E:/UVG/Semestre 5/Digital2/Lab3/Lab3.X/ADC.c: 18:             ADCON0bits.CHS1 = 0;
  2367  002A  119F               	bcf	31,3	;volatile
  2368                           
  2369                           ;E:/UVG/Semestre 5/Digital2/Lab3/Lab3.X/ADC.c: 19:             ADCON0bits.CHS0 = 1;
  2370  002B  151F               	bsf	31,2	;volatile
  2371                           
  2372                           ;E:/UVG/Semestre 5/Digital2/Lab3/Lab3.X/ADC.c: 20:             break;
  2373  002C  28DF               	goto	i1l1235
  2374  002D                     i1l115:	
  2375                           ;E:/UVG/Semestre 5/Digital2/Lab3/Lab3.X/ADC.c: 21:         case 2:
  2376                           
  2377                           
  2378                           ;E:/UVG/Semestre 5/Digital2/Lab3/Lab3.X/ADC.c: 22:             ADCON0bits.CHS3 = 0;
  2379  002D  1283               	bcf	3,5	;RP0=0, select bank0
  2380  002E  1303               	bcf	3,6	;RP1=0, select bank0
  2381  002F  129F               	bcf	31,5	;volatile
  2382                           
  2383                           ;E:/UVG/Semestre 5/Digital2/Lab3/Lab3.X/ADC.c: 23:             ADCON0bits.CHS2 = 0;
  2384  0030  121F               	bcf	31,4	;volatile
  2385                           
  2386                           ;E:/UVG/Semestre 5/Digital2/Lab3/Lab3.X/ADC.c: 24:             ADCON0bits.CHS1 = 1;
  2387  0031  159F               	bsf	31,3	;volatile
  2388                           
  2389                           ;E:/UVG/Semestre 5/Digital2/Lab3/Lab3.X/ADC.c: 25:             ADCON0bits.CHS0 = 0;
  2390  0032  111F               	bcf	31,2	;volatile
  2391                           
  2392                           ;E:/UVG/Semestre 5/Digital2/Lab3/Lab3.X/ADC.c: 26:             break;
  2393  0033  28DF               	goto	i1l1235
  2394  0034                     i1l116:	
  2395                           ;E:/UVG/Semestre 5/Digital2/Lab3/Lab3.X/ADC.c: 27:         case 3:
  2396                           
  2397                           
  2398                           ;E:/UVG/Semestre 5/Digital2/Lab3/Lab3.X/ADC.c: 28:             ADCON0bits.CHS3 = 0;
  2399  0034  1283               	bcf	3,5	;RP0=0, select bank0
  2400  0035  1303               	bcf	3,6	;RP1=0, select bank0
  2401  0036  129F               	bcf	31,5	;volatile
  2402                           
  2403                           ;E:/UVG/Semestre 5/Digital2/Lab3/Lab3.X/ADC.c: 29:             ADCON0bits.CHS2 = 0;
  2404  0037  121F               	bcf	31,4	;volatile
  2405                           
  2406                           ;E:/UVG/Semestre 5/Digital2/Lab3/Lab3.X/ADC.c: 30:             ADCON0bits.CHS1 = 1;
  2407  0038  159F               	bsf	31,3	;volatile
  2408                           
  2409                           ;E:/UVG/Semestre 5/Digital2/Lab3/Lab3.X/ADC.c: 31:             ADCON0bits.CHS0 = 1;
  2410  0039  151F               	bsf	31,2	;volatile
  2411                           
  2412                           ;E:/UVG/Semestre 5/Digital2/Lab3/Lab3.X/ADC.c: 32:             break;
  2413  003A  28DF               	goto	i1l1235
  2414  003B                     i1l117:	
  2415                           ;E:/UVG/Semestre 5/Digital2/Lab3/Lab3.X/ADC.c: 33:         case 4:
  2416                           
  2417                           
  2418                           ;E:/UVG/Semestre 5/Digital2/Lab3/Lab3.X/ADC.c: 34:             ADCON0bits.CHS3 = 0;
  2419  003B  1283               	bcf	3,5	;RP0=0, select bank0
  2420  003C  1303               	bcf	3,6	;RP1=0, select bank0
  2421  003D  129F               	bcf	31,5	;volatile
  2422                           
  2423                           ;E:/UVG/Semestre 5/Digital2/Lab3/Lab3.X/ADC.c: 35:             ADCON0bits.CHS2 = 1;
  2424  003E  161F               	bsf	31,4	;volatile
  2425                           
  2426                           ;E:/UVG/Semestre 5/Digital2/Lab3/Lab3.X/ADC.c: 36:             ADCON0bits.CHS1 = 0;
  2427  003F  119F               	bcf	31,3	;volatile
  2428                           
  2429                           ;E:/UVG/Semestre 5/Digital2/Lab3/Lab3.X/ADC.c: 37:             ADCON0bits.CHS0 = 0;
  2430  0040  111F               	bcf	31,2	;volatile
  2431                           
  2432                           ;E:/UVG/Semestre 5/Digital2/Lab3/Lab3.X/ADC.c: 38:             break;
  2433  0041  28DF               	goto	i1l1235
  2434  0042                     i1l118:	
  2435                           ;E:/UVG/Semestre 5/Digital2/Lab3/Lab3.X/ADC.c: 39:         case 5:
  2436                           
  2437                           
  2438                           ;E:/UVG/Semestre 5/Digital2/Lab3/Lab3.X/ADC.c: 40:             ADCON0bits.CHS3 = 0;
  2439  0042  1283               	bcf	3,5	;RP0=0, select bank0
  2440  0043  1303               	bcf	3,6	;RP1=0, select bank0
  2441  0044  129F               	bcf	31,5	;volatile
  2442                           
  2443                           ;E:/UVG/Semestre 5/Digital2/Lab3/Lab3.X/ADC.c: 41:             ADCON0bits.CHS2 = 1;
  2444  0045  161F               	bsf	31,4	;volatile
  2445                           
  2446                           ;E:/UVG/Semestre 5/Digital2/Lab3/Lab3.X/ADC.c: 42:             ADCON0bits.CHS1 = 0;
  2447  0046  119F               	bcf	31,3	;volatile
  2448                           
  2449                           ;E:/UVG/Semestre 5/Digital2/Lab3/Lab3.X/ADC.c: 43:             ADCON0bits.CHS0 = 1;
  2450  0047  151F               	bsf	31,2	;volatile
  2451                           
  2452                           ;E:/UVG/Semestre 5/Digital2/Lab3/Lab3.X/ADC.c: 44:             break;
  2453  0048  28DF               	goto	i1l1235
  2454  0049                     i1l119:	
  2455                           ;E:/UVG/Semestre 5/Digital2/Lab3/Lab3.X/ADC.c: 45:         case 6:
  2456                           
  2457                           
  2458                           ;E:/UVG/Semestre 5/Digital2/Lab3/Lab3.X/ADC.c: 46:             ADCON0bits.CHS3 = 0;
  2459  0049  1283               	bcf	3,5	;RP0=0, select bank0
  2460  004A  1303               	bcf	3,6	;RP1=0, select bank0
  2461  004B  129F               	bcf	31,5	;volatile
  2462                           
  2463                           ;E:/UVG/Semestre 5/Digital2/Lab3/Lab3.X/ADC.c: 47:             ADCON0bits.CHS2 = 1;
  2464  004C  161F               	bsf	31,4	;volatile
  2465                           
  2466                           ;E:/UVG/Semestre 5/Digital2/Lab3/Lab3.X/ADC.c: 48:             ADCON0bits.CHS1 = 1;
  2467  004D  159F               	bsf	31,3	;volatile
  2468                           
  2469                           ;E:/UVG/Semestre 5/Digital2/Lab3/Lab3.X/ADC.c: 49:             ADCON0bits.CHS0 = 0;
  2470  004E  111F               	bcf	31,2	;volatile
  2471                           
  2472                           ;E:/UVG/Semestre 5/Digital2/Lab3/Lab3.X/ADC.c: 50:             break;
  2473  004F  28DF               	goto	i1l1235
  2474  0050                     i1l120:	
  2475                           ;E:/UVG/Semestre 5/Digital2/Lab3/Lab3.X/ADC.c: 51:         case 7:
  2476                           
  2477                           
  2478                           ;E:/UVG/Semestre 5/Digital2/Lab3/Lab3.X/ADC.c: 52:             ADCON0bits.CHS3 = 0;
  2479  0050  1283               	bcf	3,5	;RP0=0, select bank0
  2480  0051  1303               	bcf	3,6	;RP1=0, select bank0
  2481  0052  129F               	bcf	31,5	;volatile
  2482                           
  2483                           ;E:/UVG/Semestre 5/Digital2/Lab3/Lab3.X/ADC.c: 53:             ADCON0bits.CHS2 = 1;
  2484  0053  161F               	bsf	31,4	;volatile
  2485                           
  2486                           ;E:/UVG/Semestre 5/Digital2/Lab3/Lab3.X/ADC.c: 54:             ADCON0bits.CHS1 = 1;
  2487  0054  159F               	bsf	31,3	;volatile
  2488                           
  2489                           ;E:/UVG/Semestre 5/Digital2/Lab3/Lab3.X/ADC.c: 55:             ADCON0bits.CHS0 = 1;
  2490  0055  151F               	bsf	31,2	;volatile
  2491                           
  2492                           ;E:/UVG/Semestre 5/Digital2/Lab3/Lab3.X/ADC.c: 56:             break;
  2493  0056  28DF               	goto	i1l1235
  2494  0057                     i1l121:	
  2495                           ;E:/UVG/Semestre 5/Digital2/Lab3/Lab3.X/ADC.c: 57:         case 8:
  2496                           
  2497                           
  2498                           ;E:/UVG/Semestre 5/Digital2/Lab3/Lab3.X/ADC.c: 58:             ADCON0bits.CHS3 = 1;
  2499  0057  1283               	bcf	3,5	;RP0=0, select bank0
  2500  0058  1303               	bcf	3,6	;RP1=0, select bank0
  2501  0059  169F               	bsf	31,5	;volatile
  2502                           
  2503                           ;E:/UVG/Semestre 5/Digital2/Lab3/Lab3.X/ADC.c: 59:             ADCON0bits.CHS2 = 0;
  2504  005A  121F               	bcf	31,4	;volatile
  2505                           
  2506                           ;E:/UVG/Semestre 5/Digital2/Lab3/Lab3.X/ADC.c: 60:             ADCON0bits.CHS1 = 0;
  2507  005B  119F               	bcf	31,3	;volatile
  2508                           
  2509                           ;E:/UVG/Semestre 5/Digital2/Lab3/Lab3.X/ADC.c: 61:             ADCON0bits.CHS0 = 0;
  2510  005C  111F               	bcf	31,2	;volatile
  2511                           
  2512                           ;E:/UVG/Semestre 5/Digital2/Lab3/Lab3.X/ADC.c: 62:             break;
  2513  005D  28DF               	goto	i1l1235
  2514  005E                     i1l122:	
  2515                           ;E:/UVG/Semestre 5/Digital2/Lab3/Lab3.X/ADC.c: 63:         case 9:
  2516                           
  2517                           
  2518                           ;E:/UVG/Semestre 5/Digital2/Lab3/Lab3.X/ADC.c: 64:             ADCON0bits.CHS3 = 1;
  2519  005E  1283               	bcf	3,5	;RP0=0, select bank0
  2520  005F  1303               	bcf	3,6	;RP1=0, select bank0
  2521  0060  169F               	bsf	31,5	;volatile
  2522                           
  2523                           ;E:/UVG/Semestre 5/Digital2/Lab3/Lab3.X/ADC.c: 65:             ADCON0bits.CHS2 = 0;
  2524  0061  121F               	bcf	31,4	;volatile
  2525                           
  2526                           ;E:/UVG/Semestre 5/Digital2/Lab3/Lab3.X/ADC.c: 66:             ADCON0bits.CHS1 = 0;
  2527  0062  119F               	bcf	31,3	;volatile
  2528                           
  2529                           ;E:/UVG/Semestre 5/Digital2/Lab3/Lab3.X/ADC.c: 67:             ADCON0bits.CHS0 = 1;
  2530  0063  151F               	bsf	31,2	;volatile
  2531                           
  2532                           ;E:/UVG/Semestre 5/Digital2/Lab3/Lab3.X/ADC.c: 68:             break;
  2533  0064  28DF               	goto	i1l1235
  2534  0065                     i1l123:	
  2535                           ;E:/UVG/Semestre 5/Digital2/Lab3/Lab3.X/ADC.c: 69:         case 10:
  2536                           
  2537                           
  2538                           ;E:/UVG/Semestre 5/Digital2/Lab3/Lab3.X/ADC.c: 70:             ADCON0bits.CHS3 = 1;
  2539  0065  1283               	bcf	3,5	;RP0=0, select bank0
  2540  0066  1303               	bcf	3,6	;RP1=0, select bank0
  2541  0067  169F               	bsf	31,5	;volatile
  2542                           
  2543                           ;E:/UVG/Semestre 5/Digital2/Lab3/Lab3.X/ADC.c: 71:             ADCON0bits.CHS2 = 0;
  2544  0068  121F               	bcf	31,4	;volatile
  2545                           
  2546                           ;E:/UVG/Semestre 5/Digital2/Lab3/Lab3.X/ADC.c: 72:             ADCON0bits.CHS1 = 1;
  2547  0069  159F               	bsf	31,3	;volatile
  2548                           
  2549                           ;E:/UVG/Semestre 5/Digital2/Lab3/Lab3.X/ADC.c: 73:             ADCON0bits.CHS0 = 0;
  2550  006A  111F               	bcf	31,2	;volatile
  2551                           
  2552                           ;E:/UVG/Semestre 5/Digital2/Lab3/Lab3.X/ADC.c: 74:             break;
  2553  006B  28DF               	goto	i1l1235
  2554  006C                     i1l124:	
  2555                           ;E:/UVG/Semestre 5/Digital2/Lab3/Lab3.X/ADC.c: 75:         case 11:
  2556                           
  2557                           
  2558                           ;E:/UVG/Semestre 5/Digital2/Lab3/Lab3.X/ADC.c: 76:             ADCON0bits.CHS3 = 1;
  2559  006C  1283               	bcf	3,5	;RP0=0, select bank0
  2560  006D  1303               	bcf	3,6	;RP1=0, select bank0
  2561  006E  169F               	bsf	31,5	;volatile
  2562                           
  2563                           ;E:/UVG/Semestre 5/Digital2/Lab3/Lab3.X/ADC.c: 77:             ADCON0bits.CHS2 = 0;
  2564  006F  121F               	bcf	31,4	;volatile
  2565                           
  2566                           ;E:/UVG/Semestre 5/Digital2/Lab3/Lab3.X/ADC.c: 78:             ADCON0bits.CHS1 = 1;
  2567  0070  159F               	bsf	31,3	;volatile
  2568                           
  2569                           ;E:/UVG/Semestre 5/Digital2/Lab3/Lab3.X/ADC.c: 79:             ADCON0bits.CHS0 = 1;
  2570  0071  151F               	bsf	31,2	;volatile
  2571                           
  2572                           ;E:/UVG/Semestre 5/Digital2/Lab3/Lab3.X/ADC.c: 80:             break;
  2573  0072  28DF               	goto	i1l1235
  2574  0073                     i1l125:	
  2575                           ;E:/UVG/Semestre 5/Digital2/Lab3/Lab3.X/ADC.c: 81:         case 12:
  2576                           
  2577                           
  2578                           ;E:/UVG/Semestre 5/Digital2/Lab3/Lab3.X/ADC.c: 82:             ADCON0bits.CHS3 = 1;
  2579  0073  1283               	bcf	3,5	;RP0=0, select bank0
  2580  0074  1303               	bcf	3,6	;RP1=0, select bank0
  2581  0075  169F               	bsf	31,5	;volatile
  2582                           
  2583                           ;E:/UVG/Semestre 5/Digital2/Lab3/Lab3.X/ADC.c: 83:             ADCON0bits.CHS2 = 1;
  2584  0076  161F               	bsf	31,4	;volatile
  2585                           
  2586                           ;E:/UVG/Semestre 5/Digital2/Lab3/Lab3.X/ADC.c: 84:             ADCON0bits.CHS1 = 0;
  2587  0077  119F               	bcf	31,3	;volatile
  2588                           
  2589                           ;E:/UVG/Semestre 5/Digital2/Lab3/Lab3.X/ADC.c: 85:             ADCON0bits.CHS0 = 0;
  2590  0078  111F               	bcf	31,2	;volatile
  2591                           
  2592                           ;E:/UVG/Semestre 5/Digital2/Lab3/Lab3.X/ADC.c: 86:             break;
  2593  0079  28DF               	goto	i1l1235
  2594  007A                     i1l126:	
  2595                           ;E:/UVG/Semestre 5/Digital2/Lab3/Lab3.X/ADC.c: 87:         case 13:
  2596                           
  2597                           
  2598                           ;E:/UVG/Semestre 5/Digital2/Lab3/Lab3.X/ADC.c: 88:             ADCON0bits.CHS3 = 1;
  2599  007A  1283               	bcf	3,5	;RP0=0, select bank0
  2600  007B  1303               	bcf	3,6	;RP1=0, select bank0
  2601  007C  169F               	bsf	31,5	;volatile
  2602                           
  2603                           ;E:/UVG/Semestre 5/Digital2/Lab3/Lab3.X/ADC.c: 89:             ADCON0bits.CHS2 = 1;
  2604  007D  161F               	bsf	31,4	;volatile
  2605                           
  2606                           ;E:/UVG/Semestre 5/Digital2/Lab3/Lab3.X/ADC.c: 90:             ADCON0bits.CHS1 = 0;
  2607  007E  119F               	bcf	31,3	;volatile
  2608                           
  2609                           ;E:/UVG/Semestre 5/Digital2/Lab3/Lab3.X/ADC.c: 91:             ADCON0bits.CHS0 = 1;
  2610  007F  151F               	bsf	31,2	;volatile
  2611                           
  2612                           ;E:/UVG/Semestre 5/Digital2/Lab3/Lab3.X/ADC.c: 92:             break;
  2613  0080  28DF               	goto	i1l1235
  2614  0081                     i1l127:	
  2615                           ;E:/UVG/Semestre 5/Digital2/Lab3/Lab3.X/ADC.c: 93:         case 14:
  2616                           
  2617                           
  2618                           ;E:/UVG/Semestre 5/Digital2/Lab3/Lab3.X/ADC.c: 94:             ADCON0bits.CHS3 = 1;
  2619  0081  1283               	bcf	3,5	;RP0=0, select bank0
  2620  0082  1303               	bcf	3,6	;RP1=0, select bank0
  2621  0083  169F               	bsf	31,5	;volatile
  2622                           
  2623                           ;E:/UVG/Semestre 5/Digital2/Lab3/Lab3.X/ADC.c: 95:             ADCON0bits.CHS2 = 1;
  2624  0084  161F               	bsf	31,4	;volatile
  2625                           
  2626                           ;E:/UVG/Semestre 5/Digital2/Lab3/Lab3.X/ADC.c: 96:             ADCON0bits.CHS1 = 1;
  2627  0085  159F               	bsf	31,3	;volatile
  2628                           
  2629                           ;E:/UVG/Semestre 5/Digital2/Lab3/Lab3.X/ADC.c: 97:             ADCON0bits.CHS0 = 0;
  2630  0086  111F               	bcf	31,2	;volatile
  2631                           
  2632                           ;E:/UVG/Semestre 5/Digital2/Lab3/Lab3.X/ADC.c: 98:             break;
  2633  0087  28DF               	goto	i1l1235
  2634  0088                     i1l128:	
  2635                           ;E:/UVG/Semestre 5/Digital2/Lab3/Lab3.X/ADC.c: 99:         case 15:
  2636                           
  2637                           
  2638                           ;E:/UVG/Semestre 5/Digital2/Lab3/Lab3.X/ADC.c: 100:             ADCON0bits.CHS3 = 1;
  2639  0088  1283               	bcf	3,5	;RP0=0, select bank0
  2640  0089  1303               	bcf	3,6	;RP1=0, select bank0
  2641  008A  169F               	bsf	31,5	;volatile
  2642                           
  2643                           ;E:/UVG/Semestre 5/Digital2/Lab3/Lab3.X/ADC.c: 101:             ADCON0bits.CHS2 = 1;
  2644  008B  161F               	bsf	31,4	;volatile
  2645                           
  2646                           ;E:/UVG/Semestre 5/Digital2/Lab3/Lab3.X/ADC.c: 102:             ADCON0bits.CHS1 = 1;
  2647  008C  159F               	bsf	31,3	;volatile
  2648                           
  2649                           ;E:/UVG/Semestre 5/Digital2/Lab3/Lab3.X/ADC.c: 103:             ADCON0bits.CHS0 = 1;
  2650  008D  151F               	bsf	31,2	;volatile
  2651                           
  2652                           ;E:/UVG/Semestre 5/Digital2/Lab3/Lab3.X/ADC.c: 104:             break;
  2653  008E  28DF               	goto	i1l1235
  2654  008F                     i1l129:	
  2655                           ;E:/UVG/Semestre 5/Digital2/Lab3/Lab3.X/ADC.c: 105:         default:
  2656                           
  2657                           
  2658                           ;E:/UVG/Semestre 5/Digital2/Lab3/Lab3.X/ADC.c: 106:             ADCON0bits.CHS3 = 0;
  2659  008F  1283               	bcf	3,5	;RP0=0, select bank0
  2660  0090  1303               	bcf	3,6	;RP1=0, select bank0
  2661  0091  129F               	bcf	31,5	;volatile
  2662                           
  2663                           ;E:/UVG/Semestre 5/Digital2/Lab3/Lab3.X/ADC.c: 107:             ADCON0bits.CHS2 = 0;
  2664  0092  121F               	bcf	31,4	;volatile
  2665                           
  2666                           ;E:/UVG/Semestre 5/Digital2/Lab3/Lab3.X/ADC.c: 108:             ADCON0bits.CHS1 = 0;
  2667  0093  119F               	bcf	31,3	;volatile
  2668                           
  2669                           ;E:/UVG/Semestre 5/Digital2/Lab3/Lab3.X/ADC.c: 109:             ADCON0bits.CHS0 = 0;
  2670  0094  111F               	bcf	31,2	;volatile
  2671                           
  2672                           ;E:/UVG/Semestre 5/Digital2/Lab3/Lab3.X/ADC.c: 110:             break;
  2673  0095  28DF               	goto	i1l1235
  2674  0096                     i1l1231:
  2675  0096  0870               	movf	i1initADC@CHS,w
  2676  0097  00F1               	movwf	??i1_initADC
  2677  0098  01F2               	clrf	??i1_initADC+1
  2678                           
  2679                           ; Switch on 2 bytes has been partitioned into a top level switch of size 1, and 1 sub-sw
      +                          itches
  2680                           ; Switch size 1, requested type "simple"
  2681                           ; Number of cases is 1, Range of values is 0 to 0
  2682                           ; switch strategies available:
  2683                           ; Name         Instructions Cycles
  2684                           ; simple_byte            4     3 (average)
  2685                           ; direct_byte           11     8 (fixed)
  2686                           ; jumptable            260     6 (fixed)
  2687                           ;	Chosen strategy is simple_byte
  2688  0099  0872               	movf	??i1_initADC+1,w
  2689  009A  3A00               	xorlw	0	; case 0
  2690  009B  1903               	skipnz
  2691  009C  289E               	goto	i1l1467
  2692  009D  288F               	goto	i1l129
  2693  009E                     i1l1467:
  2694                           
  2695                           ; Switch size 1, requested type "simple"
  2696                           ; Number of cases is 16, Range of values is 0 to 15
  2697                           ; switch strategies available:
  2698                           ; Name         Instructions Cycles
  2699                           ; simple_byte           49    25 (average)
  2700                           ; direct_byte           56     8 (fixed)
  2701                           ; jumptable            260     6 (fixed)
  2702                           ;	Chosen strategy is simple_byte
  2703  009E  0871               	movf	??i1_initADC,w
  2704  009F  3A00               	xorlw	0	; case 0
  2705  00A0  1903               	skipnz
  2706  00A1  281F               	goto	i1l112
  2707  00A2  3A01               	xorlw	1	; case 1
  2708  00A3  1903               	skipnz
  2709  00A4  2826               	goto	i1l114
  2710  00A5  3A03               	xorlw	3	; case 2
  2711  00A6  1903               	skipnz
  2712  00A7  282D               	goto	i1l115
  2713  00A8  3A01               	xorlw	1	; case 3
  2714  00A9  1903               	skipnz
  2715  00AA  2834               	goto	i1l116
  2716  00AB  3A07               	xorlw	7	; case 4
  2717  00AC  1903               	skipnz
  2718  00AD  283B               	goto	i1l117
  2719  00AE  3A01               	xorlw	1	; case 5
  2720  00AF  1903               	skipnz
  2721  00B0  2842               	goto	i1l118
  2722  00B1  3A03               	xorlw	3	; case 6
  2723  00B2  1903               	skipnz
  2724  00B3  2849               	goto	i1l119
  2725  00B4  3A01               	xorlw	1	; case 7
  2726  00B5  1903               	skipnz
  2727  00B6  2850               	goto	i1l120
  2728  00B7  3A0F               	xorlw	15	; case 8
  2729  00B8  1903               	skipnz
  2730  00B9  2857               	goto	i1l121
  2731  00BA  3A01               	xorlw	1	; case 9
  2732  00BB  1903               	skipnz
  2733  00BC  285E               	goto	i1l122
  2734  00BD  3A03               	xorlw	3	; case 10
  2735  00BE  1903               	skipnz
  2736  00BF  2865               	goto	i1l123
  2737  00C0  3A01               	xorlw	1	; case 11
  2738  00C1  1903               	skipnz
  2739  00C2  286C               	goto	i1l124
  2740  00C3  3A07               	xorlw	7	; case 12
  2741  00C4  1903               	skipnz
  2742  00C5  2873               	goto	i1l125
  2743  00C6  3A01               	xorlw	1	; case 13
  2744  00C7  1903               	skipnz
  2745  00C8  287A               	goto	i1l126
  2746  00C9  3A03               	xorlw	3	; case 14
  2747  00CA  1903               	skipnz
  2748  00CB  2881               	goto	i1l127
  2749  00CC  3A01               	xorlw	1	; case 15
  2750  00CD  1903               	skipnz
  2751  00CE  2888               	goto	i1l128
  2752  00CF  288F               	goto	i1l129
  2753  00D0                     i1l131:	
  2754                           ;E:/UVG/Semestre 5/Digital2/Lab3/Lab3.X/ADC.c: 114:         case 0:
  2755                           
  2756                           
  2757                           ;E:/UVG/Semestre 5/Digital2/Lab3/Lab3.X/ADC.c: 115:             ADCON0bits.ADCS0 = 0;
  2758  00D0  131F               	bcf	31,6	;volatile
  2759                           
  2760                           ;E:/UVG/Semestre 5/Digital2/Lab3/Lab3.X/ADC.c: 116:             ADCON0bits.ADCS0 = 0;
  2761  00D1  131F               	bcf	31,6	;volatile
  2762                           
  2763                           ;E:/UVG/Semestre 5/Digital2/Lab3/Lab3.X/ADC.c: 117:             break;
  2764  00D2  28F5               	goto	i1l132
  2765  00D3                     i1l133:	
  2766                           ;E:/UVG/Semestre 5/Digital2/Lab3/Lab3.X/ADC.c: 118:         case 1:
  2767                           
  2768                           
  2769                           ;E:/UVG/Semestre 5/Digital2/Lab3/Lab3.X/ADC.c: 119:             ADCON0bits.ADCS0 = 0;
  2770  00D3  131F               	bcf	31,6	;volatile
  2771                           
  2772                           ;E:/UVG/Semestre 5/Digital2/Lab3/Lab3.X/ADC.c: 120:             ADCON0bits.ADCS0 = 1;
  2773  00D4  171F               	bsf	31,6	;volatile
  2774                           
  2775                           ;E:/UVG/Semestre 5/Digital2/Lab3/Lab3.X/ADC.c: 121:             break;
  2776  00D5  28F5               	goto	i1l132
  2777  00D6                     i1l134:	
  2778                           ;E:/UVG/Semestre 5/Digital2/Lab3/Lab3.X/ADC.c: 122:         case 2:
  2779                           
  2780                           
  2781                           ;E:/UVG/Semestre 5/Digital2/Lab3/Lab3.X/ADC.c: 123:             ADCON0bits.ADCS0 = 1;
  2782  00D6  171F               	bsf	31,6	;volatile
  2783                           
  2784                           ;E:/UVG/Semestre 5/Digital2/Lab3/Lab3.X/ADC.c: 124:             ADCON0bits.ADCS0 = 0;
  2785  00D7  131F               	bcf	31,6	;volatile
  2786                           
  2787                           ;E:/UVG/Semestre 5/Digital2/Lab3/Lab3.X/ADC.c: 125:             break;
  2788  00D8  28F5               	goto	i1l132
  2789  00D9                     i1l135:	
  2790                           ;E:/UVG/Semestre 5/Digital2/Lab3/Lab3.X/ADC.c: 126:         case 3:
  2791                           
  2792                           
  2793                           ;E:/UVG/Semestre 5/Digital2/Lab3/Lab3.X/ADC.c: 127:             ADCON0bits.ADCS0 = 1;
  2794  00D9  171F               	bsf	31,6	;volatile
  2795                           
  2796                           ;E:/UVG/Semestre 5/Digital2/Lab3/Lab3.X/ADC.c: 128:             ADCON0bits.ADCS0 = 1;
  2797  00DA  171F               	bsf	31,6	;volatile
  2798                           
  2799                           ;E:/UVG/Semestre 5/Digital2/Lab3/Lab3.X/ADC.c: 129:             break;
  2800  00DB  28F5               	goto	i1l132
  2801  00DC                     i1l136:	
  2802                           ;E:/UVG/Semestre 5/Digital2/Lab3/Lab3.X/ADC.c: 130:         default:
  2803                           
  2804                           
  2805                           ;E:/UVG/Semestre 5/Digital2/Lab3/Lab3.X/ADC.c: 131:             ADCON0bits.ADCS0 = 0;
  2806  00DC  131F               	bcf	31,6	;volatile
  2807                           
  2808                           ;E:/UVG/Semestre 5/Digital2/Lab3/Lab3.X/ADC.c: 132:             ADCON0bits.ADCS0 = 0;
  2809  00DD  131F               	bcf	31,6	;volatile
  2810                           
  2811                           ;E:/UVG/Semestre 5/Digital2/Lab3/Lab3.X/ADC.c: 133:             break;
  2812  00DE  28F5               	goto	i1l132
  2813  00DF                     i1l1235:
  2814  00DF  0873               	movf	i1initADC@ADCS,w
  2815  00E0  00F1               	movwf	??i1_initADC
  2816  00E1  01F2               	clrf	??i1_initADC+1
  2817                           
  2818                           ; Switch on 2 bytes has been partitioned into a top level switch of size 1, and 1 sub-sw
      +                          itches
  2819                           ; Switch size 1, requested type "simple"
  2820                           ; Number of cases is 1, Range of values is 0 to 0
  2821                           ; switch strategies available:
  2822                           ; Name         Instructions Cycles
  2823                           ; simple_byte            4     3 (average)
  2824                           ; direct_byte           11     8 (fixed)
  2825                           ; jumptable            260     6 (fixed)
  2826                           ;	Chosen strategy is simple_byte
  2827  00E2  0872               	movf	??i1_initADC+1,w
  2828  00E3  3A00               	xorlw	0	; case 0
  2829  00E4  1903               	skipnz
  2830  00E5  28E7               	goto	i1l1469
  2831  00E6  28DC               	goto	i1l136
  2832  00E7                     i1l1469:
  2833                           
  2834                           ; Switch size 1, requested type "simple"
  2835                           ; Number of cases is 4, Range of values is 0 to 3
  2836                           ; switch strategies available:
  2837                           ; Name         Instructions Cycles
  2838                           ; simple_byte           13     7 (average)
  2839                           ; direct_byte           20     8 (fixed)
  2840                           ; jumptable            260     6 (fixed)
  2841                           ;	Chosen strategy is simple_byte
  2842  00E7  0871               	movf	??i1_initADC,w
  2843  00E8  3A00               	xorlw	0	; case 0
  2844  00E9  1903               	skipnz
  2845  00EA  28D0               	goto	i1l131
  2846  00EB  3A01               	xorlw	1	; case 1
  2847  00EC  1903               	skipnz
  2848  00ED  28D3               	goto	i1l133
  2849  00EE  3A03               	xorlw	3	; case 2
  2850  00EF  1903               	skipnz
  2851  00F0  28D6               	goto	i1l134
  2852  00F1  3A01               	xorlw	1	; case 3
  2853  00F2  1903               	skipnz
  2854  00F3  28D9               	goto	i1l135
  2855  00F4  28DC               	goto	i1l136
  2856  00F5                     i1l132:
  2857                           
  2858                           ;E:/UVG/Semestre 5/Digital2/Lab3/Lab3.X/ADC.c: 136:     ADCON0bits.ADON = 1;
  2859  00F5  141F               	bsf	31,0	;volatile
  2860                           
  2861                           ;E:/UVG/Semestre 5/Digital2/Lab3/Lab3.X/ADC.c: 138:     ADCON0bits.GO_nDONE = 1;
  2862  00F6  149F               	bsf	31,1	;volatile
  2863  00F7                     i1l1237:
  2864                           
  2865                           ;E:/UVG/Semestre 5/Digital2/Lab3/Lab3.X/ADC.c: 140:     ADCON1 = 0b00000000;
  2866  00F7  1683               	bsf	3,5	;RP0=1, select bank1
  2867  00F8  1303               	bcf	3,6	;RP1=0, select bank1
  2868  00F9  019F               	clrf	31	;volatile
  2869  00FA                     i1l1239:
  2870                           
  2871                           ;E:/UVG/Semestre 5/Digital2/Lab3/Lab3.X/ADC.c: 142:     _delay((unsigned long)((10)*(400
      +                          0000/4000.0)));
  2872  00FA  300D               	movlw	13
  2873  00FB  00F2               	movwf	??i1_initADC+1
  2874  00FC  30FB               	movlw	251
  2875  00FD  00F1               	movwf	??i1_initADC
  2876  00FE                     u22_27:
  2877  00FE  0BF1               	decfsz	??i1_initADC,f
  2878  00FF  28FE               	goto	u22_27
  2879  0100  0BF2               	decfsz	??i1_initADC+1,f
  2880  0101  28FE               	goto	u22_27
  2881  0102  2903               	nop2
  2882  0103                     i1l137:
  2883  0103  0008               	return
  2884  0104                     __end_ofi1_initADC:
  2885  007E                     btemp	set	126	;btemp
  2886  007E                     wtemp0	set	126
  2887                           
  2888                           	psect	config
  2889                           
  2890                           ;Config register CONFIG1 @ 0x2007
  2891                           ;	Oscillator Selection bits
  2892                           ;	FOSC = INTRC_NOCLKOUT, INTOSCIO oscillator: I/O function on RA6/OSC2/CLKOUT pin, I/O f
      +                          unction on RA7/OSC1/CLKIN
  2893                           ;	Watchdog Timer Enable bit
  2894                           ;	WDTE = OFF, WDT disabled and can be enabled by SWDTEN bit of the WDTCON register
  2895                           ;	Power-up Timer Enable bit
  2896                           ;	PWRTE = OFF, PWRT disabled
  2897                           ;	RE3/MCLR pin function select bit
  2898                           ;	MCLRE = OFF, RE3/MCLR pin function is digital input, MCLR internally tied to VDD
  2899                           ;	Code Protection bit
  2900                           ;	CP = OFF, Program memory code protection is disabled
  2901                           ;	Data Code Protection bit
  2902                           ;	CPD = OFF, Data memory code protection is disabled
  2903                           ;	Brown Out Reset Selection bits
  2904                           ;	BOREN = OFF, BOR disabled
  2905                           ;	Internal External Switchover bit
  2906                           ;	IESO = OFF, Internal/External Switchover mode is disabled
  2907                           ;	Fail-Safe Clock Monitor Enabled bit
  2908                           ;	FCMEN = OFF, Fail-Safe Clock Monitor is disabled
  2909                           ;	Low Voltage Programming Enable bit
  2910                           ;	LVP = OFF, RB3 pin has digital I/O, HV on MCLR must be used for programming
  2911                           ;	In-Circuit Debugger Mode bit
  2912                           ;	DEBUG = 0x1, unprogrammed default
  2913  2007                     	org	8199
  2914  2007  20D4               	dw	8404
  2915                           
  2916                           ;Config register CONFIG2 @ 0x2008
  2917                           ;	Brown-out Reset Selection bit
  2918                           ;	BOR4V = BOR40V, Brown-out Reset set to 4.0V
  2919                           ;	Flash Program Memory Self Write Enable bits
  2920                           ;	WRT = OFF, Write protection off
  2921  2008                     	org	8200
  2922  2008  3FFF               	dw	16383

Data Sizes:
    Strings     0
    Constant    0
    Data        0
    BSS         6
    Persistent  0
    Stack       0

Auto Spaces:
    Space          Size  Autos    Used
    COMMON           14      8      13
    BANK0            80      7       8
    BANK1            80      0       0
    BANK3            96      0       0
    BANK2            96      0       0

Pointer List with Targets:

    None.

Critical Paths under _main in COMMON

    None.

Critical Paths under _isr in COMMON

    _isr->i1_initADC

Critical Paths under _main in BANK0

    _main->_Setup
    _Setup->_Lcd_Init
    _Lcd_Init->_Lcd_Cmd
    _Lcd_Cmd->_Lcd_Port

Critical Paths under _isr in BANK0

    None.

Critical Paths under _main in BANK1

    None.

Critical Paths under _isr in BANK1

    None.

Critical Paths under _main in BANK3

    None.

Critical Paths under _isr in BANK3

    None.

Critical Paths under _main in BANK2

    None.

Critical Paths under _isr in BANK2

    None.

Call Graph Tables:

 ---------------------------------------------------------------------------------
 (Depth) Function   	        Calls       Base Space   Used Autos Params    Refs
 ---------------------------------------------------------------------------------
 (0) _main                                                 0     0      0     308
                              _Setup
 ---------------------------------------------------------------------------------
 (1) _Setup                                                1     1      0     308
                                              6 BANK0      1     1      0
                           _Lcd_Init
                            _initADC
                            _initOsc
                           _initUART
 ---------------------------------------------------------------------------------
 (2) _initUART                                             0     0      0       0
 ---------------------------------------------------------------------------------
 (2) _initOsc                                              3     3      0      22
                                              0 BANK0      3     3      0
 ---------------------------------------------------------------------------------
 (2) _initADC                                              4     3      1     220
                                              0 BANK0      4     3      1
 ---------------------------------------------------------------------------------
 (2) _Lcd_Init                                             2     2      0      66
                                              4 BANK0      2     2      0
                            _Lcd_Cmd
                           _Lcd_Port
 ---------------------------------------------------------------------------------
 (3) _Lcd_Cmd                                              3     3      0      44
                                              1 BANK0      3     3      0
                           _Lcd_Port
 ---------------------------------------------------------------------------------
 (3) _Lcd_Port                                             1     1      0      22
                                              0 BANK0      1     1      0
 ---------------------------------------------------------------------------------
 Estimated maximum stack depth 3
 ---------------------------------------------------------------------------------
 (Depth) Function   	        Calls       Base Space   Used Autos Params    Refs
 ---------------------------------------------------------------------------------
 (5) _isr                                                  4     4      0      96
                                              4 COMMON     4     4      0
                          i1_initADC
 ---------------------------------------------------------------------------------
 (6) i1_initADC                                            4     3      1      96
                                              0 COMMON     4     3      1
 ---------------------------------------------------------------------------------
 Estimated maximum stack depth 6
 ---------------------------------------------------------------------------------

 Call Graph Graphs:

 _main (ROOT)
   _Setup
     _Lcd_Init
       _Lcd_Cmd
         _Lcd_Port
       _Lcd_Port
     _initADC
     _initOsc
     _initUART

 _isr (ROOT)
   i1_initADC

 Address spaces:
Name               Size   Autos  Total    Cost      Usage
BITCOMMON            E      0       0       0        0.0%
EEDATA             100      0       0       0        0.0%
NULL                 0      0       0       0        0.0%
CODE                 0      0       0       0        0.0%
COMMON               E      8       D       1       92.9%
BITSFR0              0      0       0       1        0.0%
SFR0                 0      0       0       1        0.0%
BITSFR1              0      0       0       2        0.0%
SFR1                 0      0       0       2        0.0%
STACK                0      0       0       2        0.0%
ABS                  0      0      15       3        0.0%
BITBANK0            50      0       0       4        0.0%
BITSFR3              0      0       0       4        0.0%
SFR3                 0      0       0       4        0.0%
BANK0               50      7       8       5       10.0%
BITSFR2              0      0       0       5        0.0%
SFR2                 0      0       0       5        0.0%
BITBANK1            50      0       0       6        0.0%
BANK1               50      0       0       7        0.0%
BITBANK3            60      0       0       8        0.0%
BANK3               60      0       0       9        0.0%
BITBANK2            60      0       0      10        0.0%
BANK2               60      0       0      11        0.0%
DATA                 0      0      15      12        0.0%


Microchip Technology PIC Macro Assembler V2.31 build 20201012212115 
Symbol Table                                                                                   Thu Feb 04 22:08:30 2021

                     l96 0308                      l120 012B                      l112 0108  
                    l121 0130                      l122 0135                      l114 010D  
                    l131 0197                      l123 013A                      l115 0112  
                    l132 01BC                      l124 013F                      l116 0117  
                    l133 019A                      l125 0144                      l117 011C  
                    l205 0338                      l134 019D                      l126 0149  
                    l118 0121                      l135 01A0                      l127 014E  
                    l119 0126                      l136 01A3                      l128 0153  
                    l161 02C9                      l137 01CB                      l129 0158  
                    l146 0351                      l149 0324                      l190 01FA  
                    l182 01D0                      l191 0200                      l183 0228  
                    l192 0229                      l184 01D6                      l185 01DC  
                    l186 01E2                      l187 01E8                      l188 01EE  
                    l189 01F4                      u130 0346                      u131 0345  
                    u207 02A9                      u217 031C                      u177 01C7  
                    u187 028A                      u197 029A                      _isr 022A  
                    fsr0 0004                     l1111 034F                     l1121 0321  
                   l1113 030C                     l1201 02E3                     l1115 030D  
                   l1131 01A6                     l1123 0107                     l1211 02FC  
                   l1203 02E4                     l1117 0313                     l1133 01BE  
                   l1213 0301                     l1205 02E5                     l1119 0316  
                   l1135 01C1                     l1127 015D                     l1207 02EB  
                   l1153 0206                     l1161 0325                     l1209 02F7  
                   l1171 0336                     l1163 032D                     l1181 029F  
                   l1149 01CF                     l1173 0337                     l1165 0331  
                   l1183 02A5                     l1175 027E                     l1167 0332  
                   l1191 02DD                     l1177 0284                     l1169 0333  
                   l1193 02DF                     l1185 02CA                     l1179 028E  
                   l1195 02E0                     l1187 02D4                     l1283 0339  
                   l1461 020E                     l1197 02E1                     l1189 02D5  
                   l1285 033E                     l1463 0165                     l1199 02E2  
                   l1287 0346                     l1465 01AE                     l1289 0347  
                   ?_isr 0070                     i1l84 0275                     _TMR0 0001  
                   u9_20 022F                     u9_21 022E                     _main 0339  
                   btemp 007E                     start 000E          __end_of_Lcd_Cmd 0325  
            initADC@ADCS 0023                    ??_isr 0074                    ?_main 0070  
                  _ANSEL 0188                    i1l120 0050                    i1l112 001F  
                  i1l121 0057                    i1l122 005E                    i1l114 0026  
                  i1l131 00D0                    i1l123 0065                    i1l115 002D  
                  i1l132 00F5                    i1l124 006C                    i1l116 0034  
                  i1l133 00D3                    i1l125 0073                    i1l117 003B  
                  i1l134 00D6                    i1l126 007A                    i1l118 0042  
                  i1l135 00D9                    i1l127 0081                    i1l119 0049  
                  i1l136 00DC                    i1l128 0088                    i1l137 0103  
                  i1l129 008F                    _RCREG 001A                    u10_20 023E  
                  u10_21 023D                    u11_20 0243                    u11_21 0242  
                  u12_20 0270                    u12_21 026F                    u22_27 00FE  
                  _SPBRG 0099                    _PORTA 0005                    _PORTB 0006  
                  _PORTC 0007                    _PORTD 0008                    _PORTE 0009  
                  _TRISA 0085                    _TRISB 0086                    _TRISC 0087  
                  _TRISD 0088                    _TRISE 0089                    _Setup 02CA  
        __end_of_initADC 01CC          __end_of_initOsc 022A                    pclath 000A  
                  status 0003                    wtemp0 007E         __end_of_Lcd_Init 02CA  
       __end_of_Lcd_Port 0352          __initialization 0011       __size_ofi1_initADC 00E7  
           __end_of_main 034C                   ??_main 0027                   ?_Setup 0070  
                 _ADCON1 009F                   _ADRESH 001E              initOsc@IRCF 0022  
                 _ANSELH 0189                   i1l1231 0096                   i1l1235 00DF  
                 i1l1227 001E                   i1l1251 022F                   i1l1237 00F7  
                 i1l1261 0243                   i1l1253 0233                   i1l1239 00FA  
                 i1l1271 0266                   i1l1263 0249                   i1l1255 0237  
                 i1l1281 0274                   i1l1273 0267                   i1l1265 0253  
                 i1l1257 0238                   i1l1249 022A                   i1l1275 0269  
                 i1l1267 0256                   i1l1259 023E                   i1l1269 025C  
                 i1l1277 026C                   i1l1279 0270                   i1l1467 009E  
                 i1l1469 00E7                ??_Lcd_Cmd 0021                   _SPBRGH 009A  
                 _TOGGLE 007A                   _WDTCON 0105         __end_of_initUART 0339  
              ??_initADC 0021                ??_initOsc 0020                   saved_w 007E  
      __end_ofi1_initADC 0104  __end_of__initialization 0019           __pcstackCOMMON 0070  
          __end_of_Setup 0309                  ??_Setup 0026                ?_Lcd_Init 0070  
              ?_Lcd_Port 0070             i1initADC@CHS 0070               __pbssBANK0 0027  
             __pmaintext 0339               __pintentry 0004                  _FLAGADC 0078  
             ??_Lcd_Init 0024               ??_Lcd_Port 0020                ?_initUART 0070  
                _Lcd_Cmd 0309                _ANSELbits 0188                  __ptext1 02CA  
                __ptext2 0325                  __ptext3 01CC                  __ptext4 0104  
                __ptext5 027E                  __ptext6 0309                  __ptext7 034C  
                __ptext8 022A                  __ptext9 001D                  _initADC 0104  
                _initOsc 01CC             __size_of_isr 0054     end_of_initialization 0019  
              _RECEPCION 0079               ??_initUART 0020                _RCSTAbits 0018  
              Lcd_Port@a 0020                _PORTDbits 0008                i1_initADC 001D  
              _TXSTAbits 0098               initADC@CHS 0020              _BAUDCTLbits 0187  
    start_initialization 0011              __end_of_isr 027E        __size_of_Lcd_Init 004C  
      __size_of_Lcd_Port 0006               ?i1_initADC 0070            i1initADC@ADCS 0073  
            __pbssCOMMON 0078                ___latbits 0002            __pcstackBANK0 0020  
               ?_Lcd_Cmd 0070        __size_of_initUART 0014                 ?_initADC 0020  
               ?_initOsc 0070           __size_of_Setup 003F                 _CONTADOR 0027  
      interrupt_function 0004              ??i1_initADC 0071                 _PIE1bits 008C  
               Lcd_Cmd@a 0023                 _PIR1bits 000C                 _VAR_ADC1 007C  
               _VAR_ADC2 007B               _ADCON0bits 001F                 _Lcd_Init 027E  
               _Lcd_Port 034C         __size_of_Lcd_Cmd 001C         __size_of_initADC 00C8  
       __size_of_initOsc 005E                 _initUART 0325            __size_of_main 0013  
             _INTCONbits 000B                 intlevel1 0000               _OSCCONbits 008F  
             _OPTION_REG 0081  
