

Microchip MPLAB XC8 Assembler V2.31 build 20201012212115 
                                                                                               Fri Feb 05 00:21:53 2021

Microchip MPLAB XC8 C Compiler v2.31 (Free license) build 20201012212115 Og1 
     1                           	processor	16F887
     2                           	pagewidth 120
     3                           	opt	flic
     4                           	psect	cinit,global,class=CODE,merge=1,delta=2
     5                           	psect	bssCOMMON,global,class=COMMON,space=1,delta=1,noexec
     6                           	psect	bssBANK0,global,class=BANK0,space=1,delta=1,noexec
     7                           	psect	cstackCOMMON,global,class=COMMON,space=1,delta=1,noexec
     8                           	psect	cstackBANK0,global,class=BANK0,space=1,delta=1,noexec
     9                           	psect	maintext,global,class=CODE,split=1,delta=2
    10                           	psect	text1,local,class=CODE,merge=1,delta=2
    11                           	psect	text2,local,class=CODE,merge=1,delta=2
    12                           	psect	text3,local,class=CODE,merge=1,delta=2
    13                           	psect	text4,local,class=CODE,merge=1,delta=2
    14                           	psect	text5,local,class=CODE,merge=1,delta=2
    15                           	psect	text6,local,class=CODE,merge=1,delta=2
    16                           	psect	text7,local,class=CODE,merge=1,delta=2
    17                           	psect	text8,local,class=CODE,merge=1,delta=2
    18                           	psect	intentry,global,class=CODE,delta=2
    19                           	psect	text9,local,class=CODE,merge=1,delta=2
    20                           	psect	text10,local,class=CODE,merge=1,delta=2
    21                           	psect	text11,local,class=CODE,merge=1,delta=2
    22                           	psect	config,global,abs,ovrld,class=CONFIG,space=4,delta=2,noexec
    23                           	dabs	1,0x7E,2
    24  0000                     
    25                           ; Version 2.31
    26                           ; Generated 13/10/2020 GMT
    27                           ; 
    28                           ; Copyright © 2020, Microchip Technology Inc. and its subsidiaries ("Microchip")
    29                           ; All rights reserved.
    30                           ; 
    31                           ; This software is developed by Microchip Technology Inc. and its subsidiaries ("Microch
      +                          ip").
    32                           ; 
    33                           ; Redistribution and use in source and binary forms, with or without modification, are
    34                           ; permitted provided that the following conditions are met:
    35                           ; 
    36                           ;     1. Redistributions of source code must retain the above copyright notice, this lis
      +                          t of
    37                           ;        conditions and the following disclaimer.
    38                           ; 
    39                           ;     2. Redistributions in binary form must reproduce the above copyright notice, this 
      +                          list
    40                           ;        of conditions and the following disclaimer in the documentation and/or other
    41                           ;        materials provided with the distribution. Publication is not required when
    42                           ;        this file is used in an embedded application.
    43                           ; 
    44                           ;     3. Microchip's name may not be used to endorse or promote products derived from th
      +                          is
    45                           ;        software without specific prior written permission.
    46                           ; 
    47                           ; THIS SOFTWARE IS PROVIDED BY MICROCHIP "AS IS" AND ANY EXPRESS OR IMPLIED WARRANTIES,
    48                           ; INCLUDING, BUT NOT LIMITED TO, THE IMPLIED WARRANTIES OF MERCHANTABILITY AND FITNESS F
      +                          OR
    49                           ; PURPOSE ARE DISCLAIMED.  IN NO EVENT SHALL MICROCHIP BE LIABLE FOR ANY DIRECT, INDIREC
      +                          T,
    50                           ; INCIDENTAL, SPECIAL, EXEMPLARY, OR CONSEQUENTIAL DAMAGES (INCLUDING BUT NOT LIMITED TO
    51                           ; PROCUREMENT OF SUBSTITUTE GOODS OR SERVICES; LOSS OF USE, DATA OR PROFITS; OR BUSINESS
    52                           ; INTERRUPTION) HOWSOEVER CAUSED AND ON ANY THEORY OF LIABILITY, WHETHER IN CONTRACT, ST
      +                          RICT
    53                           ; LIABILITY, OR TORT (INCLUDING NEGLIGENCE OR OTHERWISE) ARISING IN ANY WAY OUT OF THE U
      +                          SE OF
    54                           ; THIS SOFTWARE, EVEN IF ADVISED OF THE POSSIBILITY OF SUCH DAMAGE.
    55                           ; 
    56                           ; 
    57                           ; Code-generator required, PIC16F887 Definitions
    58                           ; 
    59                           ; SFR Addresses
    60  0000                     	;# 
    61  0001                     	;# 
    62  0002                     	;# 
    63  0003                     	;# 
    64  0004                     	;# 
    65  0005                     	;# 
    66  0006                     	;# 
    67  0007                     	;# 
    68  0008                     	;# 
    69  0009                     	;# 
    70  000A                     	;# 
    71  000B                     	;# 
    72  000C                     	;# 
    73  000D                     	;# 
    74  000E                     	;# 
    75  000E                     	;# 
    76  000F                     	;# 
    77  0010                     	;# 
    78  0011                     	;# 
    79  0012                     	;# 
    80  0013                     	;# 
    81  0014                     	;# 
    82  0015                     	;# 
    83  0015                     	;# 
    84  0016                     	;# 
    85  0017                     	;# 
    86  0018                     	;# 
    87  0019                     	;# 
    88  001A                     	;# 
    89  001B                     	;# 
    90  001B                     	;# 
    91  001C                     	;# 
    92  001D                     	;# 
    93  001E                     	;# 
    94  001F                     	;# 
    95  0081                     	;# 
    96  0085                     	;# 
    97  0086                     	;# 
    98  0087                     	;# 
    99  0088                     	;# 
   100  0089                     	;# 
   101  008C                     	;# 
   102  008D                     	;# 
   103  008E                     	;# 
   104  008F                     	;# 
   105  0090                     	;# 
   106  0091                     	;# 
   107  0092                     	;# 
   108  0093                     	;# 
   109  0093                     	;# 
   110  0093                     	;# 
   111  0094                     	;# 
   112  0095                     	;# 
   113  0096                     	;# 
   114  0097                     	;# 
   115  0098                     	;# 
   116  0099                     	;# 
   117  009A                     	;# 
   118  009B                     	;# 
   119  009C                     	;# 
   120  009D                     	;# 
   121  009E                     	;# 
   122  009F                     	;# 
   123  0105                     	;# 
   124  0107                     	;# 
   125  0108                     	;# 
   126  0109                     	;# 
   127  010C                     	;# 
   128  010C                     	;# 
   129  010D                     	;# 
   130  010E                     	;# 
   131  010F                     	;# 
   132  0185                     	;# 
   133  0187                     	;# 
   134  0188                     	;# 
   135  0189                     	;# 
   136  018C                     	;# 
   137  018D                     	;# 
   138  0000                     	;# 
   139  0001                     	;# 
   140  0002                     	;# 
   141  0003                     	;# 
   142  0004                     	;# 
   143  0005                     	;# 
   144  0006                     	;# 
   145  0007                     	;# 
   146  0008                     	;# 
   147  0009                     	;# 
   148  000A                     	;# 
   149  000B                     	;# 
   150  000C                     	;# 
   151  000D                     	;# 
   152  000E                     	;# 
   153  000E                     	;# 
   154  000F                     	;# 
   155  0010                     	;# 
   156  0011                     	;# 
   157  0012                     	;# 
   158  0013                     	;# 
   159  0014                     	;# 
   160  0015                     	;# 
   161  0015                     	;# 
   162  0016                     	;# 
   163  0017                     	;# 
   164  0018                     	;# 
   165  0019                     	;# 
   166  001A                     	;# 
   167  001B                     	;# 
   168  001B                     	;# 
   169  001C                     	;# 
   170  001D                     	;# 
   171  001E                     	;# 
   172  001F                     	;# 
   173  0081                     	;# 
   174  0085                     	;# 
   175  0086                     	;# 
   176  0087                     	;# 
   177  0088                     	;# 
   178  0089                     	;# 
   179  008C                     	;# 
   180  008D                     	;# 
   181  008E                     	;# 
   182  008F                     	;# 
   183  0090                     	;# 
   184  0091                     	;# 
   185  0092                     	;# 
   186  0093                     	;# 
   187  0093                     	;# 
   188  0093                     	;# 
   189  0094                     	;# 
   190  0095                     	;# 
   191  0096                     	;# 
   192  0097                     	;# 
   193  0098                     	;# 
   194  0099                     	;# 
   195  009A                     	;# 
   196  009B                     	;# 
   197  009C                     	;# 
   198  009D                     	;# 
   199  009E                     	;# 
   200  009F                     	;# 
   201  0105                     	;# 
   202  0107                     	;# 
   203  0108                     	;# 
   204  0109                     	;# 
   205  010C                     	;# 
   206  010C                     	;# 
   207  010D                     	;# 
   208  010E                     	;# 
   209  010F                     	;# 
   210  0185                     	;# 
   211  0187                     	;# 
   212  0188                     	;# 
   213  0189                     	;# 
   214  018C                     	;# 
   215  018D                     	;# 
   216  0000                     	;# 
   217  0001                     	;# 
   218  0002                     	;# 
   219  0003                     	;# 
   220  0004                     	;# 
   221  0005                     	;# 
   222  0006                     	;# 
   223  0007                     	;# 
   224  0008                     	;# 
   225  0009                     	;# 
   226  000A                     	;# 
   227  000B                     	;# 
   228  000C                     	;# 
   229  000D                     	;# 
   230  000E                     	;# 
   231  000E                     	;# 
   232  000F                     	;# 
   233  0010                     	;# 
   234  0011                     	;# 
   235  0012                     	;# 
   236  0013                     	;# 
   237  0014                     	;# 
   238  0015                     	;# 
   239  0015                     	;# 
   240  0016                     	;# 
   241  0017                     	;# 
   242  0018                     	;# 
   243  0019                     	;# 
   244  001A                     	;# 
   245  001B                     	;# 
   246  001B                     	;# 
   247  001C                     	;# 
   248  001D                     	;# 
   249  001E                     	;# 
   250  001F                     	;# 
   251  0081                     	;# 
   252  0085                     	;# 
   253  0086                     	;# 
   254  0087                     	;# 
   255  0088                     	;# 
   256  0089                     	;# 
   257  008C                     	;# 
   258  008D                     	;# 
   259  008E                     	;# 
   260  008F                     	;# 
   261  0090                     	;# 
   262  0091                     	;# 
   263  0092                     	;# 
   264  0093                     	;# 
   265  0093                     	;# 
   266  0093                     	;# 
   267  0094                     	;# 
   268  0095                     	;# 
   269  0096                     	;# 
   270  0097                     	;# 
   271  0098                     	;# 
   272  0099                     	;# 
   273  009A                     	;# 
   274  009B                     	;# 
   275  009C                     	;# 
   276  009D                     	;# 
   277  009E                     	;# 
   278  009F                     	;# 
   279  0105                     	;# 
   280  0107                     	;# 
   281  0108                     	;# 
   282  0109                     	;# 
   283  010C                     	;# 
   284  010C                     	;# 
   285  010D                     	;# 
   286  010E                     	;# 
   287  010F                     	;# 
   288  0185                     	;# 
   289  0187                     	;# 
   290  0188                     	;# 
   291  0189                     	;# 
   292  018C                     	;# 
   293  018D                     	;# 
   294  0000                     	;# 
   295  0001                     	;# 
   296  0002                     	;# 
   297  0003                     	;# 
   298  0004                     	;# 
   299  0005                     	;# 
   300  0006                     	;# 
   301  0007                     	;# 
   302  0008                     	;# 
   303  0009                     	;# 
   304  000A                     	;# 
   305  000B                     	;# 
   306  000C                     	;# 
   307  000D                     	;# 
   308  000E                     	;# 
   309  000E                     	;# 
   310  000F                     	;# 
   311  0010                     	;# 
   312  0011                     	;# 
   313  0012                     	;# 
   314  0013                     	;# 
   315  0014                     	;# 
   316  0015                     	;# 
   317  0015                     	;# 
   318  0016                     	;# 
   319  0017                     	;# 
   320  0018                     	;# 
   321  0019                     	;# 
   322  001A                     	;# 
   323  001B                     	;# 
   324  001B                     	;# 
   325  001C                     	;# 
   326  001D                     	;# 
   327  001E                     	;# 
   328  001F                     	;# 
   329  0081                     	;# 
   330  0085                     	;# 
   331  0086                     	;# 
   332  0087                     	;# 
   333  0088                     	;# 
   334  0089                     	;# 
   335  008C                     	;# 
   336  008D                     	;# 
   337  008E                     	;# 
   338  008F                     	;# 
   339  0090                     	;# 
   340  0091                     	;# 
   341  0092                     	;# 
   342  0093                     	;# 
   343  0093                     	;# 
   344  0093                     	;# 
   345  0094                     	;# 
   346  0095                     	;# 
   347  0096                     	;# 
   348  0097                     	;# 
   349  0098                     	;# 
   350  0099                     	;# 
   351  009A                     	;# 
   352  009B                     	;# 
   353  009C                     	;# 
   354  009D                     	;# 
   355  009E                     	;# 
   356  009F                     	;# 
   357  0105                     	;# 
   358  0107                     	;# 
   359  0108                     	;# 
   360  0109                     	;# 
   361  010C                     	;# 
   362  010C                     	;# 
   363  010D                     	;# 
   364  010E                     	;# 
   365  010F                     	;# 
   366  0185                     	;# 
   367  0187                     	;# 
   368  0188                     	;# 
   369  0189                     	;# 
   370  018C                     	;# 
   371  018D                     	;# 
   372  0000                     	;# 
   373  0001                     	;# 
   374  0002                     	;# 
   375  0003                     	;# 
   376  0004                     	;# 
   377  0005                     	;# 
   378  0006                     	;# 
   379  0007                     	;# 
   380  0008                     	;# 
   381  0009                     	;# 
   382  000A                     	;# 
   383  000B                     	;# 
   384  000C                     	;# 
   385  000D                     	;# 
   386  000E                     	;# 
   387  000E                     	;# 
   388  000F                     	;# 
   389  0010                     	;# 
   390  0011                     	;# 
   391  0012                     	;# 
   392  0013                     	;# 
   393  0014                     	;# 
   394  0015                     	;# 
   395  0015                     	;# 
   396  0016                     	;# 
   397  0017                     	;# 
   398  0018                     	;# 
   399  0019                     	;# 
   400  001A                     	;# 
   401  001B                     	;# 
   402  001B                     	;# 
   403  001C                     	;# 
   404  001D                     	;# 
   405  001E                     	;# 
   406  001F                     	;# 
   407  0081                     	;# 
   408  0085                     	;# 
   409  0086                     	;# 
   410  0087                     	;# 
   411  0088                     	;# 
   412  0089                     	;# 
   413  008C                     	;# 
   414  008D                     	;# 
   415  008E                     	;# 
   416  008F                     	;# 
   417  0090                     	;# 
   418  0091                     	;# 
   419  0092                     	;# 
   420  0093                     	;# 
   421  0093                     	;# 
   422  0093                     	;# 
   423  0094                     	;# 
   424  0095                     	;# 
   425  0096                     	;# 
   426  0097                     	;# 
   427  0098                     	;# 
   428  0099                     	;# 
   429  009A                     	;# 
   430  009B                     	;# 
   431  009C                     	;# 
   432  009D                     	;# 
   433  009E                     	;# 
   434  009F                     	;# 
   435  0105                     	;# 
   436  0107                     	;# 
   437  0108                     	;# 
   438  0109                     	;# 
   439  010C                     	;# 
   440  010C                     	;# 
   441  010D                     	;# 
   442  010E                     	;# 
   443  010F                     	;# 
   444  0185                     	;# 
   445  0187                     	;# 
   446  0188                     	;# 
   447  0189                     	;# 
   448  018C                     	;# 
   449  018D                     	;# 
   450  0000                     	;# 
   451  0001                     	;# 
   452  0002                     	;# 
   453  0003                     	;# 
   454  0004                     	;# 
   455  0005                     	;# 
   456  0006                     	;# 
   457  0007                     	;# 
   458  0008                     	;# 
   459  0009                     	;# 
   460  000A                     	;# 
   461  000B                     	;# 
   462  000C                     	;# 
   463  000D                     	;# 
   464  000E                     	;# 
   465  000E                     	;# 
   466  000F                     	;# 
   467  0010                     	;# 
   468  0011                     	;# 
   469  0012                     	;# 
   470  0013                     	;# 
   471  0014                     	;# 
   472  0015                     	;# 
   473  0015                     	;# 
   474  0016                     	;# 
   475  0017                     	;# 
   476  0018                     	;# 
   477  0019                     	;# 
   478  001A                     	;# 
   479  001B                     	;# 
   480  001B                     	;# 
   481  001C                     	;# 
   482  001D                     	;# 
   483  001E                     	;# 
   484  001F                     	;# 
   485  0081                     	;# 
   486  0085                     	;# 
   487  0086                     	;# 
   488  0087                     	;# 
   489  0088                     	;# 
   490  0089                     	;# 
   491  008C                     	;# 
   492  008D                     	;# 
   493  008E                     	;# 
   494  008F                     	;# 
   495  0090                     	;# 
   496  0091                     	;# 
   497  0092                     	;# 
   498  0093                     	;# 
   499  0093                     	;# 
   500  0093                     	;# 
   501  0094                     	;# 
   502  0095                     	;# 
   503  0096                     	;# 
   504  0097                     	;# 
   505  0098                     	;# 
   506  0099                     	;# 
   507  009A                     	;# 
   508  009B                     	;# 
   509  009C                     	;# 
   510  009D                     	;# 
   511  009E                     	;# 
   512  009F                     	;# 
   513  0105                     	;# 
   514  0107                     	;# 
   515  0108                     	;# 
   516  0109                     	;# 
   517  010C                     	;# 
   518  010C                     	;# 
   519  010D                     	;# 
   520  010E                     	;# 
   521  010F                     	;# 
   522  0185                     	;# 
   523  0187                     	;# 
   524  0188                     	;# 
   525  0189                     	;# 
   526  018C                     	;# 
   527  018D                     	;# 
   528  0018                     _RCSTAbits	set	24
   529  0008                     _PORTDbits	set	8
   530  0009                     _PORTE	set	9
   531  0008                     _PORTD	set	8
   532  0007                     _PORTC	set	7
   533  0005                     _PORTA	set	5
   534  001F                     _ADCON0bits	set	31
   535  0019                     _TXREG	set	25
   536  0006                     _PORTB	set	6
   537  001A                     _RCREG	set	26
   538  001E                     _ADRESH	set	30
   539  000C                     _PIR1bits	set	12
   540  0001                     _TMR0	set	1
   541  000B                     _INTCONbits	set	11
   542  009A                     _SPBRGH	set	154
   543  0099                     _SPBRG	set	153
   544  0098                     _TXSTAbits	set	152
   545  008F                     _OSCCONbits	set	143
   546  009F                     _ADCON1	set	159
   547  0081                     _OPTION_REG	set	129
   548  0089                     _TRISE	set	137
   549  0088                     _TRISD	set	136
   550  0087                     _TRISC	set	135
   551  0086                     _TRISB	set	134
   552  0085                     _TRISA	set	133
   553  008C                     _PIE1bits	set	140
   554  0105                     _WDTCON	set	261
   555  0187                     _BAUDCTLbits	set	391
   556  0189                     _ANSELH	set	393
   557  0188                     _ANSELbits	set	392
   558  0188                     _ANSEL	set	392
   559                           
   560                           	psect	cinit
   561  0011                     start_initialization:	
   562                           ; #config settings
   563                           
   564  0011                     __initialization:
   565                           
   566                           ; Clear objects allocated to COMMON
   567  0011  01FA               	clrf	__pbssCOMMON& (0+127)
   568  0012  01FB               	clrf	(__pbssCOMMON+1)& (0+127)
   569  0013  01FC               	clrf	(__pbssCOMMON+2)& (0+127)
   570  0014  01FD               	clrf	(__pbssCOMMON+3)& (0+127)
   571                           
   572                           ; Clear objects allocated to BANK0
   573  0015  1283               	bcf	3,5	;RP0=0, select bank0
   574  0016  1303               	bcf	3,6	;RP1=0, select bank0
   575  0017  01A7               	clrf	__pbssBANK0& (0+127)
   576  0018  01A8               	clrf	(__pbssBANK0+1)& (0+127)
   577  0019  01A9               	clrf	(__pbssBANK0+2)& (0+127)
   578  001A                     end_of_initialization:	
   579                           ;End of C runtime variable initialization code
   580                           
   581  001A                     __end_of__initialization:
   582  001A  0183               	clrf	3
   583  001B  120A  118A  2C25   	ljmp	_main	;jump to C main() function
   584                           
   585                           	psect	bssCOMMON
   586  007A                     __pbssCOMMON:
   587  007A                     _FLAGADC:
   588  007A                     	ds	1
   589  007B                     _RECEPCION:
   590  007B                     	ds	1
   591  007C                     _VAR_ADC2:
   592  007C                     	ds	1
   593  007D                     _VAR_ADC1:
   594  007D                     	ds	1
   595                           
   596                           	psect	bssBANK0
   597  0027                     __pbssBANK0:
   598  0027                     _FLAGTX:
   599  0027                     	ds	1
   600  0028                     _TOGGLE:
   601  0028                     	ds	1
   602  0029                     _CONTADOR:
   603  0029                     	ds	1
   604                           
   605                           	psect	cstackCOMMON
   606  0070                     __pcstackCOMMON:
   607  0070                     ?_Envio:
   608  0070                     ?_Setup:	
   609                           ; 1 bytes @ 0x0
   610                           
   611  0070                     ?_initOsc:	
   612                           ; 1 bytes @ 0x0
   613                           
   614  0070                     ?_initUART:	
   615                           ; 1 bytes @ 0x0
   616                           
   617  0070                     ?_Lcd_Init:	
   618                           ; 1 bytes @ 0x0
   619                           
   620  0070                     ?_ASCII:	
   621                           ; 1 bytes @ 0x0
   622                           
   623  0070                     ??_ASCII:	
   624                           ; 1 bytes @ 0x0
   625                           
   626  0070                     ?_isr:	
   627                           ; 1 bytes @ 0x0
   628                           
   629  0070                     ?_main:	
   630                           ; 1 bytes @ 0x0
   631                           
   632  0070                     ?_Lcd_Port:	
   633                           ; 1 bytes @ 0x0
   634                           
   635  0070                     ?_Lcd_Cmd:	
   636                           ; 1 bytes @ 0x0
   637                           
   638  0070                     ?i1_initADC:	
   639                           ; 1 bytes @ 0x0
   640                           
   641  0070                     i1initADC@CHS:	
   642                           ; 1 bytes @ 0x0
   643                           
   644                           
   645                           ; 1 bytes @ 0x0
   646  0070                     	ds	1
   647  0071                     ??i1_initADC:
   648                           
   649                           ; 1 bytes @ 0x1
   650  0071                     	ds	1
   651  0072                     ASCII@valor:
   652                           
   653                           ; 1 bytes @ 0x2
   654  0072                     	ds	1
   655  0073                     ??_Envio:
   656  0073                     i1initADC@ADCS:	
   657                           ; 1 bytes @ 0x3
   658                           
   659                           
   660                           ; 1 bytes @ 0x3
   661  0073                     	ds	2
   662  0075                     Envio@temporal:
   663                           
   664                           ; 1 bytes @ 0x5
   665  0075                     	ds	1
   666  0076                     ??_isr:
   667                           
   668                           ; 1 bytes @ 0x6
   669  0076                     	ds	4
   670                           
   671                           	psect	cstackBANK0
   672  0020                     __pcstackBANK0:
   673  0020                     ?_initADC:
   674  0020                     ??_initOsc:	
   675                           ; 1 bytes @ 0x0
   676                           
   677  0020                     ??_initUART:	
   678                           ; 1 bytes @ 0x0
   679                           
   680  0020                     ??_Lcd_Port:	
   681                           ; 1 bytes @ 0x0
   682                           
   683  0020                     initADC@CHS:	
   684                           ; 1 bytes @ 0x0
   685                           
   686  0020                     Lcd_Port@a:	
   687                           ; 1 bytes @ 0x0
   688                           
   689                           
   690                           ; 1 bytes @ 0x0
   691  0020                     	ds	1
   692  0021                     ??_initADC:
   693  0021                     ??_Lcd_Cmd:	
   694                           ; 1 bytes @ 0x1
   695                           
   696                           
   697                           ; 1 bytes @ 0x1
   698  0021                     	ds	1
   699  0022                     initOsc@IRCF:
   700                           
   701                           ; 1 bytes @ 0x2
   702  0022                     	ds	1
   703  0023                     initADC@ADCS:
   704  0023                     Lcd_Cmd@a:	
   705                           ; 1 bytes @ 0x3
   706                           
   707                           
   708                           ; 1 bytes @ 0x3
   709  0023                     	ds	1
   710  0024                     ??_Lcd_Init:
   711                           
   712                           ; 1 bytes @ 0x4
   713  0024                     	ds	2
   714  0026                     ??_Setup:
   715                           
   716                           ; 1 bytes @ 0x6
   717  0026                     	ds	1
   718  0027                     ??_main:
   719                           
   720                           	psect	maintext
   721  0425                     __pmaintext:	
   722                           ; 1 bytes @ 0x7
   723 ;;
   724 ;;Main: autosize = 0, tempsize = 0, incstack = 0, save=0
   725 ;;
   726 ;; *************** function _main *****************
   727 ;; Defined at:
   728 ;;		line 110 in file "code.c"
   729 ;; Parameters:    Size  Location     Type
   730 ;;		None
   731 ;; Auto vars:     Size  Location     Type
   732 ;;		None
   733 ;; Return value:  Size  Location     Type
   734 ;;                  1    wreg      void 
   735 ;; Registers used:
   736 ;;		wreg, fsr0l, fsr0h, status,2, status,0, pclath, cstack
   737 ;; Tracked objects:
   738 ;;		On entry : B00/0
   739 ;;		On exit  : 0/0
   740 ;;		Unchanged: 0/0
   741 ;; Data sizes:     COMMON   BANK0   BANK1   BANK3   BANK2
   742 ;;      Params:         0       0       0       0       0
   743 ;;      Locals:         0       0       0       0       0
   744 ;;      Temps:          0       0       0       0       0
   745 ;;      Totals:         0       0       0       0       0
   746 ;;Total ram usage:        0 bytes
   747 ;; Hardware stack levels required when called:    7
   748 ;; This function calls:
   749 ;;		_Setup
   750 ;; This function is called by:
   751 ;;		Startup code after reset
   752 ;; This function uses a non-reentrant model
   753 ;;
   754                           
   755                           
   756                           ;psect for function _main
   757  0425                     _main:
   758  0425                     l1753:	
   759                           ;incstack = 0
   760                           ; Regs used in _main: [wreg-fsr0h+status,2+status,0+pclath+cstack]
   761                           
   762                           
   763                           ;code.c: 111:     Setup();
   764  0425  120A  118A  23C8  120A  118A  	fcall	_Setup
   765  042A                     l1755:
   766                           
   767                           ;code.c: 115:         if(CONTADOR>10){
   768  042A  300B               	movlw	11
   769  042B  1283               	bcf	3,5	;RP0=0, select bank0
   770  042C  1303               	bcf	3,6	;RP1=0, select bank0
   771  042D  0229               	subwf	_CONTADOR,w
   772  042E  1C03               	skipc
   773  042F  2C31               	goto	u231
   774  0430  2C32               	goto	u230
   775  0431                     u231:
   776  0431  2C2A               	goto	l1755
   777  0432                     u230:
   778  0432                     l1757:
   779                           
   780                           ;code.c: 116:             ADCON0bits.GO_nDONE = 1;
   781  0432  149F               	bsf	31,1	;volatile
   782                           
   783                           ;code.c: 117:             PIE1bits.TXIE = 1;
   784  0433  1683               	bsf	3,5	;RP0=1, select bank1
   785  0434  1303               	bcf	3,6	;RP1=0, select bank1
   786  0435  160C               	bsf	12,4	;volatile
   787  0436                     l1759:
   788                           
   789                           ;code.c: 118:             CONTADOR = 0;
   790  0436  1283               	bcf	3,5	;RP0=0, select bank0
   791  0437  1303               	bcf	3,6	;RP1=0, select bank0
   792  0438  01A9               	clrf	_CONTADOR
   793  0439  2C2A               	goto	l1755
   794  043A  120A  118A  280E   	ljmp	start
   795  043D                     __end_of_main:
   796                           
   797                           	psect	text1
   798  03C8                     __ptext1:	
   799 ;; *************** function _Setup *****************
   800 ;; Defined at:
   801 ;;		line 126 in file "code.c"
   802 ;; Parameters:    Size  Location     Type
   803 ;;		None
   804 ;; Auto vars:     Size  Location     Type
   805 ;;		None
   806 ;; Return value:  Size  Location     Type
   807 ;;                  1    wreg      void 
   808 ;; Registers used:
   809 ;;		wreg, fsr0l, fsr0h, status,2, status,0, pclath, cstack
   810 ;; Tracked objects:
   811 ;;		On entry : 0/0
   812 ;;		On exit  : 0/0
   813 ;;		Unchanged: 0/0
   814 ;; Data sizes:     COMMON   BANK0   BANK1   BANK3   BANK2
   815 ;;      Params:         0       0       0       0       0
   816 ;;      Locals:         0       0       0       0       0
   817 ;;      Temps:          0       1       0       0       0
   818 ;;      Totals:         0       1       0       0       0
   819 ;;Total ram usage:        1 bytes
   820 ;; Hardware stack levels used:    1
   821 ;; Hardware stack levels required when called:    6
   822 ;; This function calls:
   823 ;;		_Lcd_Init
   824 ;;		_initADC
   825 ;;		_initOsc
   826 ;;		_initUART
   827 ;; This function is called by:
   828 ;;		_main
   829 ;; This function uses a non-reentrant model
   830 ;;
   831                           
   832                           
   833                           ;psect for function _Setup
   834  03C8                     _Setup:
   835  03C8                     l1635:	
   836                           ;incstack = 0
   837                           ; Regs used in _Setup: [wreg-fsr0h+status,2+status,0+pclath+cstack]
   838                           
   839                           
   840                           ;code.c: 128:     PORTA = 0;
   841  03C8  1283               	bcf	3,5	;RP0=0, select bank0
   842  03C9  1303               	bcf	3,6	;RP1=0, select bank0
   843  03CA  0185               	clrf	5	;volatile
   844                           
   845                           ;code.c: 129:     PORTB = 0;
   846  03CB  0186               	clrf	6	;volatile
   847                           
   848                           ;code.c: 130:     PORTC = 0;
   849  03CC  0187               	clrf	7	;volatile
   850                           
   851                           ;code.c: 131:     PORTD = 0;
   852  03CD  0188               	clrf	8	;volatile
   853                           
   854                           ;code.c: 132:     PORTE = 0;
   855  03CE  0189               	clrf	9	;volatile
   856                           
   857                           ;code.c: 134:     ANSEL = 0;
   858  03CF  1683               	bsf	3,5	;RP0=1, select bank3
   859  03D0  1703               	bsf	3,6	;RP1=1, select bank3
   860  03D1  0188               	clrf	8	;volatile
   861  03D2                     l1637:
   862                           
   863                           ;code.c: 135:     ANSELbits.ANS5 = 1;
   864  03D2  1688               	bsf	8,5	;volatile
   865  03D3                     l1639:
   866                           
   867                           ;code.c: 136:     ANSELbits.ANS6 = 1;
   868  03D3  1708               	bsf	8,6	;volatile
   869                           
   870                           ;code.c: 137:     ANSELH = 0;
   871  03D4  0189               	clrf	9	;volatile
   872                           
   873                           ;code.c: 139:     TRISA = 0;
   874  03D5  1683               	bsf	3,5	;RP0=1, select bank1
   875  03D6  1303               	bcf	3,6	;RP1=0, select bank1
   876  03D7  0185               	clrf	5	;volatile
   877                           
   878                           ;code.c: 140:     TRISB = 0;
   879  03D8  0186               	clrf	6	;volatile
   880  03D9                     l1641:
   881                           
   882                           ;code.c: 141:     TRISC = 0b10000000;
   883  03D9  3080               	movlw	128
   884  03DA  0087               	movwf	7	;volatile
   885  03DB                     l1643:
   886                           
   887                           ;code.c: 142:     TRISD = 0;
   888  03DB  0188               	clrf	8	;volatile
   889                           
   890                           ;code.c: 143:     TRISE = 3;
   891  03DC  3003               	movlw	3
   892  03DD  0089               	movwf	9	;volatile
   893  03DE                     l1645:
   894                           
   895                           ;code.c: 146:     INTCONbits.GIE = 1;
   896  03DE  178B               	bsf	11,7	;volatile
   897  03DF                     l1647:
   898                           
   899                           ;code.c: 147:     INTCONbits.PEIE = 1;
   900  03DF  170B               	bsf	11,6	;volatile
   901  03E0                     l1649:
   902                           
   903                           ;code.c: 148:     INTCONbits.T0IE = 1;
   904  03E0  168B               	bsf	11,5	;volatile
   905  03E1                     l1651:
   906                           
   907                           ;code.c: 149:     INTCONbits.T0IF = 0;
   908  03E1  110B               	bcf	11,2	;volatile
   909  03E2                     l1653:
   910                           
   911                           ;code.c: 150:     PIE1bits.ADIE = 1;
   912  03E2  170C               	bsf	12,6	;volatile
   913  03E3                     l1655:
   914                           
   915                           ;code.c: 151:     PIE1bits.RCIE = 1;
   916  03E3  168C               	bsf	12,5	;volatile
   917  03E4                     l1657:
   918                           
   919                           ;code.c: 152:     PIE1bits.TXIE = 1;
   920  03E4  160C               	bsf	12,4	;volatile
   921  03E5                     l1659:
   922                           
   923                           ;code.c: 155:     initOsc(6);
   924  03E5  3006               	movlw	6
   925  03E6  120A  118A  22C1  120A  118A  	fcall	_initOsc
   926  03EB                     l1661:
   927                           
   928                           ;code.c: 157:     initADC(2,5);
   929  03EB  3005               	movlw	5
   930  03EC  1283               	bcf	3,5	;RP0=0, select bank0
   931  03ED  1303               	bcf	3,6	;RP1=0, select bank0
   932  03EE  00A6               	movwf	??_Setup
   933  03EF  0826               	movf	??_Setup,w
   934  03F0  00A0               	movwf	initADC@CHS
   935  03F1  3002               	movlw	2
   936  03F2  120A  118A  2105  120A  118A  	fcall	_initADC
   937  03F7                     l1663:
   938                           
   939                           ;code.c: 159:     initUART();
   940  03F7  120A  118A  243D  120A  118A  	fcall	_initUART
   941  03FC                     l1665:
   942                           
   943                           ;code.c: 161:     Lcd_Init();
   944  03FC  120A  118A  237C  120A  118A  	fcall	_Lcd_Init
   945  0401                     l1667:
   946                           
   947                           ;code.c: 163:     WDTCON = 0;
   948  0401  1283               	bcf	3,5	;RP0=0, select bank2
   949  0402  1703               	bsf	3,6	;RP1=1, select bank2
   950  0403  0185               	clrf	5	;volatile
   951  0404                     l1669:
   952                           
   953                           ;code.c: 164:     OPTION_REG = 0b11010111;
   954  0404  30D7               	movlw	215
   955  0405  1683               	bsf	3,5	;RP0=1, select bank1
   956  0406  1303               	bcf	3,6	;RP1=0, select bank1
   957  0407  0081               	movwf	1	;volatile
   958  0408                     l106:
   959  0408  0008               	return
   960  0409                     __end_of_Setup:
   961                           
   962                           	psect	text2
   963  043D                     __ptext2:	
   964 ;; *************** function _initUART *****************
   965 ;; Defined at:
   966 ;;		line 6 in file "E:/UVG/Semestre 5/Digital2/Lab3/Lab3.X/USART.c"
   967 ;; Parameters:    Size  Location     Type
   968 ;;		None
   969 ;; Auto vars:     Size  Location     Type
   970 ;;		None
   971 ;; Return value:  Size  Location     Type
   972 ;;                  1    wreg      void 
   973 ;; Registers used:
   974 ;;		wreg, status,2
   975 ;; Tracked objects:
   976 ;;		On entry : 0/0
   977 ;;		On exit  : 0/0
   978 ;;		Unchanged: 0/0
   979 ;; Data sizes:     COMMON   BANK0   BANK1   BANK3   BANK2
   980 ;;      Params:         0       0       0       0       0
   981 ;;      Locals:         0       0       0       0       0
   982 ;;      Temps:          0       0       0       0       0
   983 ;;      Totals:         0       0       0       0       0
   984 ;;Total ram usage:        0 bytes
   985 ;; Hardware stack levels used:    1
   986 ;; Hardware stack levels required when called:    3
   987 ;; This function calls:
   988 ;;		Nothing
   989 ;; This function is called by:
   990 ;;		_Setup
   991 ;; This function uses a non-reentrant model
   992 ;;
   993                           
   994                           
   995                           ;psect for function _initUART
   996  043D                     _initUART:
   997  043D                     l1433:	
   998                           ;incstack = 0
   999                           ; Regs used in _initUART: [wreg+status,2]
  1000                           
  1001                           
  1002                           ;E:/UVG/Semestre 5/Digital2/Lab3/Lab3.X/USART.c: 8:     TXSTAbits.TX9 = 0;
  1003  043D  1683               	bsf	3,5	;RP0=1, select bank1
  1004  043E  1303               	bcf	3,6	;RP1=0, select bank1
  1005  043F  1318               	bcf	24,6	;volatile
  1006                           
  1007                           ;E:/UVG/Semestre 5/Digital2/Lab3/Lab3.X/USART.c: 9:     TXSTAbits.SYNC = 0;
  1008  0440  1218               	bcf	24,4	;volatile
  1009                           
  1010                           ;E:/UVG/Semestre 5/Digital2/Lab3/Lab3.X/USART.c: 10:     TXSTAbits.BRGH = 1;
  1011  0441  1518               	bsf	24,2	;volatile
  1012                           
  1013                           ;E:/UVG/Semestre 5/Digital2/Lab3/Lab3.X/USART.c: 11:     BAUDCTLbits.BRG16 = 0;
  1014  0442  1683               	bsf	3,5	;RP0=1, select bank3
  1015  0443  1703               	bsf	3,6	;RP1=1, select bank3
  1016  0444  1187               	bcf	7,3	;volatile
  1017  0445                     l1435:
  1018                           
  1019                           ;E:/UVG/Semestre 5/Digital2/Lab3/Lab3.X/USART.c: 12:     SPBRG = 25;
  1020  0445  3019               	movlw	25
  1021  0446  1683               	bsf	3,5	;RP0=1, select bank1
  1022  0447  1303               	bcf	3,6	;RP1=0, select bank1
  1023  0448  0099               	movwf	25	;volatile
  1024  0449                     l1437:
  1025                           
  1026                           ;E:/UVG/Semestre 5/Digital2/Lab3/Lab3.X/USART.c: 13:     SPBRGH = 0;
  1027  0449  019A               	clrf	26	;volatile
  1028  044A                     l1439:
  1029                           
  1030                           ;E:/UVG/Semestre 5/Digital2/Lab3/Lab3.X/USART.c: 14:     TXSTAbits.TXEN = 1;
  1031  044A  1698               	bsf	24,5	;volatile
  1032  044B                     l1441:
  1033                           
  1034                           ;E:/UVG/Semestre 5/Digital2/Lab3/Lab3.X/USART.c: 17:     RCSTAbits.SPEN = 1;
  1035  044B  1283               	bcf	3,5	;RP0=0, select bank0
  1036  044C  1303               	bcf	3,6	;RP1=0, select bank0
  1037  044D  1798               	bsf	24,7	;volatile
  1038  044E                     l1443:
  1039                           
  1040                           ;E:/UVG/Semestre 5/Digital2/Lab3/Lab3.X/USART.c: 18:     RCSTAbits.RX9 = 0;
  1041  044E  1318               	bcf	24,6	;volatile
  1042  044F                     l1445:
  1043                           
  1044                           ;E:/UVG/Semestre 5/Digital2/Lab3/Lab3.X/USART.c: 19:     RCSTAbits.CREN = 1;
  1045  044F  1618               	bsf	24,4	;volatile
  1046  0450                     l224:
  1047  0450  0008               	return
  1048  0451                     __end_of_initUART:
  1049                           
  1050                           	psect	text3
  1051  02C1                     __ptext3:	
  1052 ;; *************** function _initOsc *****************
  1053 ;; Defined at:
  1054 ;;		line 6 in file "E:/UVG/Semestre 5/Digital2/Lab3/Lab3.X/Oscilador.c"
  1055 ;; Parameters:    Size  Location     Type
  1056 ;;  IRCF            1    wreg     unsigned char 
  1057 ;; Auto vars:     Size  Location     Type
  1058 ;;  IRCF            1    2[BANK0 ] unsigned char 
  1059 ;; Return value:  Size  Location     Type
  1060 ;;                  1    wreg      void 
  1061 ;; Registers used:
  1062 ;;		wreg, fsr0l, fsr0h, status,2, status,0
  1063 ;; Tracked objects:
  1064 ;;		On entry : 0/0
  1065 ;;		On exit  : 0/0
  1066 ;;		Unchanged: 0/0
  1067 ;; Data sizes:     COMMON   BANK0   BANK1   BANK3   BANK2
  1068 ;;      Params:         0       0       0       0       0
  1069 ;;      Locals:         0       1       0       0       0
  1070 ;;      Temps:          0       2       0       0       0
  1071 ;;      Totals:         0       3       0       0       0
  1072 ;;Total ram usage:        3 bytes
  1073 ;; Hardware stack levels used:    1
  1074 ;; Hardware stack levels required when called:    3
  1075 ;; This function calls:
  1076 ;;		Nothing
  1077 ;; This function is called by:
  1078 ;;		_Setup
  1079 ;; This function uses a non-reentrant model
  1080 ;;
  1081                           
  1082                           
  1083                           ;psect for function _initOsc
  1084  02C1                     _initOsc:
  1085                           
  1086                           ;incstack = 0
  1087                           ; Regs used in _initOsc: [wreg-fsr0h+status,2+status,0]
  1088                           ;initOsc@IRCF stored from wreg
  1089  02C1  1283               	bcf	3,5	;RP0=0, select bank0
  1090  02C2  1303               	bcf	3,6	;RP1=0, select bank0
  1091  02C3  00A2               	movwf	initOsc@IRCF
  1092  02C4                     l1421:
  1093                           
  1094                           ;E:/UVG/Semestre 5/Digital2/Lab3/Lab3.X/Oscilador.c: 8:     switch(IRCF){
  1095  02C4  2AFB               	goto	l1425
  1096  02C5                     l201:	
  1097                           ;E:/UVG/Semestre 5/Digital2/Lab3/Lab3.X/Oscilador.c: 9:         case 0:
  1098                           
  1099                           
  1100                           ;E:/UVG/Semestre 5/Digital2/Lab3/Lab3.X/Oscilador.c: 10:             OSCCONbits.IRCF2 = 
      +                          0;
  1101  02C5  1683               	bsf	3,5	;RP0=1, select bank1
  1102  02C6  1303               	bcf	3,6	;RP1=0, select bank1
  1103  02C7  130F               	bcf	15,6	;volatile
  1104                           
  1105                           ;E:/UVG/Semestre 5/Digital2/Lab3/Lab3.X/Oscilador.c: 11:             OSCCONbits.IRCF1 = 
      +                          0;
  1106  02C8  128F               	bcf	15,5	;volatile
  1107                           
  1108                           ;E:/UVG/Semestre 5/Digital2/Lab3/Lab3.X/Oscilador.c: 12:             OSCCONbits.IRCF0 = 
      +                          0;
  1109  02C9  120F               	bcf	15,4	;volatile
  1110                           
  1111                           ;E:/UVG/Semestre 5/Digital2/Lab3/Lab3.X/Oscilador.c: 13:             break;
  1112  02CA  2B1D               	goto	l202
  1113  02CB                     l203:	
  1114                           ;E:/UVG/Semestre 5/Digital2/Lab3/Lab3.X/Oscilador.c: 14:         case 1:
  1115                           
  1116                           
  1117                           ;E:/UVG/Semestre 5/Digital2/Lab3/Lab3.X/Oscilador.c: 15:             OSCCONbits.IRCF2 = 
      +                          0;
  1118  02CB  1683               	bsf	3,5	;RP0=1, select bank1
  1119  02CC  1303               	bcf	3,6	;RP1=0, select bank1
  1120  02CD  130F               	bcf	15,6	;volatile
  1121                           
  1122                           ;E:/UVG/Semestre 5/Digital2/Lab3/Lab3.X/Oscilador.c: 16:             OSCCONbits.IRCF1 = 
      +                          0;
  1123  02CE  128F               	bcf	15,5	;volatile
  1124                           
  1125                           ;E:/UVG/Semestre 5/Digital2/Lab3/Lab3.X/Oscilador.c: 17:             OSCCONbits.IRCF0 = 
      +                          1;
  1126  02CF  160F               	bsf	15,4	;volatile
  1127                           
  1128                           ;E:/UVG/Semestre 5/Digital2/Lab3/Lab3.X/Oscilador.c: 18:             break;
  1129  02D0  2B1D               	goto	l202
  1130  02D1                     l204:	
  1131                           ;E:/UVG/Semestre 5/Digital2/Lab3/Lab3.X/Oscilador.c: 19:         case 2:
  1132                           
  1133                           
  1134                           ;E:/UVG/Semestre 5/Digital2/Lab3/Lab3.X/Oscilador.c: 20:             OSCCONbits.IRCF2 = 
      +                          0;
  1135  02D1  1683               	bsf	3,5	;RP0=1, select bank1
  1136  02D2  1303               	bcf	3,6	;RP1=0, select bank1
  1137  02D3  130F               	bcf	15,6	;volatile
  1138                           
  1139                           ;E:/UVG/Semestre 5/Digital2/Lab3/Lab3.X/Oscilador.c: 21:             OSCCONbits.IRCF1 = 
      +                          1;
  1140  02D4  168F               	bsf	15,5	;volatile
  1141                           
  1142                           ;E:/UVG/Semestre 5/Digital2/Lab3/Lab3.X/Oscilador.c: 22:             OSCCONbits.IRCF0 = 
      +                          0;
  1143  02D5  120F               	bcf	15,4	;volatile
  1144                           
  1145                           ;E:/UVG/Semestre 5/Digital2/Lab3/Lab3.X/Oscilador.c: 23:             break;
  1146  02D6  2B1D               	goto	l202
  1147  02D7                     l205:	
  1148                           ;E:/UVG/Semestre 5/Digital2/Lab3/Lab3.X/Oscilador.c: 24:         case 3:
  1149                           
  1150                           
  1151                           ;E:/UVG/Semestre 5/Digital2/Lab3/Lab3.X/Oscilador.c: 25:             OSCCONbits.IRCF2 = 
      +                          0;
  1152  02D7  1683               	bsf	3,5	;RP0=1, select bank1
  1153  02D8  1303               	bcf	3,6	;RP1=0, select bank1
  1154  02D9  130F               	bcf	15,6	;volatile
  1155                           
  1156                           ;E:/UVG/Semestre 5/Digital2/Lab3/Lab3.X/Oscilador.c: 26:             OSCCONbits.IRCF1 = 
      +                          1;
  1157  02DA  168F               	bsf	15,5	;volatile
  1158                           
  1159                           ;E:/UVG/Semestre 5/Digital2/Lab3/Lab3.X/Oscilador.c: 27:             OSCCONbits.IRCF0 = 
      +                          1;
  1160  02DB  160F               	bsf	15,4	;volatile
  1161                           
  1162                           ;E:/UVG/Semestre 5/Digital2/Lab3/Lab3.X/Oscilador.c: 28:             break;
  1163  02DC  2B1D               	goto	l202
  1164  02DD                     l206:	
  1165                           ;E:/UVG/Semestre 5/Digital2/Lab3/Lab3.X/Oscilador.c: 29:         case 4:
  1166                           
  1167                           
  1168                           ;E:/UVG/Semestre 5/Digital2/Lab3/Lab3.X/Oscilador.c: 30:             OSCCONbits.IRCF2 = 
      +                          1;
  1169  02DD  1683               	bsf	3,5	;RP0=1, select bank1
  1170  02DE  1303               	bcf	3,6	;RP1=0, select bank1
  1171  02DF  170F               	bsf	15,6	;volatile
  1172                           
  1173                           ;E:/UVG/Semestre 5/Digital2/Lab3/Lab3.X/Oscilador.c: 31:             OSCCONbits.IRCF1 = 
      +                          0;
  1174  02E0  128F               	bcf	15,5	;volatile
  1175                           
  1176                           ;E:/UVG/Semestre 5/Digital2/Lab3/Lab3.X/Oscilador.c: 32:             OSCCONbits.IRCF0 = 
      +                          0;
  1177  02E1  120F               	bcf	15,4	;volatile
  1178                           
  1179                           ;E:/UVG/Semestre 5/Digital2/Lab3/Lab3.X/Oscilador.c: 33:             break;
  1180  02E2  2B1D               	goto	l202
  1181  02E3                     l207:	
  1182                           ;E:/UVG/Semestre 5/Digital2/Lab3/Lab3.X/Oscilador.c: 34:         case 5:
  1183                           
  1184                           
  1185                           ;E:/UVG/Semestre 5/Digital2/Lab3/Lab3.X/Oscilador.c: 35:             OSCCONbits.IRCF2 = 
      +                          1;
  1186  02E3  1683               	bsf	3,5	;RP0=1, select bank1
  1187  02E4  1303               	bcf	3,6	;RP1=0, select bank1
  1188  02E5  170F               	bsf	15,6	;volatile
  1189                           
  1190                           ;E:/UVG/Semestre 5/Digital2/Lab3/Lab3.X/Oscilador.c: 36:             OSCCONbits.IRCF1 = 
      +                          0;
  1191  02E6  128F               	bcf	15,5	;volatile
  1192                           
  1193                           ;E:/UVG/Semestre 5/Digital2/Lab3/Lab3.X/Oscilador.c: 37:             OSCCONbits.IRCF0 = 
      +                          1;
  1194  02E7  160F               	bsf	15,4	;volatile
  1195                           
  1196                           ;E:/UVG/Semestre 5/Digital2/Lab3/Lab3.X/Oscilador.c: 38:             break;
  1197  02E8  2B1D               	goto	l202
  1198  02E9                     l208:	
  1199                           ;E:/UVG/Semestre 5/Digital2/Lab3/Lab3.X/Oscilador.c: 39:         case 6:
  1200                           
  1201                           
  1202                           ;E:/UVG/Semestre 5/Digital2/Lab3/Lab3.X/Oscilador.c: 40:             OSCCONbits.IRCF2 = 
      +                          1;
  1203  02E9  1683               	bsf	3,5	;RP0=1, select bank1
  1204  02EA  1303               	bcf	3,6	;RP1=0, select bank1
  1205  02EB  170F               	bsf	15,6	;volatile
  1206                           
  1207                           ;E:/UVG/Semestre 5/Digital2/Lab3/Lab3.X/Oscilador.c: 41:             OSCCONbits.IRCF1 = 
      +                          1;
  1208  02EC  168F               	bsf	15,5	;volatile
  1209                           
  1210                           ;E:/UVG/Semestre 5/Digital2/Lab3/Lab3.X/Oscilador.c: 42:             OSCCONbits.IRCF0 = 
      +                          0;
  1211  02ED  120F               	bcf	15,4	;volatile
  1212                           
  1213                           ;E:/UVG/Semestre 5/Digital2/Lab3/Lab3.X/Oscilador.c: 43:             break;
  1214  02EE  2B1D               	goto	l202
  1215  02EF                     l209:	
  1216                           ;E:/UVG/Semestre 5/Digital2/Lab3/Lab3.X/Oscilador.c: 44:         case 7:
  1217                           
  1218                           
  1219                           ;E:/UVG/Semestre 5/Digital2/Lab3/Lab3.X/Oscilador.c: 45:             OSCCONbits.IRCF2 = 
      +                          1;
  1220  02EF  1683               	bsf	3,5	;RP0=1, select bank1
  1221  02F0  1303               	bcf	3,6	;RP1=0, select bank1
  1222  02F1  170F               	bsf	15,6	;volatile
  1223                           
  1224                           ;E:/UVG/Semestre 5/Digital2/Lab3/Lab3.X/Oscilador.c: 46:             OSCCONbits.IRCF1 = 
      +                          1;
  1225  02F2  168F               	bsf	15,5	;volatile
  1226                           
  1227                           ;E:/UVG/Semestre 5/Digital2/Lab3/Lab3.X/Oscilador.c: 47:             OSCCONbits.IRCF0 = 
      +                          1;
  1228  02F3  160F               	bsf	15,4	;volatile
  1229                           
  1230                           ;E:/UVG/Semestre 5/Digital2/Lab3/Lab3.X/Oscilador.c: 48:             break;
  1231  02F4  2B1D               	goto	l202
  1232  02F5                     l210:	
  1233                           ;E:/UVG/Semestre 5/Digital2/Lab3/Lab3.X/Oscilador.c: 49:         default:
  1234                           
  1235                           
  1236                           ;E:/UVG/Semestre 5/Digital2/Lab3/Lab3.X/Oscilador.c: 50:             OSCCONbits.IRCF2 = 
      +                          1;
  1237  02F5  1683               	bsf	3,5	;RP0=1, select bank1
  1238  02F6  1303               	bcf	3,6	;RP1=0, select bank1
  1239  02F7  170F               	bsf	15,6	;volatile
  1240                           
  1241                           ;E:/UVG/Semestre 5/Digital2/Lab3/Lab3.X/Oscilador.c: 51:             OSCCONbits.IRCF1 = 
      +                          1;
  1242  02F8  168F               	bsf	15,5	;volatile
  1243                           
  1244                           ;E:/UVG/Semestre 5/Digital2/Lab3/Lab3.X/Oscilador.c: 52:             OSCCONbits.IRCF0 = 
      +                          0;
  1245  02F9  120F               	bcf	15,4	;volatile
  1246                           
  1247                           ;E:/UVG/Semestre 5/Digital2/Lab3/Lab3.X/Oscilador.c: 53:             break;
  1248  02FA  2B1D               	goto	l202
  1249  02FB                     l1425:
  1250  02FB  0822               	movf	initOsc@IRCF,w
  1251  02FC  00A0               	movwf	??_initOsc
  1252  02FD  01A1               	clrf	??_initOsc+1
  1253                           
  1254                           ; Switch on 2 bytes has been partitioned into a top level switch of size 1, and 1 sub-sw
      +                          itches
  1255                           ; Switch size 1, requested type "simple"
  1256                           ; Number of cases is 1, Range of values is 0 to 0
  1257                           ; switch strategies available:
  1258                           ; Name         Instructions Cycles
  1259                           ; simple_byte            4     3 (average)
  1260                           ; direct_byte           11     8 (fixed)
  1261                           ; jumptable            260     6 (fixed)
  1262                           ;	Chosen strategy is simple_byte
  1263  02FE  0821               	movf	??_initOsc+1,w
  1264  02FF  3A00               	xorlw	0	; case 0
  1265  0300  1903               	skipnz
  1266  0301  2B03               	goto	l1977
  1267  0302  2AF5               	goto	l210
  1268  0303                     l1977:
  1269                           
  1270                           ; Switch size 1, requested type "simple"
  1271                           ; Number of cases is 8, Range of values is 0 to 7
  1272                           ; switch strategies available:
  1273                           ; Name         Instructions Cycles
  1274                           ; simple_byte           25    13 (average)
  1275                           ; direct_byte           32     8 (fixed)
  1276                           ; jumptable            260     6 (fixed)
  1277                           ;	Chosen strategy is simple_byte
  1278  0303  0820               	movf	??_initOsc,w
  1279  0304  3A00               	xorlw	0	; case 0
  1280  0305  1903               	skipnz
  1281  0306  2AC5               	goto	l201
  1282  0307  3A01               	xorlw	1	; case 1
  1283  0308  1903               	skipnz
  1284  0309  2ACB               	goto	l203
  1285  030A  3A03               	xorlw	3	; case 2
  1286  030B  1903               	skipnz
  1287  030C  2AD1               	goto	l204
  1288  030D  3A01               	xorlw	1	; case 3
  1289  030E  1903               	skipnz
  1290  030F  2AD7               	goto	l205
  1291  0310  3A07               	xorlw	7	; case 4
  1292  0311  1903               	skipnz
  1293  0312  2ADD               	goto	l206
  1294  0313  3A01               	xorlw	1	; case 5
  1295  0314  1903               	skipnz
  1296  0315  2AE3               	goto	l207
  1297  0316  3A03               	xorlw	3	; case 6
  1298  0317  1903               	skipnz
  1299  0318  2AE9               	goto	l208
  1300  0319  3A01               	xorlw	1	; case 7
  1301  031A  1903               	skipnz
  1302  031B  2AEF               	goto	l209
  1303  031C  2AF5               	goto	l210
  1304  031D                     l202:
  1305                           
  1306                           ;E:/UVG/Semestre 5/Digital2/Lab3/Lab3.X/Oscilador.c: 56:     OSCCONbits.SCS = 1;
  1307  031D  140F               	bsf	15,0	;volatile
  1308  031E                     l211:
  1309  031E  0008               	return
  1310  031F                     __end_of_initOsc:
  1311                           
  1312                           	psect	text4
  1313  0105                     __ptext4:	
  1314 ;; *************** function _initADC *****************
  1315 ;; Defined at:
  1316 ;;		line 6 in file "E:/UVG/Semestre 5/Digital2/Lab3/Lab3.X/ADC.c"
  1317 ;; Parameters:    Size  Location     Type
  1318 ;;  ADCS            1    wreg     unsigned char 
  1319 ;;  CHS             1    0[BANK0 ] unsigned char 
  1320 ;; Auto vars:     Size  Location     Type
  1321 ;;  ADCS            1    3[BANK0 ] unsigned char 
  1322 ;; Return value:  Size  Location     Type
  1323 ;;                  1    wreg      void 
  1324 ;; Registers used:
  1325 ;;		wreg, fsr0l, fsr0h, status,2, status,0
  1326 ;; Tracked objects:
  1327 ;;		On entry : 0/0
  1328 ;;		On exit  : 0/0
  1329 ;;		Unchanged: 0/0
  1330 ;; Data sizes:     COMMON   BANK0   BANK1   BANK3   BANK2
  1331 ;;      Params:         0       1       0       0       0
  1332 ;;      Locals:         0       1       0       0       0
  1333 ;;      Temps:          0       2       0       0       0
  1334 ;;      Totals:         0       4       0       0       0
  1335 ;;Total ram usage:        4 bytes
  1336 ;; Hardware stack levels used:    1
  1337 ;; Hardware stack levels required when called:    3
  1338 ;; This function calls:
  1339 ;;		Nothing
  1340 ;; This function is called by:
  1341 ;;		_Setup
  1342 ;; This function uses a non-reentrant model
  1343 ;;
  1344                           
  1345                           
  1346                           ;psect for function _initADC
  1347  0105                     _initADC:
  1348                           
  1349                           ;incstack = 0
  1350                           ; Regs used in _initADC: [wreg-fsr0h+status,2+status,0]
  1351                           ;initADC@ADCS stored from wreg
  1352  0105  1283               	bcf	3,5	;RP0=0, select bank0
  1353  0106  1303               	bcf	3,6	;RP1=0, select bank0
  1354  0107  00A3               	movwf	initADC@ADCS
  1355  0108                     l1395:
  1356                           
  1357                           ;E:/UVG/Semestre 5/Digital2/Lab3/Lab3.X/ADC.c: 8:     switch(CHS){
  1358  0108  295E               	goto	l1399
  1359  0109                     l131:	
  1360                           ;E:/UVG/Semestre 5/Digital2/Lab3/Lab3.X/ADC.c: 9:         case 0:
  1361                           
  1362                           
  1363                           ;E:/UVG/Semestre 5/Digital2/Lab3/Lab3.X/ADC.c: 10:             ADCON0bits.CHS3 = 0;
  1364  0109  129F               	bcf	31,5	;volatile
  1365                           
  1366                           ;E:/UVG/Semestre 5/Digital2/Lab3/Lab3.X/ADC.c: 11:             ADCON0bits.CHS2 = 0;
  1367  010A  121F               	bcf	31,4	;volatile
  1368                           
  1369                           ;E:/UVG/Semestre 5/Digital2/Lab3/Lab3.X/ADC.c: 12:             ADCON0bits.CHS1 = 0;
  1370  010B  119F               	bcf	31,3	;volatile
  1371                           
  1372                           ;E:/UVG/Semestre 5/Digital2/Lab3/Lab3.X/ADC.c: 13:             ADCON0bits.CHS0 = 0;
  1373  010C  111F               	bcf	31,2	;volatile
  1374                           
  1375                           ;E:/UVG/Semestre 5/Digital2/Lab3/Lab3.X/ADC.c: 14:             break;
  1376  010D  29A7               	goto	l1403
  1377  010E                     l133:	
  1378                           ;E:/UVG/Semestre 5/Digital2/Lab3/Lab3.X/ADC.c: 15:         case 1:
  1379                           
  1380                           
  1381                           ;E:/UVG/Semestre 5/Digital2/Lab3/Lab3.X/ADC.c: 16:             ADCON0bits.CHS3 = 0;
  1382  010E  129F               	bcf	31,5	;volatile
  1383                           
  1384                           ;E:/UVG/Semestre 5/Digital2/Lab3/Lab3.X/ADC.c: 17:             ADCON0bits.CHS2 = 0;
  1385  010F  121F               	bcf	31,4	;volatile
  1386                           
  1387                           ;E:/UVG/Semestre 5/Digital2/Lab3/Lab3.X/ADC.c: 18:             ADCON0bits.CHS1 = 0;
  1388  0110  119F               	bcf	31,3	;volatile
  1389                           
  1390                           ;E:/UVG/Semestre 5/Digital2/Lab3/Lab3.X/ADC.c: 19:             ADCON0bits.CHS0 = 1;
  1391  0111  151F               	bsf	31,2	;volatile
  1392                           
  1393                           ;E:/UVG/Semestre 5/Digital2/Lab3/Lab3.X/ADC.c: 20:             break;
  1394  0112  29A7               	goto	l1403
  1395  0113                     l134:	
  1396                           ;E:/UVG/Semestre 5/Digital2/Lab3/Lab3.X/ADC.c: 21:         case 2:
  1397                           
  1398                           
  1399                           ;E:/UVG/Semestre 5/Digital2/Lab3/Lab3.X/ADC.c: 22:             ADCON0bits.CHS3 = 0;
  1400  0113  129F               	bcf	31,5	;volatile
  1401                           
  1402                           ;E:/UVG/Semestre 5/Digital2/Lab3/Lab3.X/ADC.c: 23:             ADCON0bits.CHS2 = 0;
  1403  0114  121F               	bcf	31,4	;volatile
  1404                           
  1405                           ;E:/UVG/Semestre 5/Digital2/Lab3/Lab3.X/ADC.c: 24:             ADCON0bits.CHS1 = 1;
  1406  0115  159F               	bsf	31,3	;volatile
  1407                           
  1408                           ;E:/UVG/Semestre 5/Digital2/Lab3/Lab3.X/ADC.c: 25:             ADCON0bits.CHS0 = 0;
  1409  0116  111F               	bcf	31,2	;volatile
  1410                           
  1411                           ;E:/UVG/Semestre 5/Digital2/Lab3/Lab3.X/ADC.c: 26:             break;
  1412  0117  29A7               	goto	l1403
  1413  0118                     l135:	
  1414                           ;E:/UVG/Semestre 5/Digital2/Lab3/Lab3.X/ADC.c: 27:         case 3:
  1415                           
  1416                           
  1417                           ;E:/UVG/Semestre 5/Digital2/Lab3/Lab3.X/ADC.c: 28:             ADCON0bits.CHS3 = 0;
  1418  0118  129F               	bcf	31,5	;volatile
  1419                           
  1420                           ;E:/UVG/Semestre 5/Digital2/Lab3/Lab3.X/ADC.c: 29:             ADCON0bits.CHS2 = 0;
  1421  0119  121F               	bcf	31,4	;volatile
  1422                           
  1423                           ;E:/UVG/Semestre 5/Digital2/Lab3/Lab3.X/ADC.c: 30:             ADCON0bits.CHS1 = 1;
  1424  011A  159F               	bsf	31,3	;volatile
  1425                           
  1426                           ;E:/UVG/Semestre 5/Digital2/Lab3/Lab3.X/ADC.c: 31:             ADCON0bits.CHS0 = 1;
  1427  011B  151F               	bsf	31,2	;volatile
  1428                           
  1429                           ;E:/UVG/Semestre 5/Digital2/Lab3/Lab3.X/ADC.c: 32:             break;
  1430  011C  29A7               	goto	l1403
  1431  011D                     l136:	
  1432                           ;E:/UVG/Semestre 5/Digital2/Lab3/Lab3.X/ADC.c: 33:         case 4:
  1433                           
  1434                           
  1435                           ;E:/UVG/Semestre 5/Digital2/Lab3/Lab3.X/ADC.c: 34:             ADCON0bits.CHS3 = 0;
  1436  011D  129F               	bcf	31,5	;volatile
  1437                           
  1438                           ;E:/UVG/Semestre 5/Digital2/Lab3/Lab3.X/ADC.c: 35:             ADCON0bits.CHS2 = 1;
  1439  011E  161F               	bsf	31,4	;volatile
  1440                           
  1441                           ;E:/UVG/Semestre 5/Digital2/Lab3/Lab3.X/ADC.c: 36:             ADCON0bits.CHS1 = 0;
  1442  011F  119F               	bcf	31,3	;volatile
  1443                           
  1444                           ;E:/UVG/Semestre 5/Digital2/Lab3/Lab3.X/ADC.c: 37:             ADCON0bits.CHS0 = 0;
  1445  0120  111F               	bcf	31,2	;volatile
  1446                           
  1447                           ;E:/UVG/Semestre 5/Digital2/Lab3/Lab3.X/ADC.c: 38:             break;
  1448  0121  29A7               	goto	l1403
  1449  0122                     l137:	
  1450                           ;E:/UVG/Semestre 5/Digital2/Lab3/Lab3.X/ADC.c: 39:         case 5:
  1451                           
  1452                           
  1453                           ;E:/UVG/Semestre 5/Digital2/Lab3/Lab3.X/ADC.c: 40:             ADCON0bits.CHS3 = 0;
  1454  0122  129F               	bcf	31,5	;volatile
  1455                           
  1456                           ;E:/UVG/Semestre 5/Digital2/Lab3/Lab3.X/ADC.c: 41:             ADCON0bits.CHS2 = 1;
  1457  0123  161F               	bsf	31,4	;volatile
  1458                           
  1459                           ;E:/UVG/Semestre 5/Digital2/Lab3/Lab3.X/ADC.c: 42:             ADCON0bits.CHS1 = 0;
  1460  0124  119F               	bcf	31,3	;volatile
  1461                           
  1462                           ;E:/UVG/Semestre 5/Digital2/Lab3/Lab3.X/ADC.c: 43:             ADCON0bits.CHS0 = 1;
  1463  0125  151F               	bsf	31,2	;volatile
  1464                           
  1465                           ;E:/UVG/Semestre 5/Digital2/Lab3/Lab3.X/ADC.c: 44:             break;
  1466  0126  29A7               	goto	l1403
  1467  0127                     l138:	
  1468                           ;E:/UVG/Semestre 5/Digital2/Lab3/Lab3.X/ADC.c: 45:         case 6:
  1469                           
  1470                           
  1471                           ;E:/UVG/Semestre 5/Digital2/Lab3/Lab3.X/ADC.c: 46:             ADCON0bits.CHS3 = 0;
  1472  0127  129F               	bcf	31,5	;volatile
  1473                           
  1474                           ;E:/UVG/Semestre 5/Digital2/Lab3/Lab3.X/ADC.c: 47:             ADCON0bits.CHS2 = 1;
  1475  0128  161F               	bsf	31,4	;volatile
  1476                           
  1477                           ;E:/UVG/Semestre 5/Digital2/Lab3/Lab3.X/ADC.c: 48:             ADCON0bits.CHS1 = 1;
  1478  0129  159F               	bsf	31,3	;volatile
  1479                           
  1480                           ;E:/UVG/Semestre 5/Digital2/Lab3/Lab3.X/ADC.c: 49:             ADCON0bits.CHS0 = 0;
  1481  012A  111F               	bcf	31,2	;volatile
  1482                           
  1483                           ;E:/UVG/Semestre 5/Digital2/Lab3/Lab3.X/ADC.c: 50:             break;
  1484  012B  29A7               	goto	l1403
  1485  012C                     l139:	
  1486                           ;E:/UVG/Semestre 5/Digital2/Lab3/Lab3.X/ADC.c: 51:         case 7:
  1487                           
  1488                           
  1489                           ;E:/UVG/Semestre 5/Digital2/Lab3/Lab3.X/ADC.c: 52:             ADCON0bits.CHS3 = 0;
  1490  012C  129F               	bcf	31,5	;volatile
  1491                           
  1492                           ;E:/UVG/Semestre 5/Digital2/Lab3/Lab3.X/ADC.c: 53:             ADCON0bits.CHS2 = 1;
  1493  012D  161F               	bsf	31,4	;volatile
  1494                           
  1495                           ;E:/UVG/Semestre 5/Digital2/Lab3/Lab3.X/ADC.c: 54:             ADCON0bits.CHS1 = 1;
  1496  012E  159F               	bsf	31,3	;volatile
  1497                           
  1498                           ;E:/UVG/Semestre 5/Digital2/Lab3/Lab3.X/ADC.c: 55:             ADCON0bits.CHS0 = 1;
  1499  012F  151F               	bsf	31,2	;volatile
  1500                           
  1501                           ;E:/UVG/Semestre 5/Digital2/Lab3/Lab3.X/ADC.c: 56:             break;
  1502  0130  29A7               	goto	l1403
  1503  0131                     l140:	
  1504                           ;E:/UVG/Semestre 5/Digital2/Lab3/Lab3.X/ADC.c: 57:         case 8:
  1505                           
  1506                           
  1507                           ;E:/UVG/Semestre 5/Digital2/Lab3/Lab3.X/ADC.c: 58:             ADCON0bits.CHS3 = 1;
  1508  0131  169F               	bsf	31,5	;volatile
  1509                           
  1510                           ;E:/UVG/Semestre 5/Digital2/Lab3/Lab3.X/ADC.c: 59:             ADCON0bits.CHS2 = 0;
  1511  0132  121F               	bcf	31,4	;volatile
  1512                           
  1513                           ;E:/UVG/Semestre 5/Digital2/Lab3/Lab3.X/ADC.c: 60:             ADCON0bits.CHS1 = 0;
  1514  0133  119F               	bcf	31,3	;volatile
  1515                           
  1516                           ;E:/UVG/Semestre 5/Digital2/Lab3/Lab3.X/ADC.c: 61:             ADCON0bits.CHS0 = 0;
  1517  0134  111F               	bcf	31,2	;volatile
  1518                           
  1519                           ;E:/UVG/Semestre 5/Digital2/Lab3/Lab3.X/ADC.c: 62:             break;
  1520  0135  29A7               	goto	l1403
  1521  0136                     l141:	
  1522                           ;E:/UVG/Semestre 5/Digital2/Lab3/Lab3.X/ADC.c: 63:         case 9:
  1523                           
  1524                           
  1525                           ;E:/UVG/Semestre 5/Digital2/Lab3/Lab3.X/ADC.c: 64:             ADCON0bits.CHS3 = 1;
  1526  0136  169F               	bsf	31,5	;volatile
  1527                           
  1528                           ;E:/UVG/Semestre 5/Digital2/Lab3/Lab3.X/ADC.c: 65:             ADCON0bits.CHS2 = 0;
  1529  0137  121F               	bcf	31,4	;volatile
  1530                           
  1531                           ;E:/UVG/Semestre 5/Digital2/Lab3/Lab3.X/ADC.c: 66:             ADCON0bits.CHS1 = 0;
  1532  0138  119F               	bcf	31,3	;volatile
  1533                           
  1534                           ;E:/UVG/Semestre 5/Digital2/Lab3/Lab3.X/ADC.c: 67:             ADCON0bits.CHS0 = 1;
  1535  0139  151F               	bsf	31,2	;volatile
  1536                           
  1537                           ;E:/UVG/Semestre 5/Digital2/Lab3/Lab3.X/ADC.c: 68:             break;
  1538  013A  29A7               	goto	l1403
  1539  013B                     l142:	
  1540                           ;E:/UVG/Semestre 5/Digital2/Lab3/Lab3.X/ADC.c: 69:         case 10:
  1541                           
  1542                           
  1543                           ;E:/UVG/Semestre 5/Digital2/Lab3/Lab3.X/ADC.c: 70:             ADCON0bits.CHS3 = 1;
  1544  013B  169F               	bsf	31,5	;volatile
  1545                           
  1546                           ;E:/UVG/Semestre 5/Digital2/Lab3/Lab3.X/ADC.c: 71:             ADCON0bits.CHS2 = 0;
  1547  013C  121F               	bcf	31,4	;volatile
  1548                           
  1549                           ;E:/UVG/Semestre 5/Digital2/Lab3/Lab3.X/ADC.c: 72:             ADCON0bits.CHS1 = 1;
  1550  013D  159F               	bsf	31,3	;volatile
  1551                           
  1552                           ;E:/UVG/Semestre 5/Digital2/Lab3/Lab3.X/ADC.c: 73:             ADCON0bits.CHS0 = 0;
  1553  013E  111F               	bcf	31,2	;volatile
  1554                           
  1555                           ;E:/UVG/Semestre 5/Digital2/Lab3/Lab3.X/ADC.c: 74:             break;
  1556  013F  29A7               	goto	l1403
  1557  0140                     l143:	
  1558                           ;E:/UVG/Semestre 5/Digital2/Lab3/Lab3.X/ADC.c: 75:         case 11:
  1559                           
  1560                           
  1561                           ;E:/UVG/Semestre 5/Digital2/Lab3/Lab3.X/ADC.c: 76:             ADCON0bits.CHS3 = 1;
  1562  0140  169F               	bsf	31,5	;volatile
  1563                           
  1564                           ;E:/UVG/Semestre 5/Digital2/Lab3/Lab3.X/ADC.c: 77:             ADCON0bits.CHS2 = 0;
  1565  0141  121F               	bcf	31,4	;volatile
  1566                           
  1567                           ;E:/UVG/Semestre 5/Digital2/Lab3/Lab3.X/ADC.c: 78:             ADCON0bits.CHS1 = 1;
  1568  0142  159F               	bsf	31,3	;volatile
  1569                           
  1570                           ;E:/UVG/Semestre 5/Digital2/Lab3/Lab3.X/ADC.c: 79:             ADCON0bits.CHS0 = 1;
  1571  0143  151F               	bsf	31,2	;volatile
  1572                           
  1573                           ;E:/UVG/Semestre 5/Digital2/Lab3/Lab3.X/ADC.c: 80:             break;
  1574  0144  29A7               	goto	l1403
  1575  0145                     l144:	
  1576                           ;E:/UVG/Semestre 5/Digital2/Lab3/Lab3.X/ADC.c: 81:         case 12:
  1577                           
  1578                           
  1579                           ;E:/UVG/Semestre 5/Digital2/Lab3/Lab3.X/ADC.c: 82:             ADCON0bits.CHS3 = 1;
  1580  0145  169F               	bsf	31,5	;volatile
  1581                           
  1582                           ;E:/UVG/Semestre 5/Digital2/Lab3/Lab3.X/ADC.c: 83:             ADCON0bits.CHS2 = 1;
  1583  0146  161F               	bsf	31,4	;volatile
  1584                           
  1585                           ;E:/UVG/Semestre 5/Digital2/Lab3/Lab3.X/ADC.c: 84:             ADCON0bits.CHS1 = 0;
  1586  0147  119F               	bcf	31,3	;volatile
  1587                           
  1588                           ;E:/UVG/Semestre 5/Digital2/Lab3/Lab3.X/ADC.c: 85:             ADCON0bits.CHS0 = 0;
  1589  0148  111F               	bcf	31,2	;volatile
  1590                           
  1591                           ;E:/UVG/Semestre 5/Digital2/Lab3/Lab3.X/ADC.c: 86:             break;
  1592  0149  29A7               	goto	l1403
  1593  014A                     l145:	
  1594                           ;E:/UVG/Semestre 5/Digital2/Lab3/Lab3.X/ADC.c: 87:         case 13:
  1595                           
  1596                           
  1597                           ;E:/UVG/Semestre 5/Digital2/Lab3/Lab3.X/ADC.c: 88:             ADCON0bits.CHS3 = 1;
  1598  014A  169F               	bsf	31,5	;volatile
  1599                           
  1600                           ;E:/UVG/Semestre 5/Digital2/Lab3/Lab3.X/ADC.c: 89:             ADCON0bits.CHS2 = 1;
  1601  014B  161F               	bsf	31,4	;volatile
  1602                           
  1603                           ;E:/UVG/Semestre 5/Digital2/Lab3/Lab3.X/ADC.c: 90:             ADCON0bits.CHS1 = 0;
  1604  014C  119F               	bcf	31,3	;volatile
  1605                           
  1606                           ;E:/UVG/Semestre 5/Digital2/Lab3/Lab3.X/ADC.c: 91:             ADCON0bits.CHS0 = 1;
  1607  014D  151F               	bsf	31,2	;volatile
  1608                           
  1609                           ;E:/UVG/Semestre 5/Digital2/Lab3/Lab3.X/ADC.c: 92:             break;
  1610  014E  29A7               	goto	l1403
  1611  014F                     l146:	
  1612                           ;E:/UVG/Semestre 5/Digital2/Lab3/Lab3.X/ADC.c: 93:         case 14:
  1613                           
  1614                           
  1615                           ;E:/UVG/Semestre 5/Digital2/Lab3/Lab3.X/ADC.c: 94:             ADCON0bits.CHS3 = 1;
  1616  014F  169F               	bsf	31,5	;volatile
  1617                           
  1618                           ;E:/UVG/Semestre 5/Digital2/Lab3/Lab3.X/ADC.c: 95:             ADCON0bits.CHS2 = 1;
  1619  0150  161F               	bsf	31,4	;volatile
  1620                           
  1621                           ;E:/UVG/Semestre 5/Digital2/Lab3/Lab3.X/ADC.c: 96:             ADCON0bits.CHS1 = 1;
  1622  0151  159F               	bsf	31,3	;volatile
  1623                           
  1624                           ;E:/UVG/Semestre 5/Digital2/Lab3/Lab3.X/ADC.c: 97:             ADCON0bits.CHS0 = 0;
  1625  0152  111F               	bcf	31,2	;volatile
  1626                           
  1627                           ;E:/UVG/Semestre 5/Digital2/Lab3/Lab3.X/ADC.c: 98:             break;
  1628  0153  29A7               	goto	l1403
  1629  0154                     l147:	
  1630                           ;E:/UVG/Semestre 5/Digital2/Lab3/Lab3.X/ADC.c: 99:         case 15:
  1631                           
  1632                           
  1633                           ;E:/UVG/Semestre 5/Digital2/Lab3/Lab3.X/ADC.c: 100:             ADCON0bits.CHS3 = 1;
  1634  0154  169F               	bsf	31,5	;volatile
  1635                           
  1636                           ;E:/UVG/Semestre 5/Digital2/Lab3/Lab3.X/ADC.c: 101:             ADCON0bits.CHS2 = 1;
  1637  0155  161F               	bsf	31,4	;volatile
  1638                           
  1639                           ;E:/UVG/Semestre 5/Digital2/Lab3/Lab3.X/ADC.c: 102:             ADCON0bits.CHS1 = 1;
  1640  0156  159F               	bsf	31,3	;volatile
  1641                           
  1642                           ;E:/UVG/Semestre 5/Digital2/Lab3/Lab3.X/ADC.c: 103:             ADCON0bits.CHS0 = 1;
  1643  0157  151F               	bsf	31,2	;volatile
  1644                           
  1645                           ;E:/UVG/Semestre 5/Digital2/Lab3/Lab3.X/ADC.c: 104:             break;
  1646  0158  29A7               	goto	l1403
  1647  0159                     l148:	
  1648                           ;E:/UVG/Semestre 5/Digital2/Lab3/Lab3.X/ADC.c: 105:         default:
  1649                           
  1650                           
  1651                           ;E:/UVG/Semestre 5/Digital2/Lab3/Lab3.X/ADC.c: 106:             ADCON0bits.CHS3 = 0;
  1652  0159  129F               	bcf	31,5	;volatile
  1653                           
  1654                           ;E:/UVG/Semestre 5/Digital2/Lab3/Lab3.X/ADC.c: 107:             ADCON0bits.CHS2 = 0;
  1655  015A  121F               	bcf	31,4	;volatile
  1656                           
  1657                           ;E:/UVG/Semestre 5/Digital2/Lab3/Lab3.X/ADC.c: 108:             ADCON0bits.CHS1 = 0;
  1658  015B  119F               	bcf	31,3	;volatile
  1659                           
  1660                           ;E:/UVG/Semestre 5/Digital2/Lab3/Lab3.X/ADC.c: 109:             ADCON0bits.CHS0 = 0;
  1661  015C  111F               	bcf	31,2	;volatile
  1662                           
  1663                           ;E:/UVG/Semestre 5/Digital2/Lab3/Lab3.X/ADC.c: 110:             break;
  1664  015D  29A7               	goto	l1403
  1665  015E                     l1399:
  1666  015E  0820               	movf	initADC@CHS,w
  1667  015F  00A1               	movwf	??_initADC
  1668  0160  01A2               	clrf	??_initADC+1
  1669                           
  1670                           ; Switch on 2 bytes has been partitioned into a top level switch of size 1, and 1 sub-sw
      +                          itches
  1671                           ; Switch size 1, requested type "simple"
  1672                           ; Number of cases is 1, Range of values is 0 to 0
  1673                           ; switch strategies available:
  1674                           ; Name         Instructions Cycles
  1675                           ; simple_byte            4     3 (average)
  1676                           ; direct_byte           11     8 (fixed)
  1677                           ; jumptable            260     6 (fixed)
  1678                           ;	Chosen strategy is simple_byte
  1679  0161  0822               	movf	??_initADC+1,w
  1680  0162  3A00               	xorlw	0	; case 0
  1681  0163  1903               	skipnz
  1682  0164  2966               	goto	l1979
  1683  0165  2959               	goto	l148
  1684  0166                     l1979:
  1685                           
  1686                           ; Switch size 1, requested type "simple"
  1687                           ; Number of cases is 16, Range of values is 0 to 15
  1688                           ; switch strategies available:
  1689                           ; Name         Instructions Cycles
  1690                           ; simple_byte           49    25 (average)
  1691                           ; direct_byte           56     8 (fixed)
  1692                           ; jumptable            260     6 (fixed)
  1693                           ;	Chosen strategy is simple_byte
  1694  0166  0821               	movf	??_initADC,w
  1695  0167  3A00               	xorlw	0	; case 0
  1696  0168  1903               	skipnz
  1697  0169  2909               	goto	l131
  1698  016A  3A01               	xorlw	1	; case 1
  1699  016B  1903               	skipnz
  1700  016C  290E               	goto	l133
  1701  016D  3A03               	xorlw	3	; case 2
  1702  016E  1903               	skipnz
  1703  016F  2913               	goto	l134
  1704  0170  3A01               	xorlw	1	; case 3
  1705  0171  1903               	skipnz
  1706  0172  2918               	goto	l135
  1707  0173  3A07               	xorlw	7	; case 4
  1708  0174  1903               	skipnz
  1709  0175  291D               	goto	l136
  1710  0176  3A01               	xorlw	1	; case 5
  1711  0177  1903               	skipnz
  1712  0178  2922               	goto	l137
  1713  0179  3A03               	xorlw	3	; case 6
  1714  017A  1903               	skipnz
  1715  017B  2927               	goto	l138
  1716  017C  3A01               	xorlw	1	; case 7
  1717  017D  1903               	skipnz
  1718  017E  292C               	goto	l139
  1719  017F  3A0F               	xorlw	15	; case 8
  1720  0180  1903               	skipnz
  1721  0181  2931               	goto	l140
  1722  0182  3A01               	xorlw	1	; case 9
  1723  0183  1903               	skipnz
  1724  0184  2936               	goto	l141
  1725  0185  3A03               	xorlw	3	; case 10
  1726  0186  1903               	skipnz
  1727  0187  293B               	goto	l142
  1728  0188  3A01               	xorlw	1	; case 11
  1729  0189  1903               	skipnz
  1730  018A  2940               	goto	l143
  1731  018B  3A07               	xorlw	7	; case 12
  1732  018C  1903               	skipnz
  1733  018D  2945               	goto	l144
  1734  018E  3A01               	xorlw	1	; case 13
  1735  018F  1903               	skipnz
  1736  0190  294A               	goto	l145
  1737  0191  3A03               	xorlw	3	; case 14
  1738  0192  1903               	skipnz
  1739  0193  294F               	goto	l146
  1740  0194  3A01               	xorlw	1	; case 15
  1741  0195  1903               	skipnz
  1742  0196  2954               	goto	l147
  1743  0197  2959               	goto	l148
  1744  0198                     l150:	
  1745                           ;E:/UVG/Semestre 5/Digital2/Lab3/Lab3.X/ADC.c: 114:         case 0:
  1746                           
  1747                           
  1748                           ;E:/UVG/Semestre 5/Digital2/Lab3/Lab3.X/ADC.c: 115:             ADCON0bits.ADCS0 = 0;
  1749  0198  131F               	bcf	31,6	;volatile
  1750                           
  1751                           ;E:/UVG/Semestre 5/Digital2/Lab3/Lab3.X/ADC.c: 116:             ADCON0bits.ADCS0 = 0;
  1752  0199  131F               	bcf	31,6	;volatile
  1753                           
  1754                           ;E:/UVG/Semestre 5/Digital2/Lab3/Lab3.X/ADC.c: 117:             break;
  1755  019A  29BD               	goto	l151
  1756  019B                     l152:	
  1757                           ;E:/UVG/Semestre 5/Digital2/Lab3/Lab3.X/ADC.c: 118:         case 1:
  1758                           
  1759                           
  1760                           ;E:/UVG/Semestre 5/Digital2/Lab3/Lab3.X/ADC.c: 119:             ADCON0bits.ADCS0 = 0;
  1761  019B  131F               	bcf	31,6	;volatile
  1762                           
  1763                           ;E:/UVG/Semestre 5/Digital2/Lab3/Lab3.X/ADC.c: 120:             ADCON0bits.ADCS0 = 1;
  1764  019C  171F               	bsf	31,6	;volatile
  1765                           
  1766                           ;E:/UVG/Semestre 5/Digital2/Lab3/Lab3.X/ADC.c: 121:             break;
  1767  019D  29BD               	goto	l151
  1768  019E                     l153:	
  1769                           ;E:/UVG/Semestre 5/Digital2/Lab3/Lab3.X/ADC.c: 122:         case 2:
  1770                           
  1771                           
  1772                           ;E:/UVG/Semestre 5/Digital2/Lab3/Lab3.X/ADC.c: 123:             ADCON0bits.ADCS0 = 1;
  1773  019E  171F               	bsf	31,6	;volatile
  1774                           
  1775                           ;E:/UVG/Semestre 5/Digital2/Lab3/Lab3.X/ADC.c: 124:             ADCON0bits.ADCS0 = 0;
  1776  019F  131F               	bcf	31,6	;volatile
  1777                           
  1778                           ;E:/UVG/Semestre 5/Digital2/Lab3/Lab3.X/ADC.c: 125:             break;
  1779  01A0  29BD               	goto	l151
  1780  01A1                     l154:	
  1781                           ;E:/UVG/Semestre 5/Digital2/Lab3/Lab3.X/ADC.c: 126:         case 3:
  1782                           
  1783                           
  1784                           ;E:/UVG/Semestre 5/Digital2/Lab3/Lab3.X/ADC.c: 127:             ADCON0bits.ADCS0 = 1;
  1785  01A1  171F               	bsf	31,6	;volatile
  1786                           
  1787                           ;E:/UVG/Semestre 5/Digital2/Lab3/Lab3.X/ADC.c: 128:             ADCON0bits.ADCS0 = 1;
  1788  01A2  171F               	bsf	31,6	;volatile
  1789                           
  1790                           ;E:/UVG/Semestre 5/Digital2/Lab3/Lab3.X/ADC.c: 129:             break;
  1791  01A3  29BD               	goto	l151
  1792  01A4                     l155:	
  1793                           ;E:/UVG/Semestre 5/Digital2/Lab3/Lab3.X/ADC.c: 130:         default:
  1794                           
  1795                           
  1796                           ;E:/UVG/Semestre 5/Digital2/Lab3/Lab3.X/ADC.c: 131:             ADCON0bits.ADCS0 = 0;
  1797  01A4  131F               	bcf	31,6	;volatile
  1798                           
  1799                           ;E:/UVG/Semestre 5/Digital2/Lab3/Lab3.X/ADC.c: 132:             ADCON0bits.ADCS0 = 0;
  1800  01A5  131F               	bcf	31,6	;volatile
  1801                           
  1802                           ;E:/UVG/Semestre 5/Digital2/Lab3/Lab3.X/ADC.c: 133:             break;
  1803  01A6  29BD               	goto	l151
  1804  01A7                     l1403:
  1805  01A7  0823               	movf	initADC@ADCS,w
  1806  01A8  00A1               	movwf	??_initADC
  1807  01A9  01A2               	clrf	??_initADC+1
  1808                           
  1809                           ; Switch on 2 bytes has been partitioned into a top level switch of size 1, and 1 sub-sw
      +                          itches
  1810                           ; Switch size 1, requested type "simple"
  1811                           ; Number of cases is 1, Range of values is 0 to 0
  1812                           ; switch strategies available:
  1813                           ; Name         Instructions Cycles
  1814                           ; simple_byte            4     3 (average)
  1815                           ; direct_byte           11     8 (fixed)
  1816                           ; jumptable            260     6 (fixed)
  1817                           ;	Chosen strategy is simple_byte
  1818  01AA  0822               	movf	??_initADC+1,w
  1819  01AB  3A00               	xorlw	0	; case 0
  1820  01AC  1903               	skipnz
  1821  01AD  29AF               	goto	l1981
  1822  01AE  29A4               	goto	l155
  1823  01AF                     l1981:
  1824                           
  1825                           ; Switch size 1, requested type "simple"
  1826                           ; Number of cases is 4, Range of values is 0 to 3
  1827                           ; switch strategies available:
  1828                           ; Name         Instructions Cycles
  1829                           ; simple_byte           13     7 (average)
  1830                           ; direct_byte           20     8 (fixed)
  1831                           ; jumptable            260     6 (fixed)
  1832                           ;	Chosen strategy is simple_byte
  1833  01AF  0821               	movf	??_initADC,w
  1834  01B0  3A00               	xorlw	0	; case 0
  1835  01B1  1903               	skipnz
  1836  01B2  2998               	goto	l150
  1837  01B3  3A01               	xorlw	1	; case 1
  1838  01B4  1903               	skipnz
  1839  01B5  299B               	goto	l152
  1840  01B6  3A03               	xorlw	3	; case 2
  1841  01B7  1903               	skipnz
  1842  01B8  299E               	goto	l153
  1843  01B9  3A01               	xorlw	1	; case 3
  1844  01BA  1903               	skipnz
  1845  01BB  29A1               	goto	l154
  1846  01BC  29A4               	goto	l155
  1847  01BD                     l151:
  1848                           
  1849                           ;E:/UVG/Semestre 5/Digital2/Lab3/Lab3.X/ADC.c: 136:     ADCON0bits.ADON = 1;
  1850  01BD  141F               	bsf	31,0	;volatile
  1851                           
  1852                           ;E:/UVG/Semestre 5/Digital2/Lab3/Lab3.X/ADC.c: 138:     ADCON0bits.GO_nDONE = 1;
  1853  01BE  149F               	bsf	31,1	;volatile
  1854  01BF                     l1405:
  1855                           
  1856                           ;E:/UVG/Semestre 5/Digital2/Lab3/Lab3.X/ADC.c: 140:     ADCON1 = 0b00000000;
  1857  01BF  1683               	bsf	3,5	;RP0=1, select bank1
  1858  01C0  1303               	bcf	3,6	;RP1=0, select bank1
  1859  01C1  019F               	clrf	31	;volatile
  1860  01C2                     l1407:
  1861                           
  1862                           ;E:/UVG/Semestre 5/Digital2/Lab3/Lab3.X/ADC.c: 142:     _delay((unsigned long)((10)*(400
      +                          0000/4000.0)));
  1863  01C2  300D               	movlw	13
  1864  01C3  1283               	bcf	3,5	;RP0=0, select bank0
  1865  01C4  1303               	bcf	3,6	;RP1=0, select bank0
  1866  01C5  00A2               	movwf	??_initADC+1
  1867  01C6  30FB               	movlw	251
  1868  01C7  00A1               	movwf	??_initADC
  1869  01C8                     u277:
  1870  01C8  0BA1               	decfsz	??_initADC,f
  1871  01C9  29C8               	goto	u277
  1872  01CA  0BA2               	decfsz	??_initADC+1,f
  1873  01CB  29C8               	goto	u277
  1874  01CC                     l156:
  1875  01CC  0008               	return
  1876  01CD                     __end_of_initADC:
  1877                           
  1878                           	psect	text5
  1879  037C                     __ptext5:	
  1880 ;; *************** function _Lcd_Init *****************
  1881 ;; Defined at:
  1882 ;;		line 42 in file "E:/UVG/Semestre 5/Digital2/Lab3/Lab3.X/LCD.c"
  1883 ;; Parameters:    Size  Location     Type
  1884 ;;		None
  1885 ;; Auto vars:     Size  Location     Type
  1886 ;;		None
  1887 ;; Return value:  Size  Location     Type
  1888 ;;                  1    wreg      void 
  1889 ;; Registers used:
  1890 ;;		wreg, status,2, status,0, pclath, cstack
  1891 ;; Tracked objects:
  1892 ;;		On entry : 0/0
  1893 ;;		On exit  : 0/0
  1894 ;;		Unchanged: 0/0
  1895 ;; Data sizes:     COMMON   BANK0   BANK1   BANK3   BANK2
  1896 ;;      Params:         0       0       0       0       0
  1897 ;;      Locals:         0       0       0       0       0
  1898 ;;      Temps:          0       2       0       0       0
  1899 ;;      Totals:         0       2       0       0       0
  1900 ;;Total ram usage:        2 bytes
  1901 ;; Hardware stack levels used:    1
  1902 ;; Hardware stack levels required when called:    5
  1903 ;; This function calls:
  1904 ;;		_Lcd_Cmd
  1905 ;;		_Lcd_Port
  1906 ;; This function is called by:
  1907 ;;		_Setup
  1908 ;; This function uses a non-reentrant model
  1909 ;;
  1910                           
  1911                           
  1912                           ;psect for function _Lcd_Init
  1913  037C                     _Lcd_Init:
  1914  037C                     l1447:	
  1915                           ;incstack = 0
  1916                           ; Regs used in _Lcd_Init: [wreg+status,2+status,0+pclath+cstack]
  1917                           
  1918                           
  1919                           ;E:/UVG/Semestre 5/Digital2/Lab3/Lab3.X/LCD.c: 43:     Lcd_Port(0x00);
  1920  037C  3000               	movlw	0
  1921  037D  120A  118A  2451  120A  118A  	fcall	_Lcd_Port
  1922  0382                     l1449:
  1923                           
  1924                           ;E:/UVG/Semestre 5/Digital2/Lab3/Lab3.X/LCD.c: 44:      _delay((unsigned long)((10)*(400
      +                          0000/4000.0)));
  1925  0382  300D               	movlw	13
  1926  0383  1283               	bcf	3,5	;RP0=0, select bank0
  1927  0384  1303               	bcf	3,6	;RP1=0, select bank0
  1928  0385  00A5               	movwf	??_Lcd_Init+1
  1929  0386  30FB               	movlw	251
  1930  0387  00A4               	movwf	??_Lcd_Init
  1931  0388                     u287:
  1932  0388  0BA4               	decfsz	??_Lcd_Init,f
  1933  0389  2B88               	goto	u287
  1934  038A  0BA5               	decfsz	??_Lcd_Init+1,f
  1935  038B  2B88               	goto	u287
  1936  038C                     l1451:
  1937                           
  1938                           ;E:/UVG/Semestre 5/Digital2/Lab3/Lab3.X/LCD.c: 45:     Lcd_Cmd(0x30);
  1939  038C  3030               	movlw	48
  1940  038D  120A  118A  2409  120A  118A  	fcall	_Lcd_Cmd
  1941                           
  1942                           ;E:/UVG/Semestre 5/Digital2/Lab3/Lab3.X/LCD.c: 46:       _delay((unsigned long)((4)*(400
      +                          0000/4000.0)));
  1943  0392  3006               	movlw	6
  1944  0393  1283               	bcf	3,5	;RP0=0, select bank0
  1945  0394  1303               	bcf	3,6	;RP1=0, select bank0
  1946  0395  00A5               	movwf	??_Lcd_Init+1
  1947  0396  302F               	movlw	47
  1948  0397  00A4               	movwf	??_Lcd_Init
  1949  0398                     u297:
  1950  0398  0BA4               	decfsz	??_Lcd_Init,f
  1951  0399  2B98               	goto	u297
  1952  039A  0BA5               	decfsz	??_Lcd_Init+1,f
  1953  039B  2B98               	goto	u297
  1954  039C  2B9D               	nop2
  1955  039D                     l1453:
  1956                           
  1957                           ;E:/UVG/Semestre 5/Digital2/Lab3/Lab3.X/LCD.c: 47:     Lcd_Cmd(0x30);
  1958  039D  3030               	movlw	48
  1959  039E  120A  118A  2409  120A  118A  	fcall	_Lcd_Cmd
  1960  03A3                     l1455:
  1961                           
  1962                           ;E:/UVG/Semestre 5/Digital2/Lab3/Lab3.X/LCD.c: 48:       _delay((unsigned long)((90)*(40
      +                          00000/4000000.0)));
  1963  03A3  301D               	movlw	29
  1964  03A4  1283               	bcf	3,5	;RP0=0, select bank0
  1965  03A5  1303               	bcf	3,6	;RP1=0, select bank0
  1966  03A6  00A4               	movwf	??_Lcd_Init
  1967  03A7                     u307:
  1968  03A7  0BA4               	decfsz	??_Lcd_Init,f
  1969  03A8  2BA7               	goto	u307
  1970                           
  1971                           ;E:/UVG/Semestre 5/Digital2/Lab3/Lab3.X/LCD.c: 49:     Lcd_Cmd(0x30);
  1972  03A9  3030               	movlw	48
  1973  03AA  120A  118A  2409  120A  118A  	fcall	_Lcd_Cmd
  1974                           
  1975                           ;E:/UVG/Semestre 5/Digital2/Lab3/Lab3.X/LCD.c: 51:     Lcd_Cmd(0x38);
  1976  03AF  3038               	movlw	56
  1977  03B0  120A  118A  2409  120A  118A  	fcall	_Lcd_Cmd
  1978                           
  1979                           ;E:/UVG/Semestre 5/Digital2/Lab3/Lab3.X/LCD.c: 52:     Lcd_Cmd(0x08);
  1980  03B5  3008               	movlw	8
  1981  03B6  120A  118A  2409  120A  118A  	fcall	_Lcd_Cmd
  1982                           
  1983                           ;E:/UVG/Semestre 5/Digital2/Lab3/Lab3.X/LCD.c: 53:     Lcd_Cmd(0x01);
  1984  03BB  3001               	movlw	1
  1985  03BC  120A  118A  2409  120A  118A  	fcall	_Lcd_Cmd
  1986                           
  1987                           ;E:/UVG/Semestre 5/Digital2/Lab3/Lab3.X/LCD.c: 54:     Lcd_Cmd(0x06);
  1988  03C1  3006               	movlw	6
  1989  03C2  120A  118A  2409  120A  118A  	fcall	_Lcd_Cmd
  1990  03C7                     l180:
  1991  03C7  0008               	return
  1992  03C8                     __end_of_Lcd_Init:
  1993                           
  1994                           	psect	text6
  1995  0409                     __ptext6:	
  1996 ;; *************** function _Lcd_Cmd *****************
  1997 ;; Defined at:
  1998 ;;		line 17 in file "E:/UVG/Semestre 5/Digital2/Lab3/Lab3.X/LCD.c"
  1999 ;; Parameters:    Size  Location     Type
  2000 ;;  a               1    wreg     unsigned char 
  2001 ;; Auto vars:     Size  Location     Type
  2002 ;;  a               1    3[BANK0 ] unsigned char 
  2003 ;; Return value:  Size  Location     Type
  2004 ;;                  1    wreg      void 
  2005 ;; Registers used:
  2006 ;;		wreg, status,2, status,0, pclath, cstack
  2007 ;; Tracked objects:
  2008 ;;		On entry : 0/0
  2009 ;;		On exit  : 0/0
  2010 ;;		Unchanged: 0/0
  2011 ;; Data sizes:     COMMON   BANK0   BANK1   BANK3   BANK2
  2012 ;;      Params:         0       0       0       0       0
  2013 ;;      Locals:         0       1       0       0       0
  2014 ;;      Temps:          0       2       0       0       0
  2015 ;;      Totals:         0       3       0       0       0
  2016 ;;Total ram usage:        3 bytes
  2017 ;; Hardware stack levels used:    1
  2018 ;; Hardware stack levels required when called:    4
  2019 ;; This function calls:
  2020 ;;		_Lcd_Port
  2021 ;; This function is called by:
  2022 ;;		_Lcd_Init
  2023 ;;		_Lcd_Clear
  2024 ;;		_Lcd_Set_Cursor
  2025 ;;		_Lcd_Shift_Right
  2026 ;;		_Lcd_Shift_Left
  2027 ;; This function uses a non-reentrant model
  2028 ;;
  2029                           
  2030                           
  2031                           ;psect for function _Lcd_Cmd
  2032  0409                     _Lcd_Cmd:
  2033                           
  2034                           ;incstack = 0
  2035                           ; Regs used in _Lcd_Cmd: [wreg+status,2+status,0+pclath+cstack]
  2036                           ;Lcd_Cmd@a stored from wreg
  2037  0409  1283               	bcf	3,5	;RP0=0, select bank0
  2038  040A  1303               	bcf	3,6	;RP1=0, select bank0
  2039  040B  00A3               	movwf	Lcd_Cmd@a
  2040  040C                     l1385:
  2041                           
  2042                           ;E:/UVG/Semestre 5/Digital2/Lab3/Lab3.X/LCD.c: 18:  PORTDbits.RD2 = 0;
  2043  040C  1108               	bcf	8,2	;volatile
  2044  040D                     l1387:
  2045                           
  2046                           ;E:/UVG/Semestre 5/Digital2/Lab3/Lab3.X/LCD.c: 19:  Lcd_Port(a);
  2047  040D  0823               	movf	Lcd_Cmd@a,w
  2048  040E  120A  118A  2451  120A  118A  	fcall	_Lcd_Port
  2049  0413                     l1389:
  2050                           
  2051                           ;E:/UVG/Semestre 5/Digital2/Lab3/Lab3.X/LCD.c: 20:  PORTDbits.RD0 = 1;
  2052  0413  1283               	bcf	3,5	;RP0=0, select bank0
  2053  0414  1303               	bcf	3,6	;RP1=0, select bank0
  2054  0415  1408               	bsf	8,0	;volatile
  2055  0416                     l1391:
  2056                           
  2057                           ;E:/UVG/Semestre 5/Digital2/Lab3/Lab3.X/LCD.c: 21:     _delay((unsigned long)((4)*(40000
      +                          00/4000.0)));
  2058  0416  3006               	movlw	6
  2059  0417  1283               	bcf	3,5	;RP0=0, select bank0
  2060  0418  1303               	bcf	3,6	;RP1=0, select bank0
  2061  0419  00A2               	movwf	??_Lcd_Cmd+1
  2062  041A  302F               	movlw	47
  2063  041B  00A1               	movwf	??_Lcd_Cmd
  2064  041C                     u317:
  2065  041C  0BA1               	decfsz	??_Lcd_Cmd,f
  2066  041D  2C1C               	goto	u317
  2067  041E  0BA2               	decfsz	??_Lcd_Cmd+1,f
  2068  041F  2C1C               	goto	u317
  2069  0420  2C21               	nop2
  2070  0421                     l1393:
  2071                           
  2072                           ;E:/UVG/Semestre 5/Digital2/Lab3/Lab3.X/LCD.c: 22:     PORTDbits.RD0 = 0;
  2073  0421  1283               	bcf	3,5	;RP0=0, select bank0
  2074  0422  1303               	bcf	3,6	;RP1=0, select bank0
  2075  0423  1008               	bcf	8,0	;volatile
  2076  0424                     l168:
  2077  0424  0008               	return
  2078  0425                     __end_of_Lcd_Cmd:
  2079                           
  2080                           	psect	text7
  2081  0451                     __ptext7:	
  2082 ;; *************** function _Lcd_Port *****************
  2083 ;; Defined at:
  2084 ;;		line 13 in file "E:/UVG/Semestre 5/Digital2/Lab3/Lab3.X/LCD.c"
  2085 ;; Parameters:    Size  Location     Type
  2086 ;;  a               1    wreg     unsigned char 
  2087 ;; Auto vars:     Size  Location     Type
  2088 ;;  a               1    0[BANK0 ] unsigned char 
  2089 ;; Return value:  Size  Location     Type
  2090 ;;                  1    wreg      void 
  2091 ;; Registers used:
  2092 ;;		wreg
  2093 ;; Tracked objects:
  2094 ;;		On entry : 0/0
  2095 ;;		On exit  : 0/0
  2096 ;;		Unchanged: 0/0
  2097 ;; Data sizes:     COMMON   BANK0   BANK1   BANK3   BANK2
  2098 ;;      Params:         0       0       0       0       0
  2099 ;;      Locals:         0       1       0       0       0
  2100 ;;      Temps:          0       0       0       0       0
  2101 ;;      Totals:         0       1       0       0       0
  2102 ;;Total ram usage:        1 bytes
  2103 ;; Hardware stack levels used:    1
  2104 ;; Hardware stack levels required when called:    3
  2105 ;; This function calls:
  2106 ;;		Nothing
  2107 ;; This function is called by:
  2108 ;;		_Lcd_Cmd
  2109 ;;		_Lcd_Init
  2110 ;;		_Lcd_Write_Char
  2111 ;; This function uses a non-reentrant model
  2112 ;;
  2113                           
  2114                           
  2115                           ;psect for function _Lcd_Port
  2116  0451                     _Lcd_Port:
  2117                           
  2118                           ;incstack = 0
  2119                           ; Regs used in _Lcd_Port: [wreg]
  2120                           ;Lcd_Port@a stored from wreg
  2121  0451  1283               	bcf	3,5	;RP0=0, select bank0
  2122  0452  1303               	bcf	3,6	;RP1=0, select bank0
  2123  0453  00A0               	movwf	Lcd_Port@a
  2124  0454                     l1383:
  2125                           
  2126                           ;E:/UVG/Semestre 5/Digital2/Lab3/Lab3.X/LCD.c: 14:  PORTA = a;
  2127  0454  0820               	movf	Lcd_Port@a,w
  2128  0455  0085               	movwf	5	;volatile
  2129  0456                     l165:
  2130  0456  0008               	return
  2131  0457                     __end_of_Lcd_Port:
  2132                           
  2133                           	psect	text8
  2134  024F                     __ptext8:	
  2135 ;; *************** function _isr *****************
  2136 ;; Defined at:
  2137 ;;		line 66 in file "code.c"
  2138 ;; Parameters:    Size  Location     Type
  2139 ;;		None
  2140 ;; Auto vars:     Size  Location     Type
  2141 ;;		None
  2142 ;; Return value:  Size  Location     Type
  2143 ;;                  1    wreg      void 
  2144 ;; Registers used:
  2145 ;;		wreg, fsr0l, fsr0h, status,2, status,0, pclath, cstack
  2146 ;; Tracked objects:
  2147 ;;		On entry : 0/0
  2148 ;;		On exit  : 0/0
  2149 ;;		Unchanged: 0/0
  2150 ;; Data sizes:     COMMON   BANK0   BANK1   BANK3   BANK2
  2151 ;;      Params:         0       0       0       0       0
  2152 ;;      Locals:         0       0       0       0       0
  2153 ;;      Temps:          4       0       0       0       0
  2154 ;;      Totals:         4       0       0       0       0
  2155 ;;Total ram usage:        4 bytes
  2156 ;; Hardware stack levels used:    1
  2157 ;; Hardware stack levels required when called:    2
  2158 ;; This function calls:
  2159 ;;		_Envio
  2160 ;;		i1_initADC
  2161 ;; This function is called by:
  2162 ;;		Interrupt level 1
  2163 ;; This function uses a non-reentrant model
  2164 ;;
  2165                           
  2166                           
  2167                           ;psect for function _isr
  2168  024F                     _isr:
  2169  024F                     i1l1705:
  2170                           
  2171                           ;code.c: 67:     (INTCONbits.GIE = 0);
  2172  024F  138B               	bcf	11,7	;volatile
  2173                           
  2174                           ;code.c: 69:     if(INTCONbits.T0IF == 1){
  2175  0250  1D0B               	btfss	11,2	;volatile
  2176  0251  2A53               	goto	u16_21
  2177  0252  2A54               	goto	u16_20
  2178  0253                     u16_21:
  2179  0253  2A5D               	goto	i1l1713
  2180  0254                     u16_20:
  2181  0254                     i1l1707:
  2182                           
  2183                           ;code.c: 70:         TMR0 = 236;
  2184  0254  30EC               	movlw	236
  2185  0255  1283               	bcf	3,5	;RP0=0, select bank0
  2186  0256  1303               	bcf	3,6	;RP1=0, select bank0
  2187  0257  0081               	movwf	1	;volatile
  2188  0258                     i1l1709:
  2189                           
  2190                           ;code.c: 71:         CONTADOR++;
  2191  0258  3001               	movlw	1
  2192  0259  00F6               	movwf	??_isr
  2193  025A  0876               	movf	??_isr,w
  2194  025B  07A9               	addwf	_CONTADOR,f
  2195  025C                     i1l1711:
  2196                           
  2197                           ;code.c: 72:         INTCONbits.T0IF = 0;
  2198  025C  110B               	bcf	11,2	;volatile
  2199  025D                     i1l1713:
  2200                           
  2201                           ;code.c: 75:     if(PIR1bits.ADIF == 1){
  2202  025D  1283               	bcf	3,5	;RP0=0, select bank0
  2203  025E  1303               	bcf	3,6	;RP1=0, select bank0
  2204  025F  1F0C               	btfss	12,6	;volatile
  2205  0260  2A62               	goto	u17_21
  2206  0261  2A63               	goto	u17_20
  2207  0262                     u17_21:
  2208  0262  2A8D               	goto	i1l1733
  2209  0263                     u17_20:
  2210  0263                     i1l1715:
  2211                           
  2212                           ;code.c: 76:         if(FLAGADC == 0){
  2213  0263  087A               	movf	_FLAGADC,w
  2214  0264  1D03               	btfss	3,2
  2215  0265  2A67               	goto	u18_21
  2216  0266  2A68               	goto	u18_20
  2217  0267                     u18_21:
  2218  0267  2A79               	goto	i1l1723
  2219  0268                     u18_20:
  2220  0268                     i1l1717:
  2221                           
  2222                           ;code.c: 77:             VAR_ADC1 = ADRESH;
  2223  0268  081E               	movf	30,w	;volatile
  2224  0269  00F6               	movwf	??_isr
  2225  026A  0876               	movf	??_isr,w
  2226  026B  00FD               	movwf	_VAR_ADC1
  2227  026C                     i1l1719:
  2228                           
  2229                           ;code.c: 78:             initADC(2,5);
  2230  026C  3005               	movlw	5
  2231  026D  00F6               	movwf	??_isr
  2232  026E  0876               	movf	??_isr,w
  2233  026F  00F0               	movwf	i1initADC@CHS
  2234  0270  3002               	movlw	2
  2235  0271  120A  118A  201E  120A  118A  	fcall	i1_initADC
  2236  0276                     i1l1721:
  2237                           
  2238                           ;code.c: 79:             FLAGADC = 1;
  2239  0276  01FA               	clrf	_FLAGADC
  2240  0277  0AFA               	incf	_FLAGADC,f
  2241                           
  2242                           ;code.c: 80:         }
  2243  0278  2A88               	goto	i1l1729
  2244  0279                     i1l1723:
  2245                           
  2246                           ;code.c: 82:             VAR_ADC2 = ADRESH;
  2247  0279  081E               	movf	30,w	;volatile
  2248  027A  00F6               	movwf	??_isr
  2249  027B  0876               	movf	??_isr,w
  2250  027C  00FC               	movwf	_VAR_ADC2
  2251  027D                     i1l1725:
  2252                           
  2253                           ;code.c: 83:             initADC(2,6);
  2254  027D  3006               	movlw	6
  2255  027E  00F6               	movwf	??_isr
  2256  027F  0876               	movf	??_isr,w
  2257  0280  00F0               	movwf	i1initADC@CHS
  2258  0281  3002               	movlw	2
  2259  0282  120A  118A  201E  120A  118A  	fcall	i1_initADC
  2260  0287                     i1l1727:
  2261                           
  2262                           ;code.c: 84:             FLAGADC = 0;
  2263  0287  01FA               	clrf	_FLAGADC
  2264  0288                     i1l1729:
  2265                           
  2266                           ;code.c: 86:         TOGGLE = 1;
  2267  0288  1283               	bcf	3,5	;RP0=0, select bank0
  2268  0289  1303               	bcf	3,6	;RP1=0, select bank0
  2269  028A  01A8               	clrf	_TOGGLE
  2270  028B  0AA8               	incf	_TOGGLE,f
  2271  028C                     i1l1731:
  2272                           
  2273                           ;code.c: 87:         PIR1bits.ADIF = 0;
  2274  028C  130C               	bcf	12,6	;volatile
  2275  028D                     i1l1733:
  2276                           
  2277                           ;code.c: 90:     if(PIR1bits.RCIF == 1){
  2278  028D  1E8C               	btfss	12,5	;volatile
  2279  028E  2A90               	goto	u19_21
  2280  028F  2A91               	goto	u19_20
  2281  0290                     u19_21:
  2282  0290  2AA8               	goto	i1l1745
  2283  0291                     u19_20:
  2284  0291                     i1l1735:
  2285                           
  2286                           ;code.c: 91:         RECEPCION = RCREG;
  2287  0291  081A               	movf	26,w	;volatile
  2288  0292  00F6               	movwf	??_isr
  2289  0293  0876               	movf	??_isr,w
  2290  0294  00FB               	movwf	_RECEPCION
  2291  0295                     i1l1737:
  2292                           
  2293                           ;code.c: 92:         if(RECEPCION == 0x2B){
  2294  0295  302B               	movlw	43
  2295  0296  067B               	xorwf	_RECEPCION,w
  2296  0297  1D03               	btfss	3,2
  2297  0298  2A9A               	goto	u20_21
  2298  0299  2A9B               	goto	u20_20
  2299  029A                     u20_21:
  2300  029A  2AA0               	goto	i1l1741
  2301  029B                     u20_20:
  2302  029B                     i1l1739:
  2303                           
  2304                           ;code.c: 93:             PORTB++;
  2305  029B  3001               	movlw	1
  2306  029C  00F6               	movwf	??_isr
  2307  029D  0876               	movf	??_isr,w
  2308  029E  0786               	addwf	6,f	;volatile
  2309                           
  2310                           ;code.c: 94:         }
  2311  029F  2AA8               	goto	i1l1745
  2312  02A0                     i1l1741:
  2313  02A0  302D               	movlw	45
  2314  02A1  067B               	xorwf	_RECEPCION,w
  2315  02A2  1D03               	btfss	3,2
  2316  02A3  2AA5               	goto	u21_21
  2317  02A4  2AA6               	goto	u21_20
  2318  02A5                     u21_21:
  2319  02A5  2AA8               	goto	i1l1745
  2320  02A6                     u21_20:
  2321  02A6                     i1l1743:
  2322                           
  2323                           ;code.c: 96:             PORTB--;
  2324  02A6  3001               	movlw	1
  2325  02A7  0286               	subwf	6,f	;volatile
  2326  02A8                     i1l1745:
  2327                           
  2328                           ;code.c: 100:     if(PIR1bits.TXIF == 1){
  2329  02A8  1E0C               	btfss	12,4	;volatile
  2330  02A9  2AAB               	goto	u22_21
  2331  02AA  2AAC               	goto	u22_20
  2332  02AB                     u22_21:
  2333  02AB  2AB7               	goto	i1l1751
  2334  02AC                     u22_20:
  2335  02AC                     i1l1747:
  2336                           
  2337                           ;code.c: 101:         TXREG = Envio();
  2338  02AC  120A  118A  21CD  120A  118A  	fcall	_Envio
  2339  02B1  1283               	bcf	3,5	;RP0=0, select bank0
  2340  02B2  1303               	bcf	3,6	;RP1=0, select bank0
  2341  02B3  0099               	movwf	25	;volatile
  2342  02B4                     i1l1749:
  2343                           
  2344                           ;code.c: 102:         PIE1bits.TXIE = 0;
  2345  02B4  1683               	bsf	3,5	;RP0=1, select bank1
  2346  02B5  1303               	bcf	3,6	;RP1=0, select bank1
  2347  02B6  120C               	bcf	12,4	;volatile
  2348  02B7                     i1l1751:
  2349                           
  2350                           ;code.c: 104:     (INTCONbits.GIE = 1);
  2351  02B7  178B               	bsf	11,7	;volatile
  2352  02B8                     i1l94:
  2353  02B8  0879               	movf	??_isr+3,w
  2354  02B9  008A               	movwf	10
  2355  02BA  0878               	movf	??_isr+2,w
  2356  02BB  0084               	movwf	4
  2357  02BC  0E77               	swapf	??_isr+1,w
  2358  02BD  0083               	movwf	3
  2359  02BE  0EFE               	swapf	btemp,f
  2360  02BF  0E7E               	swapf	btemp,w
  2361  02C0  0009               	retfie
  2362  02C1                     __end_of_isr:
  2363                           
  2364                           	psect	intentry
  2365  0004                     __pintentry:	
  2366                           ;incstack = 0
  2367                           ; Regs used in _isr: [wreg-fsr0h+status,2+status,0+pclath+cstack]
  2368                           
  2369  0004                     interrupt_function:
  2370  007E                     saved_w	set	btemp
  2371  0004  00FE               	movwf	btemp
  2372  0005  0E03               	swapf	3,w
  2373  0006  00F7               	movwf	??_isr+1
  2374  0007  0804               	movf	4,w
  2375  0008  00F8               	movwf	??_isr+2
  2376  0009  080A               	movf	10,w
  2377  000A  00F9               	movwf	??_isr+3
  2378  000B  120A  118A  2A4F   	ljmp	_isr
  2379                           
  2380                           	psect	text9
  2381  001E                     __ptext9:	
  2382 ;; *************** function i1_initADC *****************
  2383 ;; Defined at:
  2384 ;;		line 6 in file "E:/UVG/Semestre 5/Digital2/Lab3/Lab3.X/ADC.c"
  2385 ;; Parameters:    Size  Location     Type
  2386 ;;  ADCS            1    wreg     unsigned char 
  2387 ;;  CHS             1    0[COMMON] unsigned char 
  2388 ;; Auto vars:     Size  Location     Type
  2389 ;;  ADCS            1    3[COMMON] unsigned char 
  2390 ;; Return value:  Size  Location     Type
  2391 ;;                  1    wreg      void 
  2392 ;; Registers used:
  2393 ;;		wreg, fsr0l, fsr0h, status,2, status,0
  2394 ;; Tracked objects:
  2395 ;;		On entry : 0/0
  2396 ;;		On exit  : 0/0
  2397 ;;		Unchanged: 0/0
  2398 ;; Data sizes:     COMMON   BANK0   BANK1   BANK3   BANK2
  2399 ;;      Params:         1       0       0       0       0
  2400 ;;      Locals:         1       0       0       0       0
  2401 ;;      Temps:          2       0       0       0       0
  2402 ;;      Totals:         4       0       0       0       0
  2403 ;;Total ram usage:        4 bytes
  2404 ;; Hardware stack levels used:    1
  2405 ;; This function calls:
  2406 ;;		Nothing
  2407 ;; This function is called by:
  2408 ;;		_isr
  2409 ;; This function uses a non-reentrant model
  2410 ;;
  2411                           
  2412                           
  2413                           ;psect for function i1_initADC
  2414  001E                     i1_initADC:
  2415                           
  2416                           ;incstack = 0
  2417                           ; Regs used in i1_initADC: [wreg-fsr0h+status,2+status,0]
  2418                           ;i1initADC@ADCS stored from wreg
  2419  001E  00F3               	movwf	i1initADC@ADCS
  2420  001F                     i1l1683:
  2421                           
  2422                           ;E:/UVG/Semestre 5/Digital2/Lab3/Lab3.X/ADC.c: 8:     switch(CHS){
  2423  001F  2897               	goto	i1l1687
  2424  0020                     i1l131:	
  2425                           ;E:/UVG/Semestre 5/Digital2/Lab3/Lab3.X/ADC.c: 9:         case 0:
  2426                           
  2427                           
  2428                           ;E:/UVG/Semestre 5/Digital2/Lab3/Lab3.X/ADC.c: 10:             ADCON0bits.CHS3 = 0;
  2429  0020  1283               	bcf	3,5	;RP0=0, select bank0
  2430  0021  1303               	bcf	3,6	;RP1=0, select bank0
  2431  0022  129F               	bcf	31,5	;volatile
  2432                           
  2433                           ;E:/UVG/Semestre 5/Digital2/Lab3/Lab3.X/ADC.c: 11:             ADCON0bits.CHS2 = 0;
  2434  0023  121F               	bcf	31,4	;volatile
  2435                           
  2436                           ;E:/UVG/Semestre 5/Digital2/Lab3/Lab3.X/ADC.c: 12:             ADCON0bits.CHS1 = 0;
  2437  0024  119F               	bcf	31,3	;volatile
  2438                           
  2439                           ;E:/UVG/Semestre 5/Digital2/Lab3/Lab3.X/ADC.c: 13:             ADCON0bits.CHS0 = 0;
  2440  0025  111F               	bcf	31,2	;volatile
  2441                           
  2442                           ;E:/UVG/Semestre 5/Digital2/Lab3/Lab3.X/ADC.c: 14:             break;
  2443  0026  28E0               	goto	i1l1691
  2444  0027                     i1l133:	
  2445                           ;E:/UVG/Semestre 5/Digital2/Lab3/Lab3.X/ADC.c: 15:         case 1:
  2446                           
  2447                           
  2448                           ;E:/UVG/Semestre 5/Digital2/Lab3/Lab3.X/ADC.c: 16:             ADCON0bits.CHS3 = 0;
  2449  0027  1283               	bcf	3,5	;RP0=0, select bank0
  2450  0028  1303               	bcf	3,6	;RP1=0, select bank0
  2451  0029  129F               	bcf	31,5	;volatile
  2452                           
  2453                           ;E:/UVG/Semestre 5/Digital2/Lab3/Lab3.X/ADC.c: 17:             ADCON0bits.CHS2 = 0;
  2454  002A  121F               	bcf	31,4	;volatile
  2455                           
  2456                           ;E:/UVG/Semestre 5/Digital2/Lab3/Lab3.X/ADC.c: 18:             ADCON0bits.CHS1 = 0;
  2457  002B  119F               	bcf	31,3	;volatile
  2458                           
  2459                           ;E:/UVG/Semestre 5/Digital2/Lab3/Lab3.X/ADC.c: 19:             ADCON0bits.CHS0 = 1;
  2460  002C  151F               	bsf	31,2	;volatile
  2461                           
  2462                           ;E:/UVG/Semestre 5/Digital2/Lab3/Lab3.X/ADC.c: 20:             break;
  2463  002D  28E0               	goto	i1l1691
  2464  002E                     i1l134:	
  2465                           ;E:/UVG/Semestre 5/Digital2/Lab3/Lab3.X/ADC.c: 21:         case 2:
  2466                           
  2467                           
  2468                           ;E:/UVG/Semestre 5/Digital2/Lab3/Lab3.X/ADC.c: 22:             ADCON0bits.CHS3 = 0;
  2469  002E  1283               	bcf	3,5	;RP0=0, select bank0
  2470  002F  1303               	bcf	3,6	;RP1=0, select bank0
  2471  0030  129F               	bcf	31,5	;volatile
  2472                           
  2473                           ;E:/UVG/Semestre 5/Digital2/Lab3/Lab3.X/ADC.c: 23:             ADCON0bits.CHS2 = 0;
  2474  0031  121F               	bcf	31,4	;volatile
  2475                           
  2476                           ;E:/UVG/Semestre 5/Digital2/Lab3/Lab3.X/ADC.c: 24:             ADCON0bits.CHS1 = 1;
  2477  0032  159F               	bsf	31,3	;volatile
  2478                           
  2479                           ;E:/UVG/Semestre 5/Digital2/Lab3/Lab3.X/ADC.c: 25:             ADCON0bits.CHS0 = 0;
  2480  0033  111F               	bcf	31,2	;volatile
  2481                           
  2482                           ;E:/UVG/Semestre 5/Digital2/Lab3/Lab3.X/ADC.c: 26:             break;
  2483  0034  28E0               	goto	i1l1691
  2484  0035                     i1l135:	
  2485                           ;E:/UVG/Semestre 5/Digital2/Lab3/Lab3.X/ADC.c: 27:         case 3:
  2486                           
  2487                           
  2488                           ;E:/UVG/Semestre 5/Digital2/Lab3/Lab3.X/ADC.c: 28:             ADCON0bits.CHS3 = 0;
  2489  0035  1283               	bcf	3,5	;RP0=0, select bank0
  2490  0036  1303               	bcf	3,6	;RP1=0, select bank0
  2491  0037  129F               	bcf	31,5	;volatile
  2492                           
  2493                           ;E:/UVG/Semestre 5/Digital2/Lab3/Lab3.X/ADC.c: 29:             ADCON0bits.CHS2 = 0;
  2494  0038  121F               	bcf	31,4	;volatile
  2495                           
  2496                           ;E:/UVG/Semestre 5/Digital2/Lab3/Lab3.X/ADC.c: 30:             ADCON0bits.CHS1 = 1;
  2497  0039  159F               	bsf	31,3	;volatile
  2498                           
  2499                           ;E:/UVG/Semestre 5/Digital2/Lab3/Lab3.X/ADC.c: 31:             ADCON0bits.CHS0 = 1;
  2500  003A  151F               	bsf	31,2	;volatile
  2501                           
  2502                           ;E:/UVG/Semestre 5/Digital2/Lab3/Lab3.X/ADC.c: 32:             break;
  2503  003B  28E0               	goto	i1l1691
  2504  003C                     i1l136:	
  2505                           ;E:/UVG/Semestre 5/Digital2/Lab3/Lab3.X/ADC.c: 33:         case 4:
  2506                           
  2507                           
  2508                           ;E:/UVG/Semestre 5/Digital2/Lab3/Lab3.X/ADC.c: 34:             ADCON0bits.CHS3 = 0;
  2509  003C  1283               	bcf	3,5	;RP0=0, select bank0
  2510  003D  1303               	bcf	3,6	;RP1=0, select bank0
  2511  003E  129F               	bcf	31,5	;volatile
  2512                           
  2513                           ;E:/UVG/Semestre 5/Digital2/Lab3/Lab3.X/ADC.c: 35:             ADCON0bits.CHS2 = 1;
  2514  003F  161F               	bsf	31,4	;volatile
  2515                           
  2516                           ;E:/UVG/Semestre 5/Digital2/Lab3/Lab3.X/ADC.c: 36:             ADCON0bits.CHS1 = 0;
  2517  0040  119F               	bcf	31,3	;volatile
  2518                           
  2519                           ;E:/UVG/Semestre 5/Digital2/Lab3/Lab3.X/ADC.c: 37:             ADCON0bits.CHS0 = 0;
  2520  0041  111F               	bcf	31,2	;volatile
  2521                           
  2522                           ;E:/UVG/Semestre 5/Digital2/Lab3/Lab3.X/ADC.c: 38:             break;
  2523  0042  28E0               	goto	i1l1691
  2524  0043                     i1l137:	
  2525                           ;E:/UVG/Semestre 5/Digital2/Lab3/Lab3.X/ADC.c: 39:         case 5:
  2526                           
  2527                           
  2528                           ;E:/UVG/Semestre 5/Digital2/Lab3/Lab3.X/ADC.c: 40:             ADCON0bits.CHS3 = 0;
  2529  0043  1283               	bcf	3,5	;RP0=0, select bank0
  2530  0044  1303               	bcf	3,6	;RP1=0, select bank0
  2531  0045  129F               	bcf	31,5	;volatile
  2532                           
  2533                           ;E:/UVG/Semestre 5/Digital2/Lab3/Lab3.X/ADC.c: 41:             ADCON0bits.CHS2 = 1;
  2534  0046  161F               	bsf	31,4	;volatile
  2535                           
  2536                           ;E:/UVG/Semestre 5/Digital2/Lab3/Lab3.X/ADC.c: 42:             ADCON0bits.CHS1 = 0;
  2537  0047  119F               	bcf	31,3	;volatile
  2538                           
  2539                           ;E:/UVG/Semestre 5/Digital2/Lab3/Lab3.X/ADC.c: 43:             ADCON0bits.CHS0 = 1;
  2540  0048  151F               	bsf	31,2	;volatile
  2541                           
  2542                           ;E:/UVG/Semestre 5/Digital2/Lab3/Lab3.X/ADC.c: 44:             break;
  2543  0049  28E0               	goto	i1l1691
  2544  004A                     i1l138:	
  2545                           ;E:/UVG/Semestre 5/Digital2/Lab3/Lab3.X/ADC.c: 45:         case 6:
  2546                           
  2547                           
  2548                           ;E:/UVG/Semestre 5/Digital2/Lab3/Lab3.X/ADC.c: 46:             ADCON0bits.CHS3 = 0;
  2549  004A  1283               	bcf	3,5	;RP0=0, select bank0
  2550  004B  1303               	bcf	3,6	;RP1=0, select bank0
  2551  004C  129F               	bcf	31,5	;volatile
  2552                           
  2553                           ;E:/UVG/Semestre 5/Digital2/Lab3/Lab3.X/ADC.c: 47:             ADCON0bits.CHS2 = 1;
  2554  004D  161F               	bsf	31,4	;volatile
  2555                           
  2556                           ;E:/UVG/Semestre 5/Digital2/Lab3/Lab3.X/ADC.c: 48:             ADCON0bits.CHS1 = 1;
  2557  004E  159F               	bsf	31,3	;volatile
  2558                           
  2559                           ;E:/UVG/Semestre 5/Digital2/Lab3/Lab3.X/ADC.c: 49:             ADCON0bits.CHS0 = 0;
  2560  004F  111F               	bcf	31,2	;volatile
  2561                           
  2562                           ;E:/UVG/Semestre 5/Digital2/Lab3/Lab3.X/ADC.c: 50:             break;
  2563  0050  28E0               	goto	i1l1691
  2564  0051                     i1l139:	
  2565                           ;E:/UVG/Semestre 5/Digital2/Lab3/Lab3.X/ADC.c: 51:         case 7:
  2566                           
  2567                           
  2568                           ;E:/UVG/Semestre 5/Digital2/Lab3/Lab3.X/ADC.c: 52:             ADCON0bits.CHS3 = 0;
  2569  0051  1283               	bcf	3,5	;RP0=0, select bank0
  2570  0052  1303               	bcf	3,6	;RP1=0, select bank0
  2571  0053  129F               	bcf	31,5	;volatile
  2572                           
  2573                           ;E:/UVG/Semestre 5/Digital2/Lab3/Lab3.X/ADC.c: 53:             ADCON0bits.CHS2 = 1;
  2574  0054  161F               	bsf	31,4	;volatile
  2575                           
  2576                           ;E:/UVG/Semestre 5/Digital2/Lab3/Lab3.X/ADC.c: 54:             ADCON0bits.CHS1 = 1;
  2577  0055  159F               	bsf	31,3	;volatile
  2578                           
  2579                           ;E:/UVG/Semestre 5/Digital2/Lab3/Lab3.X/ADC.c: 55:             ADCON0bits.CHS0 = 1;
  2580  0056  151F               	bsf	31,2	;volatile
  2581                           
  2582                           ;E:/UVG/Semestre 5/Digital2/Lab3/Lab3.X/ADC.c: 56:             break;
  2583  0057  28E0               	goto	i1l1691
  2584  0058                     i1l140:	
  2585                           ;E:/UVG/Semestre 5/Digital2/Lab3/Lab3.X/ADC.c: 57:         case 8:
  2586                           
  2587                           
  2588                           ;E:/UVG/Semestre 5/Digital2/Lab3/Lab3.X/ADC.c: 58:             ADCON0bits.CHS3 = 1;
  2589  0058  1283               	bcf	3,5	;RP0=0, select bank0
  2590  0059  1303               	bcf	3,6	;RP1=0, select bank0
  2591  005A  169F               	bsf	31,5	;volatile
  2592                           
  2593                           ;E:/UVG/Semestre 5/Digital2/Lab3/Lab3.X/ADC.c: 59:             ADCON0bits.CHS2 = 0;
  2594  005B  121F               	bcf	31,4	;volatile
  2595                           
  2596                           ;E:/UVG/Semestre 5/Digital2/Lab3/Lab3.X/ADC.c: 60:             ADCON0bits.CHS1 = 0;
  2597  005C  119F               	bcf	31,3	;volatile
  2598                           
  2599                           ;E:/UVG/Semestre 5/Digital2/Lab3/Lab3.X/ADC.c: 61:             ADCON0bits.CHS0 = 0;
  2600  005D  111F               	bcf	31,2	;volatile
  2601                           
  2602                           ;E:/UVG/Semestre 5/Digital2/Lab3/Lab3.X/ADC.c: 62:             break;
  2603  005E  28E0               	goto	i1l1691
  2604  005F                     i1l141:	
  2605                           ;E:/UVG/Semestre 5/Digital2/Lab3/Lab3.X/ADC.c: 63:         case 9:
  2606                           
  2607                           
  2608                           ;E:/UVG/Semestre 5/Digital2/Lab3/Lab3.X/ADC.c: 64:             ADCON0bits.CHS3 = 1;
  2609  005F  1283               	bcf	3,5	;RP0=0, select bank0
  2610  0060  1303               	bcf	3,6	;RP1=0, select bank0
  2611  0061  169F               	bsf	31,5	;volatile
  2612                           
  2613                           ;E:/UVG/Semestre 5/Digital2/Lab3/Lab3.X/ADC.c: 65:             ADCON0bits.CHS2 = 0;
  2614  0062  121F               	bcf	31,4	;volatile
  2615                           
  2616                           ;E:/UVG/Semestre 5/Digital2/Lab3/Lab3.X/ADC.c: 66:             ADCON0bits.CHS1 = 0;
  2617  0063  119F               	bcf	31,3	;volatile
  2618                           
  2619                           ;E:/UVG/Semestre 5/Digital2/Lab3/Lab3.X/ADC.c: 67:             ADCON0bits.CHS0 = 1;
  2620  0064  151F               	bsf	31,2	;volatile
  2621                           
  2622                           ;E:/UVG/Semestre 5/Digital2/Lab3/Lab3.X/ADC.c: 68:             break;
  2623  0065  28E0               	goto	i1l1691
  2624  0066                     i1l142:	
  2625                           ;E:/UVG/Semestre 5/Digital2/Lab3/Lab3.X/ADC.c: 69:         case 10:
  2626                           
  2627                           
  2628                           ;E:/UVG/Semestre 5/Digital2/Lab3/Lab3.X/ADC.c: 70:             ADCON0bits.CHS3 = 1;
  2629  0066  1283               	bcf	3,5	;RP0=0, select bank0
  2630  0067  1303               	bcf	3,6	;RP1=0, select bank0
  2631  0068  169F               	bsf	31,5	;volatile
  2632                           
  2633                           ;E:/UVG/Semestre 5/Digital2/Lab3/Lab3.X/ADC.c: 71:             ADCON0bits.CHS2 = 0;
  2634  0069  121F               	bcf	31,4	;volatile
  2635                           
  2636                           ;E:/UVG/Semestre 5/Digital2/Lab3/Lab3.X/ADC.c: 72:             ADCON0bits.CHS1 = 1;
  2637  006A  159F               	bsf	31,3	;volatile
  2638                           
  2639                           ;E:/UVG/Semestre 5/Digital2/Lab3/Lab3.X/ADC.c: 73:             ADCON0bits.CHS0 = 0;
  2640  006B  111F               	bcf	31,2	;volatile
  2641                           
  2642                           ;E:/UVG/Semestre 5/Digital2/Lab3/Lab3.X/ADC.c: 74:             break;
  2643  006C  28E0               	goto	i1l1691
  2644  006D                     i1l143:	
  2645                           ;E:/UVG/Semestre 5/Digital2/Lab3/Lab3.X/ADC.c: 75:         case 11:
  2646                           
  2647                           
  2648                           ;E:/UVG/Semestre 5/Digital2/Lab3/Lab3.X/ADC.c: 76:             ADCON0bits.CHS3 = 1;
  2649  006D  1283               	bcf	3,5	;RP0=0, select bank0
  2650  006E  1303               	bcf	3,6	;RP1=0, select bank0
  2651  006F  169F               	bsf	31,5	;volatile
  2652                           
  2653                           ;E:/UVG/Semestre 5/Digital2/Lab3/Lab3.X/ADC.c: 77:             ADCON0bits.CHS2 = 0;
  2654  0070  121F               	bcf	31,4	;volatile
  2655                           
  2656                           ;E:/UVG/Semestre 5/Digital2/Lab3/Lab3.X/ADC.c: 78:             ADCON0bits.CHS1 = 1;
  2657  0071  159F               	bsf	31,3	;volatile
  2658                           
  2659                           ;E:/UVG/Semestre 5/Digital2/Lab3/Lab3.X/ADC.c: 79:             ADCON0bits.CHS0 = 1;
  2660  0072  151F               	bsf	31,2	;volatile
  2661                           
  2662                           ;E:/UVG/Semestre 5/Digital2/Lab3/Lab3.X/ADC.c: 80:             break;
  2663  0073  28E0               	goto	i1l1691
  2664  0074                     i1l144:	
  2665                           ;E:/UVG/Semestre 5/Digital2/Lab3/Lab3.X/ADC.c: 81:         case 12:
  2666                           
  2667                           
  2668                           ;E:/UVG/Semestre 5/Digital2/Lab3/Lab3.X/ADC.c: 82:             ADCON0bits.CHS3 = 1;
  2669  0074  1283               	bcf	3,5	;RP0=0, select bank0
  2670  0075  1303               	bcf	3,6	;RP1=0, select bank0
  2671  0076  169F               	bsf	31,5	;volatile
  2672                           
  2673                           ;E:/UVG/Semestre 5/Digital2/Lab3/Lab3.X/ADC.c: 83:             ADCON0bits.CHS2 = 1;
  2674  0077  161F               	bsf	31,4	;volatile
  2675                           
  2676                           ;E:/UVG/Semestre 5/Digital2/Lab3/Lab3.X/ADC.c: 84:             ADCON0bits.CHS1 = 0;
  2677  0078  119F               	bcf	31,3	;volatile
  2678                           
  2679                           ;E:/UVG/Semestre 5/Digital2/Lab3/Lab3.X/ADC.c: 85:             ADCON0bits.CHS0 = 0;
  2680  0079  111F               	bcf	31,2	;volatile
  2681                           
  2682                           ;E:/UVG/Semestre 5/Digital2/Lab3/Lab3.X/ADC.c: 86:             break;
  2683  007A  28E0               	goto	i1l1691
  2684  007B                     i1l145:	
  2685                           ;E:/UVG/Semestre 5/Digital2/Lab3/Lab3.X/ADC.c: 87:         case 13:
  2686                           
  2687                           
  2688                           ;E:/UVG/Semestre 5/Digital2/Lab3/Lab3.X/ADC.c: 88:             ADCON0bits.CHS3 = 1;
  2689  007B  1283               	bcf	3,5	;RP0=0, select bank0
  2690  007C  1303               	bcf	3,6	;RP1=0, select bank0
  2691  007D  169F               	bsf	31,5	;volatile
  2692                           
  2693                           ;E:/UVG/Semestre 5/Digital2/Lab3/Lab3.X/ADC.c: 89:             ADCON0bits.CHS2 = 1;
  2694  007E  161F               	bsf	31,4	;volatile
  2695                           
  2696                           ;E:/UVG/Semestre 5/Digital2/Lab3/Lab3.X/ADC.c: 90:             ADCON0bits.CHS1 = 0;
  2697  007F  119F               	bcf	31,3	;volatile
  2698                           
  2699                           ;E:/UVG/Semestre 5/Digital2/Lab3/Lab3.X/ADC.c: 91:             ADCON0bits.CHS0 = 1;
  2700  0080  151F               	bsf	31,2	;volatile
  2701                           
  2702                           ;E:/UVG/Semestre 5/Digital2/Lab3/Lab3.X/ADC.c: 92:             break;
  2703  0081  28E0               	goto	i1l1691
  2704  0082                     i1l146:	
  2705                           ;E:/UVG/Semestre 5/Digital2/Lab3/Lab3.X/ADC.c: 93:         case 14:
  2706                           
  2707                           
  2708                           ;E:/UVG/Semestre 5/Digital2/Lab3/Lab3.X/ADC.c: 94:             ADCON0bits.CHS3 = 1;
  2709  0082  1283               	bcf	3,5	;RP0=0, select bank0
  2710  0083  1303               	bcf	3,6	;RP1=0, select bank0
  2711  0084  169F               	bsf	31,5	;volatile
  2712                           
  2713                           ;E:/UVG/Semestre 5/Digital2/Lab3/Lab3.X/ADC.c: 95:             ADCON0bits.CHS2 = 1;
  2714  0085  161F               	bsf	31,4	;volatile
  2715                           
  2716                           ;E:/UVG/Semestre 5/Digital2/Lab3/Lab3.X/ADC.c: 96:             ADCON0bits.CHS1 = 1;
  2717  0086  159F               	bsf	31,3	;volatile
  2718                           
  2719                           ;E:/UVG/Semestre 5/Digital2/Lab3/Lab3.X/ADC.c: 97:             ADCON0bits.CHS0 = 0;
  2720  0087  111F               	bcf	31,2	;volatile
  2721                           
  2722                           ;E:/UVG/Semestre 5/Digital2/Lab3/Lab3.X/ADC.c: 98:             break;
  2723  0088  28E0               	goto	i1l1691
  2724  0089                     i1l147:	
  2725                           ;E:/UVG/Semestre 5/Digital2/Lab3/Lab3.X/ADC.c: 99:         case 15:
  2726                           
  2727                           
  2728                           ;E:/UVG/Semestre 5/Digital2/Lab3/Lab3.X/ADC.c: 100:             ADCON0bits.CHS3 = 1;
  2729  0089  1283               	bcf	3,5	;RP0=0, select bank0
  2730  008A  1303               	bcf	3,6	;RP1=0, select bank0
  2731  008B  169F               	bsf	31,5	;volatile
  2732                           
  2733                           ;E:/UVG/Semestre 5/Digital2/Lab3/Lab3.X/ADC.c: 101:             ADCON0bits.CHS2 = 1;
  2734  008C  161F               	bsf	31,4	;volatile
  2735                           
  2736                           ;E:/UVG/Semestre 5/Digital2/Lab3/Lab3.X/ADC.c: 102:             ADCON0bits.CHS1 = 1;
  2737  008D  159F               	bsf	31,3	;volatile
  2738                           
  2739                           ;E:/UVG/Semestre 5/Digital2/Lab3/Lab3.X/ADC.c: 103:             ADCON0bits.CHS0 = 1;
  2740  008E  151F               	bsf	31,2	;volatile
  2741                           
  2742                           ;E:/UVG/Semestre 5/Digital2/Lab3/Lab3.X/ADC.c: 104:             break;
  2743  008F  28E0               	goto	i1l1691
  2744  0090                     i1l148:	
  2745                           ;E:/UVG/Semestre 5/Digital2/Lab3/Lab3.X/ADC.c: 105:         default:
  2746                           
  2747                           
  2748                           ;E:/UVG/Semestre 5/Digital2/Lab3/Lab3.X/ADC.c: 106:             ADCON0bits.CHS3 = 0;
  2749  0090  1283               	bcf	3,5	;RP0=0, select bank0
  2750  0091  1303               	bcf	3,6	;RP1=0, select bank0
  2751  0092  129F               	bcf	31,5	;volatile
  2752                           
  2753                           ;E:/UVG/Semestre 5/Digital2/Lab3/Lab3.X/ADC.c: 107:             ADCON0bits.CHS2 = 0;
  2754  0093  121F               	bcf	31,4	;volatile
  2755                           
  2756                           ;E:/UVG/Semestre 5/Digital2/Lab3/Lab3.X/ADC.c: 108:             ADCON0bits.CHS1 = 0;
  2757  0094  119F               	bcf	31,3	;volatile
  2758                           
  2759                           ;E:/UVG/Semestre 5/Digital2/Lab3/Lab3.X/ADC.c: 109:             ADCON0bits.CHS0 = 0;
  2760  0095  111F               	bcf	31,2	;volatile
  2761                           
  2762                           ;E:/UVG/Semestre 5/Digital2/Lab3/Lab3.X/ADC.c: 110:             break;
  2763  0096  28E0               	goto	i1l1691
  2764  0097                     i1l1687:
  2765  0097  0870               	movf	i1initADC@CHS,w
  2766  0098  00F1               	movwf	??i1_initADC
  2767  0099  01F2               	clrf	??i1_initADC+1
  2768                           
  2769                           ; Switch on 2 bytes has been partitioned into a top level switch of size 1, and 1 sub-sw
      +                          itches
  2770                           ; Switch size 1, requested type "simple"
  2771                           ; Number of cases is 1, Range of values is 0 to 0
  2772                           ; switch strategies available:
  2773                           ; Name         Instructions Cycles
  2774                           ; simple_byte            4     3 (average)
  2775                           ; direct_byte           11     8 (fixed)
  2776                           ; jumptable            260     6 (fixed)
  2777                           ;	Chosen strategy is simple_byte
  2778  009A  0872               	movf	??i1_initADC+1,w
  2779  009B  3A00               	xorlw	0	; case 0
  2780  009C  1903               	skipnz
  2781  009D  289F               	goto	i1l1983
  2782  009E  2890               	goto	i1l148
  2783  009F                     i1l1983:
  2784                           
  2785                           ; Switch size 1, requested type "simple"
  2786                           ; Number of cases is 16, Range of values is 0 to 15
  2787                           ; switch strategies available:
  2788                           ; Name         Instructions Cycles
  2789                           ; simple_byte           49    25 (average)
  2790                           ; direct_byte           56     8 (fixed)
  2791                           ; jumptable            260     6 (fixed)
  2792                           ;	Chosen strategy is simple_byte
  2793  009F  0871               	movf	??i1_initADC,w
  2794  00A0  3A00               	xorlw	0	; case 0
  2795  00A1  1903               	skipnz
  2796  00A2  2820               	goto	i1l131
  2797  00A3  3A01               	xorlw	1	; case 1
  2798  00A4  1903               	skipnz
  2799  00A5  2827               	goto	i1l133
  2800  00A6  3A03               	xorlw	3	; case 2
  2801  00A7  1903               	skipnz
  2802  00A8  282E               	goto	i1l134
  2803  00A9  3A01               	xorlw	1	; case 3
  2804  00AA  1903               	skipnz
  2805  00AB  2835               	goto	i1l135
  2806  00AC  3A07               	xorlw	7	; case 4
  2807  00AD  1903               	skipnz
  2808  00AE  283C               	goto	i1l136
  2809  00AF  3A01               	xorlw	1	; case 5
  2810  00B0  1903               	skipnz
  2811  00B1  2843               	goto	i1l137
  2812  00B2  3A03               	xorlw	3	; case 6
  2813  00B3  1903               	skipnz
  2814  00B4  284A               	goto	i1l138
  2815  00B5  3A01               	xorlw	1	; case 7
  2816  00B6  1903               	skipnz
  2817  00B7  2851               	goto	i1l139
  2818  00B8  3A0F               	xorlw	15	; case 8
  2819  00B9  1903               	skipnz
  2820  00BA  2858               	goto	i1l140
  2821  00BB  3A01               	xorlw	1	; case 9
  2822  00BC  1903               	skipnz
  2823  00BD  285F               	goto	i1l141
  2824  00BE  3A03               	xorlw	3	; case 10
  2825  00BF  1903               	skipnz
  2826  00C0  2866               	goto	i1l142
  2827  00C1  3A01               	xorlw	1	; case 11
  2828  00C2  1903               	skipnz
  2829  00C3  286D               	goto	i1l143
  2830  00C4  3A07               	xorlw	7	; case 12
  2831  00C5  1903               	skipnz
  2832  00C6  2874               	goto	i1l144
  2833  00C7  3A01               	xorlw	1	; case 13
  2834  00C8  1903               	skipnz
  2835  00C9  287B               	goto	i1l145
  2836  00CA  3A03               	xorlw	3	; case 14
  2837  00CB  1903               	skipnz
  2838  00CC  2882               	goto	i1l146
  2839  00CD  3A01               	xorlw	1	; case 15
  2840  00CE  1903               	skipnz
  2841  00CF  2889               	goto	i1l147
  2842  00D0  2890               	goto	i1l148
  2843  00D1                     i1l150:	
  2844                           ;E:/UVG/Semestre 5/Digital2/Lab3/Lab3.X/ADC.c: 114:         case 0:
  2845                           
  2846                           
  2847                           ;E:/UVG/Semestre 5/Digital2/Lab3/Lab3.X/ADC.c: 115:             ADCON0bits.ADCS0 = 0;
  2848  00D1  131F               	bcf	31,6	;volatile
  2849                           
  2850                           ;E:/UVG/Semestre 5/Digital2/Lab3/Lab3.X/ADC.c: 116:             ADCON0bits.ADCS0 = 0;
  2851  00D2  131F               	bcf	31,6	;volatile
  2852                           
  2853                           ;E:/UVG/Semestre 5/Digital2/Lab3/Lab3.X/ADC.c: 117:             break;
  2854  00D3  28F6               	goto	i1l151
  2855  00D4                     i1l152:	
  2856                           ;E:/UVG/Semestre 5/Digital2/Lab3/Lab3.X/ADC.c: 118:         case 1:
  2857                           
  2858                           
  2859                           ;E:/UVG/Semestre 5/Digital2/Lab3/Lab3.X/ADC.c: 119:             ADCON0bits.ADCS0 = 0;
  2860  00D4  131F               	bcf	31,6	;volatile
  2861                           
  2862                           ;E:/UVG/Semestre 5/Digital2/Lab3/Lab3.X/ADC.c: 120:             ADCON0bits.ADCS0 = 1;
  2863  00D5  171F               	bsf	31,6	;volatile
  2864                           
  2865                           ;E:/UVG/Semestre 5/Digital2/Lab3/Lab3.X/ADC.c: 121:             break;
  2866  00D6  28F6               	goto	i1l151
  2867  00D7                     i1l153:	
  2868                           ;E:/UVG/Semestre 5/Digital2/Lab3/Lab3.X/ADC.c: 122:         case 2:
  2869                           
  2870                           
  2871                           ;E:/UVG/Semestre 5/Digital2/Lab3/Lab3.X/ADC.c: 123:             ADCON0bits.ADCS0 = 1;
  2872  00D7  171F               	bsf	31,6	;volatile
  2873                           
  2874                           ;E:/UVG/Semestre 5/Digital2/Lab3/Lab3.X/ADC.c: 124:             ADCON0bits.ADCS0 = 0;
  2875  00D8  131F               	bcf	31,6	;volatile
  2876                           
  2877                           ;E:/UVG/Semestre 5/Digital2/Lab3/Lab3.X/ADC.c: 125:             break;
  2878  00D9  28F6               	goto	i1l151
  2879  00DA                     i1l154:	
  2880                           ;E:/UVG/Semestre 5/Digital2/Lab3/Lab3.X/ADC.c: 126:         case 3:
  2881                           
  2882                           
  2883                           ;E:/UVG/Semestre 5/Digital2/Lab3/Lab3.X/ADC.c: 127:             ADCON0bits.ADCS0 = 1;
  2884  00DA  171F               	bsf	31,6	;volatile
  2885                           
  2886                           ;E:/UVG/Semestre 5/Digital2/Lab3/Lab3.X/ADC.c: 128:             ADCON0bits.ADCS0 = 1;
  2887  00DB  171F               	bsf	31,6	;volatile
  2888                           
  2889                           ;E:/UVG/Semestre 5/Digital2/Lab3/Lab3.X/ADC.c: 129:             break;
  2890  00DC  28F6               	goto	i1l151
  2891  00DD                     i1l155:	
  2892                           ;E:/UVG/Semestre 5/Digital2/Lab3/Lab3.X/ADC.c: 130:         default:
  2893                           
  2894                           
  2895                           ;E:/UVG/Semestre 5/Digital2/Lab3/Lab3.X/ADC.c: 131:             ADCON0bits.ADCS0 = 0;
  2896  00DD  131F               	bcf	31,6	;volatile
  2897                           
  2898                           ;E:/UVG/Semestre 5/Digital2/Lab3/Lab3.X/ADC.c: 132:             ADCON0bits.ADCS0 = 0;
  2899  00DE  131F               	bcf	31,6	;volatile
  2900                           
  2901                           ;E:/UVG/Semestre 5/Digital2/Lab3/Lab3.X/ADC.c: 133:             break;
  2902  00DF  28F6               	goto	i1l151
  2903  00E0                     i1l1691:
  2904  00E0  0873               	movf	i1initADC@ADCS,w
  2905  00E1  00F1               	movwf	??i1_initADC
  2906  00E2  01F2               	clrf	??i1_initADC+1
  2907                           
  2908                           ; Switch on 2 bytes has been partitioned into a top level switch of size 1, and 1 sub-sw
      +                          itches
  2909                           ; Switch size 1, requested type "simple"
  2910                           ; Number of cases is 1, Range of values is 0 to 0
  2911                           ; switch strategies available:
  2912                           ; Name         Instructions Cycles
  2913                           ; simple_byte            4     3 (average)
  2914                           ; direct_byte           11     8 (fixed)
  2915                           ; jumptable            260     6 (fixed)
  2916                           ;	Chosen strategy is simple_byte
  2917  00E3  0872               	movf	??i1_initADC+1,w
  2918  00E4  3A00               	xorlw	0	; case 0
  2919  00E5  1903               	skipnz
  2920  00E6  28E8               	goto	i1l1985
  2921  00E7  28DD               	goto	i1l155
  2922  00E8                     i1l1985:
  2923                           
  2924                           ; Switch size 1, requested type "simple"
  2925                           ; Number of cases is 4, Range of values is 0 to 3
  2926                           ; switch strategies available:
  2927                           ; Name         Instructions Cycles
  2928                           ; simple_byte           13     7 (average)
  2929                           ; direct_byte           20     8 (fixed)
  2930                           ; jumptable            260     6 (fixed)
  2931                           ;	Chosen strategy is simple_byte
  2932  00E8  0871               	movf	??i1_initADC,w
  2933  00E9  3A00               	xorlw	0	; case 0
  2934  00EA  1903               	skipnz
  2935  00EB  28D1               	goto	i1l150
  2936  00EC  3A01               	xorlw	1	; case 1
  2937  00ED  1903               	skipnz
  2938  00EE  28D4               	goto	i1l152
  2939  00EF  3A03               	xorlw	3	; case 2
  2940  00F0  1903               	skipnz
  2941  00F1  28D7               	goto	i1l153
  2942  00F2  3A01               	xorlw	1	; case 3
  2943  00F3  1903               	skipnz
  2944  00F4  28DA               	goto	i1l154
  2945  00F5  28DD               	goto	i1l155
  2946  00F6                     i1l151:
  2947                           
  2948                           ;E:/UVG/Semestre 5/Digital2/Lab3/Lab3.X/ADC.c: 136:     ADCON0bits.ADON = 1;
  2949  00F6  141F               	bsf	31,0	;volatile
  2950                           
  2951                           ;E:/UVG/Semestre 5/Digital2/Lab3/Lab3.X/ADC.c: 138:     ADCON0bits.GO_nDONE = 1;
  2952  00F7  149F               	bsf	31,1	;volatile
  2953  00F8                     i1l1693:
  2954                           
  2955                           ;E:/UVG/Semestre 5/Digital2/Lab3/Lab3.X/ADC.c: 140:     ADCON1 = 0b00000000;
  2956  00F8  1683               	bsf	3,5	;RP0=1, select bank1
  2957  00F9  1303               	bcf	3,6	;RP1=0, select bank1
  2958  00FA  019F               	clrf	31	;volatile
  2959  00FB                     i1l1695:
  2960                           
  2961                           ;E:/UVG/Semestre 5/Digital2/Lab3/Lab3.X/ADC.c: 142:     _delay((unsigned long)((10)*(400
      +                          0000/4000.0)));
  2962  00FB  300D               	movlw	13
  2963  00FC  00F2               	movwf	??i1_initADC+1
  2964  00FD  30FB               	movlw	251
  2965  00FE  00F1               	movwf	??i1_initADC
  2966  00FF                     u32_27:
  2967  00FF  0BF1               	decfsz	??i1_initADC,f
  2968  0100  28FF               	goto	u32_27
  2969  0101  0BF2               	decfsz	??i1_initADC+1,f
  2970  0102  28FF               	goto	u32_27
  2971  0103  2904               	nop2
  2972  0104                     i1l156:
  2973  0104  0008               	return
  2974  0105                     __end_ofi1_initADC:
  2975                           
  2976                           	psect	text10
  2977  01CD                     __ptext10:	
  2978 ;; *************** function _Envio *****************
  2979 ;; Defined at:
  2980 ;;		line 170 in file "code.c"
  2981 ;; Parameters:    Size  Location     Type
  2982 ;;		None
  2983 ;; Auto vars:     Size  Location     Type
  2984 ;;  temporal        1    5[COMMON] unsigned char 
  2985 ;; Return value:  Size  Location     Type
  2986 ;;                  1    wreg      unsigned char 
  2987 ;; Registers used:
  2988 ;;		wreg, fsr0l, fsr0h, status,2, status,0, pclath, cstack
  2989 ;; Tracked objects:
  2990 ;;		On entry : 0/0
  2991 ;;		On exit  : 0/0
  2992 ;;		Unchanged: 0/0
  2993 ;; Data sizes:     COMMON   BANK0   BANK1   BANK3   BANK2
  2994 ;;      Params:         0       0       0       0       0
  2995 ;;      Locals:         1       0       0       0       0
  2996 ;;      Temps:          2       0       0       0       0
  2997 ;;      Totals:         3       0       0       0       0
  2998 ;;Total ram usage:        3 bytes
  2999 ;; Hardware stack levels used:    1
  3000 ;; Hardware stack levels required when called:    1
  3001 ;; This function calls:
  3002 ;;		_ASCII
  3003 ;; This function is called by:
  3004 ;;		_isr
  3005 ;; This function uses a non-reentrant model
  3006 ;;
  3007                           
  3008                           
  3009                           ;psect for function _Envio
  3010  01CD                     _Envio:
  3011  01CD                     i1l1563:	
  3012                           ;incstack = 0
  3013                           ; Regs used in _Envio: [wreg-fsr0h+status,2+status,0+pclath+cstack]
  3014                           
  3015                           
  3016                           ;code.c: 171:     uint8_t temporal;;code.c: 172:     switch(FLAGTX){
  3017  01CD  2A2D               	goto	i1l1627
  3018  01CE                     i1l1565:
  3019                           
  3020                           ;code.c: 174:             FLAGTX++;
  3021  01CE  3001               	movlw	1
  3022  01CF  00F3               	movwf	??_Envio
  3023  01D0  0873               	movf	??_Envio,w
  3024  01D1  07A7               	addwf	_FLAGTX,f
  3025  01D2                     i1l1567:
  3026                           
  3027                           ;code.c: 175:             return 0x28;
  3028  01D2  3028               	movlw	40
  3029  01D3  2A4E               	goto	i1l111
  3030  01D4                     i1l1573:
  3031                           
  3032                           ;code.c: 178:             temporal = VAR_ADC1 & 0x0F;
  3033  01D4  087D               	movf	_VAR_ADC1,w
  3034  01D5  390F               	andlw	15
  3035  01D6  00F3               	movwf	??_Envio
  3036  01D7  0873               	movf	??_Envio,w
  3037  01D8  00F5               	movwf	Envio@temporal
  3038  01D9                     i1l1575:
  3039                           
  3040                           ;code.c: 179:             FLAGTX++;
  3041  01D9  3001               	movlw	1
  3042  01DA  00F3               	movwf	??_Envio
  3043  01DB  0873               	movf	??_Envio,w
  3044  01DC  07A7               	addwf	_FLAGTX,f
  3045  01DD                     i1l1577:
  3046                           
  3047                           ;code.c: 180:             return ASCII(temporal);
  3048  01DD  0875               	movf	Envio@temporal,w
  3049  01DE  120A  118A  231F  120A  118A  	fcall	_ASCII
  3050  01E3  2A4E               	goto	i1l111
  3051  01E4                     i1l1583:
  3052                           
  3053                           ;code.c: 183:             temporal = (VAR_ADC1 & 0xF0)>>4;
  3054  01E4  087D               	movf	_VAR_ADC1,w
  3055  01E5  00F3               	movwf	??_Envio
  3056  01E6  3004               	movlw	4
  3057  01E7                     u14_25:
  3058  01E7  1003               	clrc
  3059  01E8  0CF3               	rrf	??_Envio,f
  3060  01E9  3EFF               	addlw	-1
  3061  01EA  1D03               	skipz
  3062  01EB  29E7               	goto	u14_25
  3063  01EC  0873               	movf	??_Envio,w
  3064  01ED  390F               	andlw	15
  3065  01EE  00F4               	movwf	??_Envio+1
  3066  01EF  0874               	movf	??_Envio+1,w
  3067  01F0  00F5               	movwf	Envio@temporal
  3068                           
  3069                           ;code.c: 184:             FLAGTX++;
  3070  01F1  3001               	movlw	1
  3071  01F2  00F3               	movwf	??_Envio
  3072  01F3  0873               	movf	??_Envio,w
  3073  01F4  07A7               	addwf	_FLAGTX,f
  3074  01F5                     i1l1585:
  3075                           
  3076                           ;code.c: 185:             return ASCII(temporal);
  3077  01F5  0875               	movf	Envio@temporal,w
  3078  01F6  120A  118A  231F  120A  118A  	fcall	_ASCII
  3079  01FB  2A4E               	goto	i1l111
  3080  01FC                     i1l1591:
  3081                           
  3082                           ;code.c: 188:             FLAGTX++;
  3083  01FC  3001               	movlw	1
  3084  01FD  00F3               	movwf	??_Envio
  3085  01FE  0873               	movf	??_Envio,w
  3086  01FF  07A7               	addwf	_FLAGTX,f
  3087  0200                     i1l1593:
  3088                           
  3089                           ;code.c: 189:             return 0x2C;
  3090  0200  302C               	movlw	44
  3091  0201  2A4E               	goto	i1l111
  3092  0202                     i1l1599:
  3093                           
  3094                           ;code.c: 192:             temporal = VAR_ADC2 & 0x0F;
  3095  0202  087C               	movf	_VAR_ADC2,w
  3096  0203  390F               	andlw	15
  3097  0204  00F3               	movwf	??_Envio
  3098  0205  0873               	movf	??_Envio,w
  3099  0206  00F5               	movwf	Envio@temporal
  3100  0207                     i1l1601:
  3101                           
  3102                           ;code.c: 193:             FLAGTX++;
  3103  0207  3001               	movlw	1
  3104  0208  00F3               	movwf	??_Envio
  3105  0209  0873               	movf	??_Envio,w
  3106  020A  07A7               	addwf	_FLAGTX,f
  3107  020B                     i1l1603:
  3108                           
  3109                           ;code.c: 194:             return ASCII(temporal);
  3110  020B  0875               	movf	Envio@temporal,w
  3111  020C  120A  118A  231F  120A  118A  	fcall	_ASCII
  3112  0211  2A4E               	goto	i1l111
  3113  0212                     i1l1609:
  3114                           
  3115                           ;code.c: 197:             FLAGTX++;
  3116  0212  3001               	movlw	1
  3117  0213  00F3               	movwf	??_Envio
  3118  0214  0873               	movf	??_Envio,w
  3119  0215  07A7               	addwf	_FLAGTX,f
  3120                           
  3121                           ;code.c: 198:             temporal = (VAR_ADC2 & 0xF0)>>4;
  3122  0216  087C               	movf	_VAR_ADC2,w
  3123  0217  00F3               	movwf	??_Envio
  3124  0218  3004               	movlw	4
  3125  0219                     u15_25:
  3126  0219  1003               	clrc
  3127  021A  0CF3               	rrf	??_Envio,f
  3128  021B  3EFF               	addlw	-1
  3129  021C  1D03               	skipz
  3130  021D  2A19               	goto	u15_25
  3131  021E  0873               	movf	??_Envio,w
  3132  021F  390F               	andlw	15
  3133  0220  00F4               	movwf	??_Envio+1
  3134  0221  0874               	movf	??_Envio+1,w
  3135  0222  00F5               	movwf	Envio@temporal
  3136  0223                     i1l1611:
  3137                           
  3138                           ;code.c: 199:             return ASCII(temporal);
  3139  0223  0875               	movf	Envio@temporal,w
  3140  0224  120A  118A  231F  120A  118A  	fcall	_ASCII
  3141  0229  2A4E               	goto	i1l111
  3142  022A                     i1l1617:
  3143                           
  3144                           ;code.c: 202:             FLAGTX = 0;
  3145  022A  01A7               	clrf	_FLAGTX
  3146  022B                     i1l1619:
  3147                           
  3148                           ;code.c: 203:             return 0x29;
  3149  022B  3029               	movlw	41
  3150  022C  2A4E               	goto	i1l111
  3151  022D                     i1l1627:
  3152  022D  1283               	bcf	3,5	;RP0=0, select bank0
  3153  022E  1303               	bcf	3,6	;RP1=0, select bank0
  3154  022F  0827               	movf	_FLAGTX,w
  3155  0230  00F3               	movwf	??_Envio
  3156  0231  01F4               	clrf	??_Envio+1
  3157                           
  3158                           ; Switch on 2 bytes has been partitioned into a top level switch of size 1, and 1 sub-sw
      +                          itches
  3159                           ; Switch size 1, requested type "simple"
  3160                           ; Number of cases is 1, Range of values is 0 to 0
  3161                           ; switch strategies available:
  3162                           ; Name         Instructions Cycles
  3163                           ; simple_byte            4     3 (average)
  3164                           ; direct_byte           11     8 (fixed)
  3165                           ; jumptable            260     6 (fixed)
  3166                           ;	Chosen strategy is simple_byte
  3167  0232  0874               	movf	??_Envio+1,w
  3168  0233  3A00               	xorlw	0	; case 0
  3169  0234  1903               	skipnz
  3170  0235  2A37               	goto	i1l1987
  3171  0236  2A4E               	goto	i1l111
  3172  0237                     i1l1987:
  3173                           
  3174                           ; Switch size 1, requested type "simple"
  3175                           ; Number of cases is 7, Range of values is 0 to 6
  3176                           ; switch strategies available:
  3177                           ; Name         Instructions Cycles
  3178                           ; simple_byte           22    12 (average)
  3179                           ; direct_byte           29     8 (fixed)
  3180                           ; jumptable            260     6 (fixed)
  3181                           ;	Chosen strategy is simple_byte
  3182  0237  0873               	movf	??_Envio,w
  3183  0238  3A00               	xorlw	0	; case 0
  3184  0239  1903               	skipnz
  3185  023A  29CE               	goto	i1l1565
  3186  023B  3A01               	xorlw	1	; case 1
  3187  023C  1903               	skipnz
  3188  023D  29D4               	goto	i1l1573
  3189  023E  3A03               	xorlw	3	; case 2
  3190  023F  1903               	skipnz
  3191  0240  29E4               	goto	i1l1583
  3192  0241  3A01               	xorlw	1	; case 3
  3193  0242  1903               	skipnz
  3194  0243  29FC               	goto	i1l1591
  3195  0244  3A07               	xorlw	7	; case 4
  3196  0245  1903               	skipnz
  3197  0246  2A02               	goto	i1l1599
  3198  0247  3A01               	xorlw	1	; case 5
  3199  0248  1903               	skipnz
  3200  0249  2A12               	goto	i1l1609
  3201  024A  3A03               	xorlw	3	; case 6
  3202  024B  1903               	skipnz
  3203  024C  2A2A               	goto	i1l1617
  3204  024D  2A4E               	goto	i1l111
  3205  024E                     i1l111:
  3206  024E  0008               	return
  3207  024F                     __end_of_Envio:
  3208                           
  3209                           	psect	text11
  3210  031F                     __ptext11:	
  3211 ;; *************** function _ASCII *****************
  3212 ;; Defined at:
  3213 ;;		line 22 in file "E:/UVG/Semestre 5/Digital2/Lab3/Lab3.X/USART.c"
  3214 ;; Parameters:    Size  Location     Type
  3215 ;;  valor           1    wreg     unsigned char 
  3216 ;; Auto vars:     Size  Location     Type
  3217 ;;  valor           1    2[COMMON] unsigned char 
  3218 ;; Return value:  Size  Location     Type
  3219 ;;                  1    wreg      unsigned char 
  3220 ;; Registers used:
  3221 ;;		wreg, fsr0l, fsr0h, status,2, status,0
  3222 ;; Tracked objects:
  3223 ;;		On entry : 0/0
  3224 ;;		On exit  : 0/0
  3225 ;;		Unchanged: 0/0
  3226 ;; Data sizes:     COMMON   BANK0   BANK1   BANK3   BANK2
  3227 ;;      Params:         0       0       0       0       0
  3228 ;;      Locals:         1       0       0       0       0
  3229 ;;      Temps:          2       0       0       0       0
  3230 ;;      Totals:         3       0       0       0       0
  3231 ;;Total ram usage:        3 bytes
  3232 ;; Hardware stack levels used:    1
  3233 ;; This function calls:
  3234 ;;		Nothing
  3235 ;; This function is called by:
  3236 ;;		_Envio
  3237 ;; This function uses a non-reentrant model
  3238 ;;
  3239                           
  3240                           
  3241                           ;psect for function _ASCII
  3242  031F                     _ASCII:
  3243                           
  3244                           ;incstack = 0
  3245                           ; Regs used in _ASCII: [wreg-fsr0h+status,2+status,0]
  3246                           ;ASCII@valor stored from wreg
  3247  031F  00F2               	movwf	ASCII@valor
  3248  0320                     i1l1457:
  3249                           
  3250                           ;E:/UVG/Semestre 5/Digital2/Lab3/Lab3.X/USART.c: 23:     switch(valor){
  3251  0320  2B41               	goto	i1l1557
  3252  0321                     i1l1459:
  3253                           
  3254                           ;E:/UVG/Semestre 5/Digital2/Lab3/Lab3.X/USART.c: 25:             return 0x30;
  3255  0321  3030               	movlw	48
  3256  0322  2B7B               	goto	i1l229
  3257  0323                     i1l1465:
  3258                           
  3259                           ;E:/UVG/Semestre 5/Digital2/Lab3/Lab3.X/USART.c: 28:             return 0x31;
  3260  0323  3031               	movlw	49
  3261  0324  2B7B               	goto	i1l229
  3262  0325                     i1l1471:
  3263                           
  3264                           ;E:/UVG/Semestre 5/Digital2/Lab3/Lab3.X/USART.c: 31:             return 0x32;
  3265  0325  3032               	movlw	50
  3266  0326  2B7B               	goto	i1l229
  3267  0327                     i1l1477:
  3268                           
  3269                           ;E:/UVG/Semestre 5/Digital2/Lab3/Lab3.X/USART.c: 34:             return 0x33;
  3270  0327  3033               	movlw	51
  3271  0328  2B7B               	goto	i1l229
  3272  0329                     i1l1483:
  3273                           
  3274                           ;E:/UVG/Semestre 5/Digital2/Lab3/Lab3.X/USART.c: 37:             return 0x34;
  3275  0329  3034               	movlw	52
  3276  032A  2B7B               	goto	i1l229
  3277  032B                     i1l1489:
  3278                           
  3279                           ;E:/UVG/Semestre 5/Digital2/Lab3/Lab3.X/USART.c: 40:             return 0x35;
  3280  032B  3035               	movlw	53
  3281  032C  2B7B               	goto	i1l229
  3282  032D                     i1l1495:
  3283                           
  3284                           ;E:/UVG/Semestre 5/Digital2/Lab3/Lab3.X/USART.c: 43:             return 0x36;
  3285  032D  3036               	movlw	54
  3286  032E  2B7B               	goto	i1l229
  3287  032F                     i1l1501:
  3288                           
  3289                           ;E:/UVG/Semestre 5/Digital2/Lab3/Lab3.X/USART.c: 46:             return 0x37;
  3290  032F  3037               	movlw	55
  3291  0330  2B7B               	goto	i1l229
  3292  0331                     i1l1507:
  3293                           
  3294                           ;E:/UVG/Semestre 5/Digital2/Lab3/Lab3.X/USART.c: 49:             return 0x38;
  3295  0331  3038               	movlw	56
  3296  0332  2B7B               	goto	i1l229
  3297  0333                     i1l1513:
  3298                           
  3299                           ;E:/UVG/Semestre 5/Digital2/Lab3/Lab3.X/USART.c: 52:             return 0x39;
  3300  0333  3039               	movlw	57
  3301  0334  2B7B               	goto	i1l229
  3302  0335                     i1l1519:
  3303                           
  3304                           ;E:/UVG/Semestre 5/Digital2/Lab3/Lab3.X/USART.c: 55:             return 0x41;
  3305  0335  3041               	movlw	65
  3306  0336  2B7B               	goto	i1l229
  3307  0337                     i1l1525:
  3308                           
  3309                           ;E:/UVG/Semestre 5/Digital2/Lab3/Lab3.X/USART.c: 58:             return 0x42;
  3310  0337  3042               	movlw	66
  3311  0338  2B7B               	goto	i1l229
  3312  0339                     i1l1531:
  3313                           
  3314                           ;E:/UVG/Semestre 5/Digital2/Lab3/Lab3.X/USART.c: 61:             return 0x43;
  3315  0339  3043               	movlw	67
  3316  033A  2B7B               	goto	i1l229
  3317  033B                     i1l1537:
  3318                           
  3319                           ;E:/UVG/Semestre 5/Digital2/Lab3/Lab3.X/USART.c: 64:             return 0x44;
  3320  033B  3044               	movlw	68
  3321  033C  2B7B               	goto	i1l229
  3322  033D                     i1l1543:
  3323                           
  3324                           ;E:/UVG/Semestre 5/Digital2/Lab3/Lab3.X/USART.c: 67:             return 0x45;
  3325  033D  3045               	movlw	69
  3326  033E  2B7B               	goto	i1l229
  3327  033F                     i1l1549:
  3328                           
  3329                           ;E:/UVG/Semestre 5/Digital2/Lab3/Lab3.X/USART.c: 70:             return 0x46;
  3330  033F  3046               	movlw	70
  3331  0340  2B7B               	goto	i1l229
  3332  0341                     i1l1557:
  3333  0341  0872               	movf	ASCII@valor,w
  3334  0342  00F0               	movwf	??_ASCII
  3335  0343  01F1               	clrf	??_ASCII+1
  3336                           
  3337                           ; Switch on 2 bytes has been partitioned into a top level switch of size 1, and 1 sub-sw
      +                          itches
  3338                           ; Switch size 1, requested type "simple"
  3339                           ; Number of cases is 1, Range of values is 0 to 0
  3340                           ; switch strategies available:
  3341                           ; Name         Instructions Cycles
  3342                           ; simple_byte            4     3 (average)
  3343                           ; direct_byte           11     8 (fixed)
  3344                           ; jumptable            260     6 (fixed)
  3345                           ;	Chosen strategy is simple_byte
  3346  0344  0871               	movf	??_ASCII+1,w
  3347  0345  3A00               	xorlw	0	; case 0
  3348  0346  1903               	skipnz
  3349  0347  2B49               	goto	i1l1989
  3350  0348  2B7B               	goto	i1l229
  3351  0349                     i1l1989:
  3352                           
  3353                           ; Switch size 1, requested type "simple"
  3354                           ; Number of cases is 16, Range of values is 0 to 15
  3355                           ; switch strategies available:
  3356                           ; Name         Instructions Cycles
  3357                           ; simple_byte           49    25 (average)
  3358                           ; direct_byte           56     8 (fixed)
  3359                           ; jumptable            260     6 (fixed)
  3360                           ;	Chosen strategy is simple_byte
  3361  0349  0870               	movf	??_ASCII,w
  3362  034A  3A00               	xorlw	0	; case 0
  3363  034B  1903               	skipnz
  3364  034C  2B21               	goto	i1l1459
  3365  034D  3A01               	xorlw	1	; case 1
  3366  034E  1903               	skipnz
  3367  034F  2B23               	goto	i1l1465
  3368  0350  3A03               	xorlw	3	; case 2
  3369  0351  1903               	skipnz
  3370  0352  2B25               	goto	i1l1471
  3371  0353  3A01               	xorlw	1	; case 3
  3372  0354  1903               	skipnz
  3373  0355  2B27               	goto	i1l1477
  3374  0356  3A07               	xorlw	7	; case 4
  3375  0357  1903               	skipnz
  3376  0358  2B29               	goto	i1l1483
  3377  0359  3A01               	xorlw	1	; case 5
  3378  035A  1903               	skipnz
  3379  035B  2B2B               	goto	i1l1489
  3380  035C  3A03               	xorlw	3	; case 6
  3381  035D  1903               	skipnz
  3382  035E  2B2D               	goto	i1l1495
  3383  035F  3A01               	xorlw	1	; case 7
  3384  0360  1903               	skipnz
  3385  0361  2B2F               	goto	i1l1501
  3386  0362  3A0F               	xorlw	15	; case 8
  3387  0363  1903               	skipnz
  3388  0364  2B31               	goto	i1l1507
  3389  0365  3A01               	xorlw	1	; case 9
  3390  0366  1903               	skipnz
  3391  0367  2B33               	goto	i1l1513
  3392  0368  3A03               	xorlw	3	; case 10
  3393  0369  1903               	skipnz
  3394  036A  2B35               	goto	i1l1519
  3395  036B  3A01               	xorlw	1	; case 11
  3396  036C  1903               	skipnz
  3397  036D  2B37               	goto	i1l1525
  3398  036E  3A07               	xorlw	7	; case 12
  3399  036F  1903               	skipnz
  3400  0370  2B39               	goto	i1l1531
  3401  0371  3A01               	xorlw	1	; case 13
  3402  0372  1903               	skipnz
  3403  0373  2B3B               	goto	i1l1537
  3404  0374  3A03               	xorlw	3	; case 14
  3405  0375  1903               	skipnz
  3406  0376  2B3D               	goto	i1l1543
  3407  0377  3A01               	xorlw	1	; case 15
  3408  0378  1903               	skipnz
  3409  0379  2B3F               	goto	i1l1549
  3410  037A  2B7B               	goto	i1l229
  3411  037B                     i1l229:
  3412  037B  0008               	return
  3413  037C                     __end_of_ASCII:
  3414  007E                     btemp	set	126	;btemp
  3415  007E                     wtemp0	set	126
  3416                           
  3417                           	psect	config
  3418                           
  3419                           ;Config register CONFIG1 @ 0x2007
  3420                           ;	Oscillator Selection bits
  3421                           ;	FOSC = INTRC_NOCLKOUT, INTOSCIO oscillator: I/O function on RA6/OSC2/CLKOUT pin, I/O f
      +                          unction on RA7/OSC1/CLKIN
  3422                           ;	Watchdog Timer Enable bit
  3423                           ;	WDTE = OFF, WDT disabled and can be enabled by SWDTEN bit of the WDTCON register
  3424                           ;	Power-up Timer Enable bit
  3425                           ;	PWRTE = OFF, PWRT disabled
  3426                           ;	RE3/MCLR pin function select bit
  3427                           ;	MCLRE = OFF, RE3/MCLR pin function is digital input, MCLR internally tied to VDD
  3428                           ;	Code Protection bit
  3429                           ;	CP = OFF, Program memory code protection is disabled
  3430                           ;	Data Code Protection bit
  3431                           ;	CPD = OFF, Data memory code protection is disabled
  3432                           ;	Brown Out Reset Selection bits
  3433                           ;	BOREN = OFF, BOR disabled
  3434                           ;	Internal External Switchover bit
  3435                           ;	IESO = OFF, Internal/External Switchover mode is disabled
  3436                           ;	Fail-Safe Clock Monitor Enabled bit
  3437                           ;	FCMEN = OFF, Fail-Safe Clock Monitor is disabled
  3438                           ;	Low Voltage Programming Enable bit
  3439                           ;	LVP = OFF, RB3 pin has digital I/O, HV on MCLR must be used for programming
  3440                           ;	In-Circuit Debugger Mode bit
  3441                           ;	DEBUG = 0x1, unprogrammed default
  3442  2007                     	org	8199
  3443  2007  20D4               	dw	8404
  3444                           
  3445                           ;Config register CONFIG2 @ 0x2008
  3446                           ;	Brown-out Reset Selection bit
  3447                           ;	BOR4V = BOR40V, Brown-out Reset set to 4.0V
  3448                           ;	Flash Program Memory Self Write Enable bits
  3449                           ;	WRT = OFF, Write protection off
  3450  2008                     	org	8200
  3451  2008  3FFF               	dw	16383

Data Sizes:
    Strings     0
    Constant    0
    Data        0
    BSS         7
    Persistent  0
    Stack       0

Auto Spaces:
    Space          Size  Autos    Used
    COMMON           14     10      14
    BANK0            80      7      10
    BANK1            80      0       0
    BANK3            96      0       0
    BANK2            96      0       0

Pointer List with Targets:

    None.

Critical Paths under _main in COMMON

    None.

Critical Paths under _isr in COMMON

    _isr->_Envio
    _Envio->_ASCII

Critical Paths under _main in BANK0

    _main->_Setup
    _Setup->_Lcd_Init
    _Lcd_Init->_Lcd_Cmd
    _Lcd_Cmd->_Lcd_Port

Critical Paths under _isr in BANK0

    None.

Critical Paths under _main in BANK1

    None.

Critical Paths under _isr in BANK1

    None.

Critical Paths under _main in BANK3

    None.

Critical Paths under _isr in BANK3

    None.

Critical Paths under _main in BANK2

    None.

Critical Paths under _isr in BANK2

    None.

Call Graph Tables:

 ---------------------------------------------------------------------------------
 (Depth) Function   	        Calls       Base Space   Used Autos Params    Refs
 ---------------------------------------------------------------------------------
 (0) _main                                                 0     0      0     308
                              _Setup
 ---------------------------------------------------------------------------------
 (1) _Setup                                                1     1      0     308
                                              6 BANK0      1     1      0
                           _Lcd_Init
                            _initADC
                            _initOsc
                           _initUART
 ---------------------------------------------------------------------------------
 (2) _initUART                                             0     0      0       0
 ---------------------------------------------------------------------------------
 (2) _initOsc                                              3     3      0      22
                                              0 BANK0      3     3      0
 ---------------------------------------------------------------------------------
 (2) _initADC                                              4     3      1     220
                                              0 BANK0      4     3      1
 ---------------------------------------------------------------------------------
 (2) _Lcd_Init                                             2     2      0      66
                                              4 BANK0      2     2      0
                            _Lcd_Cmd
                           _Lcd_Port
 ---------------------------------------------------------------------------------
 (3) _Lcd_Cmd                                              3     3      0      44
                                              1 BANK0      3     3      0
                           _Lcd_Port
 ---------------------------------------------------------------------------------
 (3) _Lcd_Port                                             1     1      0      22
                                              0 BANK0      1     1      0
 ---------------------------------------------------------------------------------
 Estimated maximum stack depth 3
 ---------------------------------------------------------------------------------
 (Depth) Function   	        Calls       Base Space   Used Autos Params    Refs
 ---------------------------------------------------------------------------------
 (5) _isr                                                  4     4      0     210
                                              6 COMMON     4     4      0
                              _Envio
                          i1_initADC
 ---------------------------------------------------------------------------------
 (6) i1_initADC                                            4     3      1      96
                                              0 COMMON     4     3      1
 ---------------------------------------------------------------------------------
 (6) _Envio                                                3     3      0     114
                                              3 COMMON     3     3      0
                              _ASCII
 ---------------------------------------------------------------------------------
 (7) _ASCII                                                3     3      0      22
                                              0 COMMON     3     3      0
 ---------------------------------------------------------------------------------
 Estimated maximum stack depth 7
 ---------------------------------------------------------------------------------

 Call Graph Graphs:

 _main (ROOT)
   _Setup
     _Lcd_Init
       _Lcd_Cmd
         _Lcd_Port
       _Lcd_Port
     _initADC
     _initOsc
     _initUART

 _isr (ROOT)
   _Envio
     _ASCII
   i1_initADC

 Address spaces:
Name               Size   Autos  Total    Cost      Usage
BITCOMMON            E      0       0       0        0.0%
EEDATA             100      0       0       0        0.0%
NULL                 0      0       0       0        0.0%
CODE                 0      0       0       0        0.0%
COMMON               E      A       E       1      100.0%
BITSFR0              0      0       0       1        0.0%
SFR0                 0      0       0       1        0.0%
BITSFR1              0      0       0       2        0.0%
SFR1                 0      0       0       2        0.0%
STACK                0      0       0       2        0.0%
ABS                  0      0      18       3        0.0%
BITBANK0            50      0       0       4        0.0%
BITSFR3              0      0       0       4        0.0%
SFR3                 0      0       0       4        0.0%
BANK0               50      7       A       5       12.5%
BITSFR2              0      0       0       5        0.0%
SFR2                 0      0       0       5        0.0%
BITBANK1            50      0       0       6        0.0%
BANK1               50      0       0       7        0.0%
BITBANK3            60      0       0       8        0.0%
BANK3               60      0       0       9        0.0%
BITBANK2            60      0       0      10        0.0%
BANK2               60      0       0      11        0.0%
DATA                 0      0      18      12        0.0%


Microchip Technology PIC Macro Assembler V2.31 build 20201012212115 
Symbol Table                                                                                   Fri Feb 05 00:21:53 2021

                    l201 02C5                      l210 02F5                      l202 031D  
                    l106 0408                      l131 0109                      l211 031E  
                    l203 02CB                      l140 0131                      l204 02D1  
                    l141 0136                      l133 010E                      l205 02D7  
                    l150 0198                      l142 013B                      l134 0113  
                    l206 02DD                      l151 01BD                      l143 0140  
                    l135 0118                      l207 02E3                      l152 019B  
                    l144 0145                      l136 011D                      l208 02E9  
                    l224 0450                      l153 019E                      l145 014A  
                    l137 0122                      l209 02EF                      l154 01A1  
                    l146 014F                      l138 0127                      l155 01A4  
                    l147 0154                      l139 012C                      l180 03C7  
                    l156 01CC                      l148 0159                      l165 0456  
                    l168 0424                      u230 0432                      u231 0431  
                    u307 03A7                      u317 041C                      u277 01C8  
                    u287 0388                      u297 0398                      _isr 024F  
                    fsr0 0004                     l1403 01A7                     l1405 01BF  
                   l1421 02C4                     l1407 01C2                     l1425 02FB  
                   l1441 044B                     l1433 043D                     l1451 038C  
                   l1443 044E                     l1435 0445                     l1453 039D  
                   l1445 044F                     l1437 0449                     l1383 0454  
                   l1391 0416                     l1455 03A3                     l1447 037C  
                   l1439 044A                     l1393 0421                     l1385 040C  
                   l1449 0382                     l1641 03D9                     l1387 040D  
                   l1395 0108                     l1651 03E1                     l1643 03DB  
                   l1635 03C8                     l1389 0413                     l1661 03EB  
                   l1653 03E2                     l1645 03DE                     l1637 03D2  
                   l1399 015E                     l1663 03F7                     l1655 03E3  
                   l1647 03DF                     l1639 03D3                     l1665 03FC  
                   l1657 03E4                     l1649 03E0                     l1753 0425  
                   l1667 0401                     l1659 03E5                     l1755 042A  
                   l1669 0404                     l1757 0432                     l1759 0436  
                   l1981 01AF                     l1977 0303                     l1979 0166  
                   ?_isr 0070                     i1l94 02B8                     _TMR0 0001  
                   _main 0425                     btemp 007E                     start 000E  
        __end_of_Lcd_Cmd 0425              initADC@ADCS 0023                    ??_isr 0076  
                  ?_main 0070                    _ASCII 031F                    _ANSEL 0188  
                  i1l111 024E                    i1l131 0020                    i1l140 0058  
                  i1l141 005F                    i1l133 0027                    i1l150 00D1  
                  i1l142 0066                    i1l134 002E                    i1l151 00F6  
                  i1l143 006D                    i1l135 0035                    i1l152 00D4  
                  i1l144 0074                    i1l136 003C                    i1l153 00D7  
                  i1l145 007B                    i1l137 0043                    i1l154 00DA  
                  i1l146 0082                    i1l138 004A                    i1l155 00DD  
                  i1l147 0089                    i1l139 0051                    i1l156 0104  
                  i1l148 0090                    i1l229 037B                    _RCREG 001A  
                  u20_20 029B                    u20_21 029A                    u21_20 02A6  
                  u21_21 02A5                    u22_20 02AC                    u22_21 02AB  
                  u14_25 01E7                    u15_25 0219                    u16_20 0254  
                  u16_21 0253                    u32_27 00FF                    u17_20 0263  
                  u17_21 0262                    u18_20 0268                    u18_21 0267  
                  _SPBRG 0099                    u19_20 0291                    u19_21 0290  
                  _PORTA 0005                    _PORTB 0006                    _PORTC 0007  
                  _PORTD 0008                    _PORTE 0009                    _TRISA 0085  
                  _TRISB 0086                    _TRISC 0087                    _TRISD 0088  
                  _TRISE 0089                    _TXREG 0019                    _Envio 01CD  
                  _Setup 03C8          __end_of_initADC 01CD          __end_of_initOsc 031F  
                  pclath 000A                    status 0003                    wtemp0 007E  
       __end_of_Lcd_Init 03C8         __end_of_Lcd_Port 0457          __initialization 0011  
     __size_ofi1_initADC 00E7             __end_of_main 043D                   ??_main 0027  
                 ?_ASCII 0070                   ?_Envio 0070                   ?_Setup 0070  
                 _ADCON1 009F                   _ADRESH 001E              initOsc@IRCF 0022  
                 _ANSELH 0189                   _FLAGTX 0027                   i1l1501 032F  
                 i1l1513 0333                   i1l1601 0207                   i1l1531 0339  
                 i1l1507 0331                   i1l1611 0223                   i1l1603 020B  
                 i1l1525 0337                   i1l1543 033D                   i1l1519 0335  
                 i1l1471 0325                   i1l1711 025C                   i1l1537 033B  
                 i1l1465 0323                   i1l1457 0320                   i1l1617 022A  
                 i1l1609 0212                   i1l1721 0276                   i1l1713 025D  
                 i1l1705 024F                   i1l1483 0329                   i1l1459 0321  
                 i1l1619 022B                   i1l1627 022D                   i1l1563 01CD  
                 i1l1731 028C                   i1l1723 0279                   i1l1715 0263  
                 i1l1707 0254                   i1l1549 033F                   i1l1477 0327  
                 i1l1557 0341                   i1l1573 01D4                   i1l1565 01CE  
                 i1l1741 02A0                   i1l1725 027D                   i1l1717 0268  
                 i1l1733 028D                   i1l1709 0258                   i1l1495 032D  
                 i1l1591 01FC                   i1l1583 01E4                   i1l1575 01D9  
                 i1l1567 01D2                   i1l1751 02B7                   i1l1743 02A6  
                 i1l1735 0291                   i1l1727 0287                   i1l1719 026C  
                 i1l1489 032B                   i1l1593 0200                   i1l1585 01F5  
                 i1l1577 01DD                   i1l1737 0295                   i1l1745 02A8  
                 i1l1729 0288                   i1l1691 00E0                   i1l1683 001F  
                 i1l1747 02AC                   i1l1739 029B                   i1l1693 00F8  
                 i1l1749 02B4                   i1l1599 0202                   i1l1695 00FB  
                 i1l1687 0097                   i1l1983 009F                   i1l1985 00E8  
                 i1l1987 0237                   i1l1989 0349                ??_Lcd_Cmd 0021  
                 _SPBRGH 009A                   _TOGGLE 0028                   _WDTCON 0105  
       __end_of_initUART 0451                ??_initADC 0021                ??_initOsc 0020  
                 saved_w 007E        __end_ofi1_initADC 0105            Envio@temporal 0075  
__end_of__initialization 001A            __end_of_ASCII 037C            __end_of_Envio 024F  
         __pcstackCOMMON 0070            __end_of_Setup 0409                  ??_ASCII 0070  
                ??_Envio 0073                  ??_Setup 0026                ?_Lcd_Init 0070  
              ?_Lcd_Port 0070             i1initADC@CHS 0070               __pbssBANK0 0027  
             __pmaintext 0425               __pintentry 0004                  _FLAGADC 007A  
             ??_Lcd_Init 0024               ??_Lcd_Port 0020                ?_initUART 0070  
                _Lcd_Cmd 0409               ASCII@valor 0072                _ANSELbits 0188  
                __ptext1 03C8                  __ptext2 043D                  __ptext3 02C1  
                __ptext4 0105                  __ptext5 037C                  __ptext6 0409  
                __ptext7 0451                  __ptext8 024F                  __ptext9 001E  
                _initADC 0105                  _initOsc 02C1             __size_of_isr 0072  
   end_of_initialization 001A                _RECEPCION 007B               ??_initUART 0020  
              _RCSTAbits 0018                Lcd_Port@a 0020                _PORTDbits 0008  
              i1_initADC 001E                _TXSTAbits 0098               initADC@CHS 0020  
            _BAUDCTLbits 0187      start_initialization 0011              __end_of_isr 02C1  
      __size_of_Lcd_Init 004C        __size_of_Lcd_Port 0006               ?i1_initADC 0070  
          i1initADC@ADCS 0073              __pbssCOMMON 007A                ___latbits 0002  
          __pcstackBANK0 0020                 ?_Lcd_Cmd 0070        __size_of_initUART 0014  
         __size_of_ASCII 005D                 ?_initADC 0020                 ?_initOsc 0070  
         __size_of_Envio 0082           __size_of_Setup 0041                 _CONTADOR 0029  
      interrupt_function 0004              ??i1_initADC 0071                 _PIE1bits 008C  
               Lcd_Cmd@a 0023                 _PIR1bits 000C                 _VAR_ADC1 007D  
               _VAR_ADC2 007C               _ADCON0bits 001F                 _Lcd_Init 037C  
               _Lcd_Port 0451         __size_of_Lcd_Cmd 001C         __size_of_initADC 00C8  
       __size_of_initOsc 005E                 __ptext10 01CD                 __ptext11 031F  
               _initUART 043D            __size_of_main 0018               _INTCONbits 000B  
               intlevel1 0000               _OSCCONbits 008F               _OPTION_REG 0081  
