Microchip MPLAB XC8 Compiler V2.31

Linker command line:

-W-3 --edf=C:\Program Files\Microchip\xc8\v2.31\pic\dat\en_msgs.txt -cn \
  -h+dist/default/production\Proyecto1.X.production.sym \
  --cmf=dist/default/production\Proyecto1.X.production.cmf -z -Q16F887 \
  -oC:\Users\Ricardo\AppData\Local\Temp\smn4.2 --defsym=__MPLAB_BUILD=1 \
  -Mdist/default/production/Proyecto1.X.production.map -E1 \
  -ver=XC8 Compiler --acfsm=1493 -ASTACK=0110h-016Fh -pstack=STACK \
  -ACODE=00h-07FFhx4 -ASTRCODE=00h-01FFFh -ASTRING=00h-0FFhx32 \
  -ACONST=00h-0FFhx32 -AENTRY=00h-0FFhx32 -ACOMMON=070h-07Fh \
  -ABANK0=020h-06Fh -ABANK1=0A0h-0EFh -ABANK2=0110h-016Fh \
  -ABANK3=0190h-01EFh -ARAM=020h-06Fh,0A0h-0EFh,0110h-016Fh,0190h-01EFh \
  -AABS1=020h-07Fh,0A0h-0EFh,0110h-016Fh,0190h-01EFh -ASFR0=00h-01Fh \
  -ASFR1=080h-09Fh -ASFR2=0100h-010Fh -ASFR3=0180h-018Fh \
  -ACONFIG=02007h-02008h -DCONFIG=2 -AIDLOC=02000h-02003h -DIDLOC=2 \
  -AEEDATA=00h-0FFh/02100h -peeprom_data=EEDATA -DEEDATA=2 -DCODE=2 \
  -DSTRCODE=2 -DSTRING=2 -DCONST=2 -DENTRY=2 \
  -preset_vec=00h,intentry=04h,init,end_init -ppowerup=CODE -pcinit=CODE \
  -pfunctab=ENTRY -k C:\Users\Ricardo\AppData\Local\Temp\smn4.o \
  dist/default/production\Proyecto1.X.production.o 

Object code version is 3.11

Machine type is 16F887



                Name                               Link     Load   Length Selector   Space Scale
C:\Users\Ricardo\AppData\Local\Temp\smn4.o
                end_init                              E        E        3        8       0
                reset_vec                             0        0        3        0       0
                config                             2007     2007        2        0       4
dist/default/production\Proyecto1.X.production.o
                cinit                                11       11       16        8       0
                intentry                              4        4        A        8       0
                config                             2007     2007        2        0       4
                text25                              57E      57E       5D        8       0
                text24                              112      112       D0        8       0
                text23                              6F4      6F4       29      D96       0
                text22                              621      621       41        8       0
                text21                              7F4      7F4        6      D96       0
                text20                              780      780       1B      D96       0
                text19                              762      762       1E      D96       0
                text18                              79B      79B       18      D96       0
                text17                              6CB      6CB       29      D96       0
                text16                              459      459       69        8       0
                text15                              5DB      5DB       46        8       0
                text14                              71D      71D       27      D96       0
                text13                               27       27       EB        8       0
                text12                              7B3      7B3       17      D96       0
                text11                              297      297       AC        8       0
                text10                              343      343       A6        8       0
                text9                               3E9      3E9       70        8       0
                text8                               520      520       5E        8       0
                text7                               4C2      4C2       5E        8       0
                text6                               7CA      7CA       14      D96       0
                text5                               744      744       1E      D96       0
                text4                               662      662       3B        8       0
                text3                               7E7      7E7        7      D96       0
                text2                               7DE      7DE        9      D96       0
                text1                               7EE      7EE        6      D96       0
                maintext                            1E2      1E2       B5        8       0
                cstackBANK0                          20       20       18       20       1
                cstackCOMMON                         70       70        A       70       1
                bssBANK0                             38       38        C       20       1
                bssCOMMON                            7A       7A        4       70       1
                strings                             69D      69D       2E      D3A       0

TOTAL           Name                               Link     Load   Length     Space
        CLASS   STACK          

        CLASS   CODE           
                end_init                              E        E        3         0
                cinit                                11       11       16         0
                intentry                              4        4        A         0
                reset_vec                             0        0        3         0
                text25                              57E      57E       5D         0
                text24                              112      112       D0         0
                text23                              6F4      6F4       29         0
                text22                              621      621       41         0
                text21                              7F4      7F4        6         0
                text20                              780      780       1B         0
                text19                              762      762       1E         0
                text18                              79B      79B       18         0
                text17                              6CB      6CB       29         0
                text16                              459      459       69         0
                text15                              5DB      5DB       46         0
                text14                              71D      71D       27         0
                text13                               27       27       EB         0
                text12                              7B3      7B3       17         0
                text11                              297      297       AC         0
                text10                              343      343       A6         0
                text9                               3E9      3E9       70         0
                text8                               520      520       5E         0
                text7                               4C2      4C2       5E         0
                text6                               7CA      7CA       14         0
                text5                               744      744       1E         0
                text4                               662      662       3B         0
                text3                               7E7      7E7        7         0
                text2                               7DE      7DE        9         0
                text1                               7EE      7EE        6         0
                maintext                            1E2      1E2       B5         0

        CLASS   STRCODE        

        CLASS   STRING         
                strings                             69D      69D       2E         0

        CLASS   CONST          

        CLASS   ENTRY          

        CLASS   COMMON         
                cstackCOMMON                         70       70        A         1
                bssCOMMON                            7A       7A        4         1

        CLASS   BANK0          
                cstackBANK0                          20       20       18         1
                bssBANK0                             38       38        C         1

        CLASS   BANK1          

        CLASS   BANK2          

        CLASS   BANK3          

        CLASS   RAM            

        CLASS   ABS1           
                abs_s1                               7E       7E        2         1

        CLASS   SFR0           

        CLASS   SFR1           

        CLASS   SFR2           

        CLASS   SFR3           

        CLASS   CONFIG         
                config                             2007     2007        2         4

        CLASS   IDLOC          

        CLASS   EEDATA         



SEGMENTS        Name                           Load    Length   Top    Selector   Space  Class     Delta

                reset_vec                      000000  000003  000003         0       0  CODE        2
                intentry                       000004  000699  00069D         8       0  CODE        2
                cstackBANK0                    000020  000024  000044        20       1  BANK0       1
                cstackCOMMON                   000070  00000E  00007E        70       1  COMMON      1
                strings                        00069D  00002E  0006CB       D3A       0  STRING      2
                text17                         0006CB  00012F  0007FA       D96       0  CODE        2


UNUSED ADDRESS RANGES

        Name                Unused          Largest block    Delta
        BANK0            0044-006F             2C           1
        BANK1            00A0-00EF             50           1
        BANK2            0110-016F             60           1
        BANK3            0190-01EF             60           1
        CODE             0003-0003              1           2
                         07FA-1FFF            800
        CONST            0003-0003              1           2
                         07FA-1FFF            100
        EEDATA           2100-21FF            100           2
        ENTRY            0003-0003              1           2
                         07FA-1FFF            100
        IDLOC            2000-2003              4           2
        RAM              0044-006F             2C           1
                         00A0-00EF             50
                         0110-016F             60
                         0190-01EF             60
        SFR0             0000-001F             20           1
        SFR1             0080-009F             20           1
        SFR2             0100-010F             10           1
        SFR3             0180-018F             10           1
        STACK            0110-016F             60           1
        STRCODE          0003-0003              1           2
                         07FA-1FFF           1806
        STRING           0003-0003              1           2
                         07FA-1FFF            100

                                  Symbol Table

?___awdiv                    cstackBANK0  0026
?___lwdiv                    cstackBANK0  0020
?___wmul                     cstackBANK0  0020
ASCII@valor                  cstackCOMMON 0072
Cambio@numero                cstackBANK0  0022
Conversiones@temporal        cstackBANK0  0031
Envio@temporal               cstackCOMMON 0075
Envio_Contador@centimas      cstackBANK0  0032
Envio_Contador@decimas       cstackBANK0  0034
Envio_Contador@temporal      cstackBANK0  0035
Envio_Contador@unidades      cstackBANK0  0033
Envio_Temperatura@temporal   cstackBANK0  0032
Lcd_Cmd@a                    cstackBANK0  0023
Lcd_Port@a                   cstackBANK0  0020
Lcd_Set_Cursor@a             cstackBANK0  0025
Lcd_Set_Cursor@b             cstackBANK0  0024
Lcd_Write_Char@a             cstackBANK0  0022
Lcd_Write_String@a           cstackBANK0  0025
Lcd_Write_String@i           cstackBANK0  0023
_ANSEL                       (abs)        0188
_ANSELH                      (abs)        0189
_ASCII                       text25       057E
_BAUDCTLbits                 (abs)        0187
_CONTADOR                    bssBANK0     0040
_COUNTER                     bssBANK0     003E
_Cambio                      text22       0621
_Conversiones                text13       0027
_Envio                       text24       0112
_Envio_Contador              text11       0297
_Envio_Temperatura           text10       0343
_FLAGSS                      bssBANK0     003F
_FLAGTX                      bssCOMMON    007D
_INTCONbits                  (abs)        000B
_Lcd_Cmd                     text20       0780
_Lcd_Init                    text8        0520
_Lcd_Port                    text21       07F4
_Lcd_Set_Cursor              text19       0762
_Lcd_Write_Char              text18       079B
_Lcd_Write_String            text17       06CB
_Mappin_Temperature          text9        03E9
_OPTION_REG                  (abs)        0081
_OSCCONbits                  (abs)        008F
_PIE1bits                    (abs)        008C
_PIR1bits                    (abs)        000C
_PORTA                       (abs)        0005
_PORTB                       (abs)        0006
_PORTC                       (abs)        0007
_PORTCbits                   (abs)        0007
_PORTD                       (abs)        0008
_PORTE                       (abs)        0009
_PORTEbits                   (abs)        0009
_PRUEBA                      bssBANK0     0042
_RCSTAbits                   (abs)        0018
_SIGNO                       bssBANK0     0038
_SPBRG                       (abs)        0099
_SPBRGH                      (abs)        009A
_SSPBUF                      (abs)        0013
_SSPCON                      (abs)        0014
_SSPSTAT                     (abs)        0094
_SSPSTATbits                 (abs)        0094
_Setup                       text4        0662
_TEMPERATURA                 bssBANK0     003D
_TEMPERATURA_FINAL           bssBANK0     003C
_TMR0                        (abs)        0001
_TRISA                       (abs)        0085
_TRISB                       (abs)        0086
_TRISC                       (abs)        0087
_TRISC3                      (abs)        043B
_TRISC5                      (abs)        043D
_TRISD                       (abs)        0088
_TRISE                       (abs)        0089
_TXREG                       (abs)        0019
_TXSTAbits                   (abs)        0098
_VAR_ADC                     bssBANK0     0041
_WDTCON                      (abs)        0105
__Habs1                      abs1         0000
__Hbank0                     bank0        0000
__Hbank1                     bank1        0000
__Hbank2                     bank2        0000
__Hbank3                     bank3        0000
__HbssBANK0                  bssBANK0     0000
__HbssCOMMON                 bssCOMMON    0000
__Hcinit                     cinit        0027
__Hclrtext                   clrtext      0000
__Hcode                      code         0000
__Hcommon                    common       0000
__Hconfig                    config       2009
__HcstackBANK0               cstackBANK0  0000
__HcstackCOMMON              cstackCOMMON 0000
__Heeprom_data               eeprom_data  0000
__Hend_init                  end_init     0011
__Hfunctab                   functab      0000
__Hinit                      init         000E
__Hintentry                  intentry     000E
__Hmaintext                  maintext     0000
__Hpowerup                   powerup      0000
__Hram                       ram          0000
__Hreset_vec                 reset_vec    0003
__Hsfr0                      sfr0         0000
__Hsfr1                      sfr1         0000
__Hsfr2                      sfr2         0000
__Hsfr3                      sfr3         0000
__Hspace_0                   (abs)        07FA
__Hspace_1                   (abs)        007E
__Hspace_2                   (abs)        0000
__Hspace_3                   (abs)        0000
__Hspace_4                   (abs)        4010
__Hstack                     stack        0000
__Hstrings                   strings      0000
__Htext                      text         0000
__Labs1                      abs1         0000
__Lbank0                     bank0        0000
__Lbank1                     bank1        0000
__Lbank2                     bank2        0000
__Lbank3                     bank3        0000
__LbssBANK0                  bssBANK0     0000
__LbssCOMMON                 bssCOMMON    0000
__Lcinit                     cinit        0011
__Lclrtext                   clrtext      0000
__Lcode                      code         0000
__Lcommon                    common       0000
__Lconfig                    config       0000
__LcstackBANK0               cstackBANK0  0000
__LcstackCOMMON              cstackCOMMON 0000
__Leeprom_data               eeprom_data  0000
__Lend_init                  end_init     000E
__Lfunctab                   functab      0000
__Linit                      init         000E
__Lintentry                  intentry     0004
__Lmaintext                  maintext     0000
__Lpowerup                   powerup      0000
__Lram                       ram          0000
__Lreset_vec                 reset_vec    0000
__Lsfr0                      sfr0         0000
__Lsfr1                      sfr1         0000
__Lsfr2                      sfr2         0000
__Lsfr3                      sfr3         0000
__Lspace_0                   (abs)        0000
__Lspace_1                   (abs)        0000
__Lspace_2                   (abs)        0000
__Lspace_3                   (abs)        0000
__Lspace_4                   (abs)        0000
__Lstack                     stack        0000
__Lstrings                   strings      0000
__Ltext                      text         0000
__S0                         (abs)        07FA
__S1                         (abs)        007E
__S2                         (abs)        0000
__S3                         (abs)        0000
___awdiv                     text16       0459
___awdiv@counter             cstackBANK0  002B
___awdiv@dividend            cstackBANK0  0028
___awdiv@divisor             cstackBANK0  0026
___awdiv@quotient            cstackBANK0  002D
___awdiv@sign                cstackBANK0  002C
___bmul                      text12       07B3
___bmul@multiplicand         cstackBANK0  0020
___bmul@multiplier           cstackBANK0  0023
___bmul@product              cstackBANK0  0022
___int_sp                    stack        0000
___latbits                   (abs)        0002
___lwdiv                     text15       05DB
___lwdiv@counter             cstackBANK0  0027
___lwdiv@dividend            cstackBANK0  0022
___lwdiv@divisor             cstackBANK0  0020
___lwdiv@quotient            cstackBANK0  0025
___sp                        stack        0000
___stackhi                   (abs)        0000
___stacklo                   (abs)        0000
___wmul                      text14       071D
___wmul@multiplicand         cstackBANK0  0022
___wmul@multiplier           cstackBANK0  0020
___wmul@product              cstackBANK0  0024
__end_of_ASCII               text25       05DB
__end_of_Cambio              text22       0662
__end_of_Conversiones        text13       0112
__end_of_Envio               text24       01E2
__end_of_Envio_Contador      text11       0343
__end_of_Envio_Temperatura   text10       03E9
__end_of_Lcd_Cmd             text20       079B
__end_of_Lcd_Init            text8        057E
__end_of_Lcd_Port            text21       07FA
__end_of_Lcd_Set_Cursor      text19       0780
__end_of_Lcd_Write_Char      text18       07B3
__end_of_Lcd_Write_String    text17       06F4
__end_of_Mappin_Temperature  text9        0459
__end_of_Setup               text4        069D
__end_of___awdiv             text16       04C2
__end_of___bmul              text12       07CA
__end_of___lwdiv             text15       0621
__end_of___wmul              text14       0744
__end_of__initialization     cinit        0023
__end_of__stringtab          strings      06A3
__end_of_initOsc             text7        0520
__end_of_initUART            text6        07DE
__end_of_isr                 text23       071D
__end_of_main                maintext     0297
__end_of_spiInit             text5        0762
__end_of_spiRead             text2        07E7
__end_of_spiReceiveWait      text3        07EE
__end_of_spiWrite            text1        07F4
__initialization             cinit        0011
__pbssBANK0                  bssBANK0     0038
__pbssCOMMON                 bssCOMMON    007A
__pcstackBANK0               cstackBANK0  0020
__pcstackCOMMON              cstackCOMMON 0070
__pintentry                  intentry     0004
__pmaintext                  maintext     01E2
__pstrings                   strings      069D
__ptext1                     text1        07EE
__ptext10                    text10       0343
__ptext11                    text11       0297
__ptext12                    text12       07B3
__ptext13                    text13       0027
__ptext14                    text14       071D
__ptext15                    text15       05DB
__ptext16                    text16       0459
__ptext17                    text17       06CB
__ptext18                    text18       079B
__ptext19                    text19       0762
__ptext2                     text2        07DE
__ptext20                    text20       0780
__ptext21                    text21       07F4
__ptext22                    text22       0621
__ptext23                    text23       06F4
__ptext24                    text24       0112
__ptext25                    text25       057E
__ptext3                     text3        07E7
__ptext4                     text4        0662
__ptext5                     text5        0744
__ptext6                     text6        07CA
__ptext7                     text7        04C2
__ptext8                     text8        0520
__ptext9                     text9        03E9
__size_of_ASCII              (abs)        0000
__size_of_Cambio             (abs)        0000
__size_of_Conversiones       (abs)        0000
__size_of_Envio              (abs)        0000
__size_of_Envio_Contador     (abs)        0000
__size_of_Envio_Temperatura  (abs)        0000
__size_of_Lcd_Cmd            (abs)        0000
__size_of_Lcd_Init           (abs)        0000
__size_of_Lcd_Port           (abs)        0000
__size_of_Lcd_Set_Cursor     (abs)        0000
__size_of_Lcd_Write_Char     (abs)        0000
__size_of_Lcd_Write_String   (abs)        0000
__size_of_Mappin_Temperature (abs)        0000
__size_of_Setup              (abs)        0000
__size_of___awdiv            (abs)        0000
__size_of___bmul             (abs)        0000
__size_of___lwdiv            (abs)        0000
__size_of___wmul             (abs)        0000
__size_of_initOsc            (abs)        0000
__size_of_initUART           (abs)        0000
__size_of_isr                (abs)        0000
__size_of_main               (abs)        0000
__size_of_spiInit            (abs)        0000
__size_of_spiRead            (abs)        0000
__size_of_spiReceiveWait     (abs)        0000
__size_of_spiWrite           (abs)        0000
__stringbase                 strings      06A2
__stringtab                  strings      069D
_centimas_adc                bssBANK0     0039
_centimas_temp               bssCOMMON    007A
_decimas_adc                 bssBANK0     003A
_decimas_temp                bssCOMMON    007B
_initOsc                     text7        04C2
_initUART                    text6        07CA
_isr                         text23       06F4
_main                        maintext     01E2
_spiInit                     text5        0744
_spiRead                     text2        07DE
_spiReceiveWait              text3        07E7
_spiWrite                    text1        07EE
_unidades_adc                bssBANK0     003B
_unidades_temp               bssCOMMON    007C
btemp                        (abs)        007E
end_of_initialization        cinit        0023
initOsc@IRCF                 cstackBANK0  0022
interrupt_function           intentry     0004
intlevel0                    functab      0000
intlevel1                    functab      0000
intlevel2                    functab      0000
intlevel3                    functab      0000
intlevel4                    functab      0000
intlevel5                    functab      0000
reset_vec                    reset_vec    0000
saved_w                      (abs)        007E
spiInit@sClockIdle           cstackBANK0  0021
spiInit@sDataSample          cstackBANK0  0020
spiInit@sTransmitEdge        cstackBANK0  0022
spiInit@sType                cstackBANK0  0023
spiWrite@dat                 cstackBANK0  0020
start                        init         000E
start_initialization         cinit        0011
wtemp0                       (abs)        007E


FUNCTION INFORMATION:

 *************** function _main *****************
 Defined at:
		line 98 in file "E:/UVG/Semestre 5/Digital2/Proyecto1/Proyecto1.X/code.c"
 Parameters:    Size  Location     Type
		None
 Auto vars:     Size  Location     Type
		None
 Return value:  Size  Location     Type
                  1    wreg      void 
 Registers used:
		wreg, fsr0l, fsr0h, status,2, status,0, pclath, cstack
 Tracked objects:
		On entry : 
		On exit  : 
		Unchanged: 
 Data sizes:     COMMON   BANK0   BANK1   BANK3   BANK2
      Params:         0       0       0       0       0
      Locals:         0       0       0       0       0
      Temps:          0       2       0       0       0
      Totals:         0       2       0       0       0
Total ram usage:        2 bytes
 Hardware stack levels required when called:    8
 This function calls:
		_Conversiones
		_Envio_Contador
		_Lcd_Set_Cursor
		_Lcd_Write_String
		_Mappin_Temperature
		_Setup
		_spiRead
		_spiWrite
 This function is called by:
		Startup code after reset
 This function uses a non-reentrant model


 *************** function _spiWrite *****************
 Defined at:
		line 32 in file "E:/UVG/Semestre 5/Digital2/Proyecto1/Proyecto1.X/MSSP.c"
 Parameters:    Size  Location     Type
  dat             1    wreg     unsigned char 
 Auto vars:     Size  Location     Type
  dat             1    0[BANK0 ] unsigned char 
 Return value:  Size  Location     Type
                  1    wreg      void 
 Registers used:
		wreg
 Tracked objects:
		On entry : 
		On exit  : 
		Unchanged: 
 Data sizes:     COMMON   BANK0   BANK1   BANK3   BANK2
      Params:         0       0       0       0       0
      Locals:         0       1       0       0       0
      Temps:          0       0       0       0       0
      Totals:         0       1       0       0       0
Total ram usage:        1 bytes
 Hardware stack levels used:    1
 Hardware stack levels required when called:    3
 This function calls:
		Nothing
 This function is called by:
		_main
 This function uses a non-reentrant model


 *************** function _spiRead *****************
 Defined at:
		line 43 in file "E:/UVG/Semestre 5/Digital2/Proyecto1/Proyecto1.X/MSSP.c"
 Parameters:    Size  Location     Type
		None
 Auto vars:     Size  Location     Type
		None
 Return value:  Size  Location     Type
                  1    wreg      unsigned char 
 Registers used:
		wreg, status,2, status,0, pclath, cstack
 Tracked objects:
		On entry : 
		On exit  : 
		Unchanged: 
 Data sizes:     COMMON   BANK0   BANK1   BANK3   BANK2
      Params:         0       0       0       0       0
      Locals:         0       0       0       0       0
      Temps:          0       0       0       0       0
      Totals:         0       0       0       0       0
Total ram usage:        0 bytes
 Hardware stack levels used:    1
 Hardware stack levels required when called:    4
 This function calls:
		_spiReceiveWait
 This function is called by:
		_main
 This function uses a non-reentrant model


 *************** function _spiReceiveWait *****************
 Defined at:
		line 28 in file "E:/UVG/Semestre 5/Digital2/Proyecto1/Proyecto1.X/MSSP.c"
 Parameters:    Size  Location     Type
		None
 Auto vars:     Size  Location     Type
		None
 Return value:  Size  Location     Type
                  1    wreg      void 
 Registers used:
		None
 Tracked objects:
		On entry : 
		On exit  : 
		Unchanged: 
 Data sizes:     COMMON   BANK0   BANK1   BANK3   BANK2
      Params:         0       0       0       0       0
      Locals:         0       0       0       0       0
      Temps:          0       0       0       0       0
      Totals:         0       0       0       0       0
Total ram usage:        0 bytes
 Hardware stack levels used:    1
 Hardware stack levels required when called:    3
 This function calls:
		Nothing
 This function is called by:
		_spiRead
 This function uses a non-reentrant model


 *************** function _Setup *****************
 Defined at:
		line 149 in file "E:/UVG/Semestre 5/Digital2/Proyecto1/Proyecto1.X/code.c"
 Parameters:    Size  Location     Type
		None
 Auto vars:     Size  Location     Type
		None
 Return value:  Size  Location     Type
                  1    wreg      void 
 Registers used:
		wreg, fsr0l, fsr0h, status,2, status,0, pclath, cstack
 Tracked objects:
		On entry : 
		On exit  : 
		Unchanged: 
 Data sizes:     COMMON   BANK0   BANK1   BANK3   BANK2
      Params:         0       0       0       0       0
      Locals:         0       0       0       0       0
      Temps:          0       0       0       0       0
      Totals:         0       0       0       0       0
Total ram usage:        0 bytes
 Hardware stack levels used:    1
 Hardware stack levels required when called:    6
 This function calls:
		_Lcd_Init
		_initOsc
		_initUART
		_spiInit
 This function is called by:
		_main
 This function uses a non-reentrant model


 *************** function _spiInit *****************
 Defined at:
		line 12 in file "E:/UVG/Semestre 5/Digital2/Proyecto1/Proyecto1.X/MSSP.c"
 Parameters:    Size  Location     Type
  sType           1    wreg     enum E1292
  sDataSample     1    0[BANK0 ] enum E1300
  sClockIdle      1    1[BANK0 ] enum E1304
  sTransmitEdg    1    2[BANK0 ] enum E1308
 Auto vars:     Size  Location     Type
  sType           1    3[BANK0 ] enum E1292
 Return value:  Size  Location     Type
                  1    wreg      void 
 Registers used:
		wreg, status,2, status,0
 Tracked objects:
		On entry : 
		On exit  : 
		Unchanged: 
 Data sizes:     COMMON   BANK0   BANK1   BANK3   BANK2
      Params:         0       3       0       0       0
      Locals:         0       1       0       0       0
      Temps:          0       0       0       0       0
      Totals:         0       4       0       0       0
Total ram usage:        4 bytes
 Hardware stack levels used:    1
 Hardware stack levels required when called:    3
 This function calls:
		Nothing
 This function is called by:
		_Setup
 This function uses a non-reentrant model


 *************** function _initUART *****************
 Defined at:
		line 6 in file "E:/UVG/Semestre 5/Digital2/Proyecto1/Proyecto1.X/USART.c"
 Parameters:    Size  Location     Type
		None
 Auto vars:     Size  Location     Type
		None
 Return value:  Size  Location     Type
                  1    wreg      void 
 Registers used:
		wreg, status,2
 Tracked objects:
		On entry : 
		On exit  : 
		Unchanged: 
 Data sizes:     COMMON   BANK0   BANK1   BANK3   BANK2
      Params:         0       0       0       0       0
      Locals:         0       0       0       0       0
      Temps:          0       0       0       0       0
      Totals:         0       0       0       0       0
Total ram usage:        0 bytes
 Hardware stack levels used:    1
 Hardware stack levels required when called:    3
 This function calls:
		Nothing
 This function is called by:
		_Setup
 This function uses a non-reentrant model


 *************** function _initOsc *****************
 Defined at:
		line 6 in file "E:/UVG/Semestre 5/Digital2/Proyecto1/Proyecto1.X/Oscilador.c"
 Parameters:    Size  Location     Type
  IRCF            1    wreg     unsigned char 
 Auto vars:     Size  Location     Type
  IRCF            1    2[BANK0 ] unsigned char 
 Return value:  Size  Location     Type
                  1    wreg      void 
 Registers used:
		wreg, fsr0l, fsr0h, status,2, status,0
 Tracked objects:
		On entry : 
		On exit  : 
		Unchanged: 
 Data sizes:     COMMON   BANK0   BANK1   BANK3   BANK2
      Params:         0       0       0       0       0
      Locals:         0       1       0       0       0
      Temps:          0       2       0       0       0
      Totals:         0       3       0       0       0
Total ram usage:        3 bytes
 Hardware stack levels used:    1
 Hardware stack levels required when called:    3
 This function calls:
		Nothing
 This function is called by:
		_Setup
 This function uses a non-reentrant model


 *************** function _Lcd_Init *****************
 Defined at:
		line 38 in file "E:/UVG/Semestre 5/Digital2/Proyecto1/Proyecto1.X/LCD.c"
 Parameters:    Size  Location     Type
		None
 Auto vars:     Size  Location     Type
		None
 Return value:  Size  Location     Type
                  1    wreg      void 
 Registers used:
		wreg, status,2, status,0, pclath, cstack
 Tracked objects:
		On entry : 
		On exit  : 
		Unchanged: 
 Data sizes:     COMMON   BANK0   BANK1   BANK3   BANK2
      Params:         0       0       0       0       0
      Locals:         0       0       0       0       0
      Temps:          0       2       0       0       0
      Totals:         0       2       0       0       0
Total ram usage:        2 bytes
 Hardware stack levels used:    1
 Hardware stack levels required when called:    5
 This function calls:
		_Lcd_Cmd
		_Lcd_Port
 This function is called by:
		_Setup
 This function uses a non-reentrant model


 *************** function _Mappin_Temperature *****************
 Defined at:
		line 305 in file "E:/UVG/Semestre 5/Digital2/Proyecto1/Proyecto1.X/code.c"
 Parameters:    Size  Location     Type
		None
 Auto vars:     Size  Location     Type
		None
 Return value:  Size  Location     Type
                  1    wreg      void 
 Registers used:
		wreg, fsr0l, fsr0h, status,2, status,0, pclath, cstack
 Tracked objects:
		On entry : 
		On exit  : 
		Unchanged: 
 Data sizes:     COMMON   BANK0   BANK1   BANK3   BANK2
      Params:         0       0       0       0       0
      Locals:         0       0       0       0       0
      Temps:          0       2       0       0       0
      Totals:         0       2       0       0       0
Total ram usage:        2 bytes
 Hardware stack levels used:    1
 Hardware stack levels required when called:    7
 This function calls:
		_Envio_Temperatura
		_Lcd_Set_Cursor
		_Lcd_Write_String
		___awdiv
		___wmul
 This function is called by:
		_main
 This function uses a non-reentrant model


 *************** function _Envio_Temperatura *****************
 Defined at:
		line 323 in file "E:/UVG/Semestre 5/Digital2/Proyecto1/Proyecto1.X/code.c"
 Parameters:    Size  Location     Type
		None
 Auto vars:     Size  Location     Type
  temporal        1   18[BANK0 ] unsigned char 
 Return value:  Size  Location     Type
                  1    wreg      void 
 Registers used:
		wreg, fsr0l, fsr0h, status,2, status,0, pclath, cstack
 Tracked objects:
		On entry : 
		On exit  : 
		Unchanged: 
 Data sizes:     COMMON   BANK0   BANK1   BANK3   BANK2
      Params:         0       0       0       0       0
      Locals:         0       1       0       0       0
      Temps:          0       3       0       0       0
      Totals:         0       4       0       0       0
Total ram usage:        4 bytes
 Hardware stack levels used:    1
 Hardware stack levels required when called:    6
 This function calls:
		_Cambio
		_Lcd_Set_Cursor
		_Lcd_Write_String
		___awdiv
		___bmul
 This function is called by:
		_Mappin_Temperature
 This function uses a non-reentrant model


 *************** function _Envio_Contador *****************
 Defined at:
		line 281 in file "E:/UVG/Semestre 5/Digital2/Proyecto1/Proyecto1.X/code.c"
 Parameters:    Size  Location     Type
		None
 Auto vars:     Size  Location     Type
  temporal        1   21[BANK0 ] unsigned char 
  decimas         1   20[BANK0 ] unsigned char 
  unidades        1   19[BANK0 ] unsigned char 
  centimas        1   18[BANK0 ] unsigned char 
 Return value:  Size  Location     Type
                  1    wreg      void 
 Registers used:
		wreg, fsr0l, fsr0h, status,2, status,0, pclath, cstack
 Tracked objects:
		On entry : 
		On exit  : 
		Unchanged: 
 Data sizes:     COMMON   BANK0   BANK1   BANK3   BANK2
      Params:         0       0       0       0       0
      Locals:         0       4       0       0       0
      Temps:          0       3       0       0       0
      Totals:         0       7       0       0       0
Total ram usage:        7 bytes
 Hardware stack levels used:    1
 Hardware stack levels required when called:    6
 This function calls:
		_Cambio
		_Lcd_Set_Cursor
		_Lcd_Write_String
		___awdiv
		___bmul
 This function is called by:
		_main
 This function uses a non-reentrant model


 *************** function ___bmul *****************
 Defined at:
		line 4 in file "C:\Program Files\Microchip\xc8\v2.31\pic\sources\c90\common\Umul8.c"
 Parameters:    Size  Location     Type
  multiplier      1    wreg     unsigned char 
  multiplicand    1    0[BANK0 ] unsigned char 
 Auto vars:     Size  Location     Type
  multiplier      1    3[BANK0 ] unsigned char 
  product         1    2[BANK0 ] unsigned char 
 Return value:  Size  Location     Type
                  1    wreg      unsigned char 
 Registers used:
		wreg, status,2, status,0
 Tracked objects:
		On entry : 
		On exit  : 
		Unchanged: 
 Data sizes:     COMMON   BANK0   BANK1   BANK3   BANK2
      Params:         0       1       0       0       0
      Locals:         0       2       0       0       0
      Temps:          0       1       0       0       0
      Totals:         0       4       0       0       0
Total ram usage:        4 bytes
 Hardware stack levels used:    1
 Hardware stack levels required when called:    3
 This function calls:
		Nothing
 This function is called by:
		_Envio_Contador
		_Envio_Temperatura
 This function uses a non-reentrant model


 *************** function _Conversiones *****************
 Defined at:
		line 188 in file "E:/UVG/Semestre 5/Digital2/Proyecto1/Proyecto1.X/code.c"
 Parameters:    Size  Location     Type
		None
 Auto vars:     Size  Location     Type
  temporal        2   17[BANK0 ] unsigned int 
 Return value:  Size  Location     Type
                  1    wreg      void 
 Registers used:
		wreg, fsr0l, fsr0h, status,2, status,0, pclath, cstack
 Tracked objects:
		On entry : 
		On exit  : 
		Unchanged: 
 Data sizes:     COMMON   BANK0   BANK1   BANK3   BANK2
      Params:         0       0       0       0       0
      Locals:         0       2       0       0       0
      Temps:          0       2       0       0       0
      Totals:         0       4       0       0       0
Total ram usage:        4 bytes
 Hardware stack levels used:    1
 Hardware stack levels required when called:    6
 This function calls:
		_Cambio
		_Lcd_Set_Cursor
		_Lcd_Write_String
		___awdiv
		___lwdiv
		___wmul
 This function is called by:
		_main
 This function uses a non-reentrant model


 *************** function ___wmul *****************
 Defined at:
		line 15 in file "C:\Program Files\Microchip\xc8\v2.31\pic\sources\c90\common\Umul16.c"
 Parameters:    Size  Location     Type
  multiplier      2    0[BANK0 ] unsigned int 
  multiplicand    2    2[BANK0 ] unsigned int 
 Auto vars:     Size  Location     Type
  product         2    4[BANK0 ] unsigned int 
 Return value:  Size  Location     Type
                  2    0[BANK0 ] unsigned int 
 Registers used:
		wreg, status,2, status,0
 Tracked objects:
		On entry : 
		On exit  : 
		Unchanged: 
 Data sizes:     COMMON   BANK0   BANK1   BANK3   BANK2
      Params:         0       4       0       0       0
      Locals:         0       2       0       0       0
      Temps:          0       0       0       0       0
      Totals:         0       6       0       0       0
Total ram usage:        6 bytes
 Hardware stack levels used:    1
 Hardware stack levels required when called:    3
 This function calls:
		Nothing
 This function is called by:
		_Conversiones
		_Mappin_Temperature
 This function uses a non-reentrant model


 *************** function ___lwdiv *****************
 Defined at:
		line 5 in file "C:\Program Files\Microchip\xc8\v2.31\pic\sources\c90\common\lwdiv.c"
 Parameters:    Size  Location     Type
  divisor         2    0[BANK0 ] unsigned int 
  dividend        2    2[BANK0 ] unsigned int 
 Auto vars:     Size  Location     Type
  quotient        2    5[BANK0 ] unsigned int 
  counter         1    7[BANK0 ] unsigned char 
 Return value:  Size  Location     Type
                  2    0[BANK0 ] unsigned int 
 Registers used:
		wreg, status,2, status,0
 Tracked objects:
		On entry : 
		On exit  : 
		Unchanged: 
 Data sizes:     COMMON   BANK0   BANK1   BANK3   BANK2
      Params:         0       4       0       0       0
      Locals:         0       3       0       0       0
      Temps:          0       1       0       0       0
      Totals:         0       8       0       0       0
Total ram usage:        8 bytes
 Hardware stack levels used:    1
 Hardware stack levels required when called:    3
 This function calls:
		Nothing
 This function is called by:
		_Conversiones
 This function uses a non-reentrant model


 *************** function ___awdiv *****************
 Defined at:
		line 5 in file "C:\Program Files\Microchip\xc8\v2.31\pic\sources\c90\common\awdiv.c"
 Parameters:    Size  Location     Type
  divisor         2    6[BANK0 ] int 
  dividend        2    8[BANK0 ] int 
 Auto vars:     Size  Location     Type
  quotient        2   13[BANK0 ] int 
  sign            1   12[BANK0 ] unsigned char 
  counter         1   11[BANK0 ] unsigned char 
 Return value:  Size  Location     Type
                  2    6[BANK0 ] int 
 Registers used:
		wreg, status,2, status,0
 Tracked objects:
		On entry : 
		On exit  : 
		Unchanged: 
 Data sizes:     COMMON   BANK0   BANK1   BANK3   BANK2
      Params:         0       4       0       0       0
      Locals:         0       4       0       0       0
      Temps:          0       1       0       0       0
      Totals:         0       9       0       0       0
Total ram usage:        9 bytes
 Hardware stack levels used:    1
 Hardware stack levels required when called:    3
 This function calls:
		Nothing
 This function is called by:
		_Conversiones
		_Envio_Contador
		_Mappin_Temperature
		_Envio_Temperatura
 This function uses a non-reentrant model


 *************** function _Lcd_Write_String *****************
 Defined at:
		line 64 in file "E:/UVG/Semestre 5/Digital2/Proyecto1/Proyecto1.X/LCD.c"
 Parameters:    Size  Location     Type
  a               1    wreg     PTR unsigned char 
		 -> STR_16(2), STR_15(2), STR_14(2), STR_13(2), 
		 -> STR_12(2), STR_11(2), STR_10(2), STR_9(2), 
		 -> STR_8(2), STR_7(2), STR_6(2), STR_5(2), 
		 -> STR_4(2), STR_3(5), STR_2(5), STR_1(4), 
 Auto vars:     Size  Location     Type
  a               1    5[BANK0 ] PTR unsigned char 
		 -> STR_16(2), STR_15(2), STR_14(2), STR_13(2), 
		 -> STR_12(2), STR_11(2), STR_10(2), STR_9(2), 
		 -> STR_8(2), STR_7(2), STR_6(2), STR_5(2), 
		 -> STR_4(2), STR_3(5), STR_2(5), STR_1(4), 
  i               2    3[BANK0 ] int 
 Return value:  Size  Location     Type
                  1    wreg      void 
 Registers used:
		wreg, fsr0l, fsr0h, status,2, status,0, pclath, cstack
 Tracked objects:
		On entry : 
		On exit  : 
		Unchanged: 
 Data sizes:     COMMON   BANK0   BANK1   BANK3   BANK2
      Params:         0       0       0       0       0
      Locals:         0       3       0       0       0
      Temps:          0       0       0       0       0
      Totals:         0       3       0       0       0
Total ram usage:        3 bytes
 Hardware stack levels used:    1
 Hardware stack levels required when called:    5
 This function calls:
		_Lcd_Write_Char
 This function is called by:
		_main
		_Conversiones
		_Envio_Contador
		_Mappin_Temperature
		_Envio_Temperatura
 This function uses a non-reentrant model


 *************** function _Lcd_Write_Char *****************
 Defined at:
		line 56 in file "E:/UVG/Semestre 5/Digital2/Proyecto1/Proyecto1.X/LCD.c"
 Parameters:    Size  Location     Type
  a               1    wreg     unsigned char 
 Auto vars:     Size  Location     Type
  a               1    2[BANK0 ] unsigned char 
 Return value:  Size  Location     Type
                  1    wreg      void 
 Registers used:
		wreg, status,2, status,0, pclath, cstack
 Tracked objects:
		On entry : 
		On exit  : 
		Unchanged: 
 Data sizes:     COMMON   BANK0   BANK1   BANK3   BANK2
      Params:         0       0       0       0       0
      Locals:         0       1       0       0       0
      Temps:          0       1       0       0       0
      Totals:         0       2       0       0       0
Total ram usage:        2 bytes
 Hardware stack levels used:    1
 Hardware stack levels required when called:    4
 This function calls:
		_Lcd_Port
 This function is called by:
		_Lcd_Write_String
 This function uses a non-reentrant model


 *************** function _Lcd_Set_Cursor *****************
 Defined at:
		line 29 in file "E:/UVG/Semestre 5/Digital2/Proyecto1/Proyecto1.X/LCD.c"
 Parameters:    Size  Location     Type
  a               1    wreg     unsigned char 
  b               1    4[BANK0 ] unsigned char 
 Auto vars:     Size  Location     Type
  a               1    5[BANK0 ] unsigned char 
 Return value:  Size  Location     Type
                  1    wreg      void 
 Registers used:
		wreg, status,2, status,0, pclath, cstack
 Tracked objects:
		On entry : 
		On exit  : 
		Unchanged: 
 Data sizes:     COMMON   BANK0   BANK1   BANK3   BANK2
      Params:         0       1       0       0       0
      Locals:         0       1       0       0       0
      Temps:          0       0       0       0       0
      Totals:         0       2       0       0       0
Total ram usage:        2 bytes
 Hardware stack levels used:    1
 Hardware stack levels required when called:    5
 This function calls:
		_Lcd_Cmd
 This function is called by:
		_main
		_Conversiones
		_Envio_Contador
		_Mappin_Temperature
		_Envio_Temperatura
 This function uses a non-reentrant model


 *************** function _Lcd_Cmd *****************
 Defined at:
		line 17 in file "E:/UVG/Semestre 5/Digital2/Proyecto1/Proyecto1.X/LCD.c"
 Parameters:    Size  Location     Type
  a               1    wreg     unsigned char 
 Auto vars:     Size  Location     Type
  a               1    3[BANK0 ] unsigned char 
 Return value:  Size  Location     Type
                  1    wreg      void 
 Registers used:
		wreg, status,2, status,0, pclath, cstack
 Tracked objects:
		On entry : 
		On exit  : 
		Unchanged: 
 Data sizes:     COMMON   BANK0   BANK1   BANK3   BANK2
      Params:         0       0       0       0       0
      Locals:         0       1       0       0       0
      Temps:          0       2       0       0       0
      Totals:         0       3       0       0       0
Total ram usage:        3 bytes
 Hardware stack levels used:    1
 Hardware stack levels required when called:    4
 This function calls:
		_Lcd_Port
 This function is called by:
		_Lcd_Set_Cursor
		_Lcd_Init
		_Lcd_Clear
		_Lcd_Shift_Right
		_Lcd_Shift_Left
 This function uses a non-reentrant model


 *************** function _Lcd_Port *****************
 Defined at:
		line 13 in file "E:/UVG/Semestre 5/Digital2/Proyecto1/Proyecto1.X/LCD.c"
 Parameters:    Size  Location     Type
  a               1    wreg     unsigned char 
 Auto vars:     Size  Location     Type
  a               1    0[BANK0 ] unsigned char 
 Return value:  Size  Location     Type
                  1    wreg      void 
 Registers used:
		wreg
 Tracked objects:
		On entry : 
		On exit  : 
		Unchanged: 
 Data sizes:     COMMON   BANK0   BANK1   BANK3   BANK2
      Params:         0       0       0       0       0
      Locals:         0       1       0       0       0
      Temps:          0       0       0       0       0
      Totals:         0       1       0       0       0
Total ram usage:        1 bytes
 Hardware stack levels used:    1
 Hardware stack levels required when called:    3
 This function calls:
		Nothing
 This function is called by:
		_Lcd_Cmd
		_Lcd_Init
		_Lcd_Write_Char
 This function uses a non-reentrant model


 *************** function _Cambio *****************
 Defined at:
		line 78 in file "E:/UVG/Semestre 5/Digital2/Proyecto1/Proyecto1.X/LCD.c"
 Parameters:    Size  Location     Type
  numero          1    wreg     unsigned char 
 Auto vars:     Size  Location     Type
  numero          1    2[BANK0 ] unsigned char 
 Return value:  Size  Location     Type
                  1    wreg      PTR const unsigned char 
 Registers used:
		wreg, fsr0l, fsr0h, status,2, status,0
 Tracked objects:
		On entry : 
		On exit  : 
		Unchanged: 
 Data sizes:     COMMON   BANK0   BANK1   BANK3   BANK2
      Params:         0       0       0       0       0
      Locals:         0       1       0       0       0
      Temps:          0       2       0       0       0
      Totals:         0       3       0       0       0
Total ram usage:        3 bytes
 Hardware stack levels used:    1
 Hardware stack levels required when called:    3
 This function calls:
		Nothing
 This function is called by:
		_Conversiones
		_Envio_Contador
		_Envio_Temperatura
 This function uses a non-reentrant model


 *************** function _isr *****************
 Defined at:
		line 78 in file "E:/UVG/Semestre 5/Digital2/Proyecto1/Proyecto1.X/code.c"
 Parameters:    Size  Location     Type
		None
 Auto vars:     Size  Location     Type
		None
 Return value:  Size  Location     Type
                  1    wreg      void 
 Registers used:
		wreg, fsr0l, fsr0h, status,2, status,0, pclath, cstack
 Tracked objects:
		On entry : 
		On exit  : 
		Unchanged: 
 Data sizes:     COMMON   BANK0   BANK1   BANK3   BANK2
      Params:         0       0       0       0       0
      Locals:         0       0       0       0       0
      Temps:          4       0       0       0       0
      Totals:         4       0       0       0       0
Total ram usage:        4 bytes
 Hardware stack levels used:    1
 Hardware stack levels required when called:    2
 This function calls:
		_Envio
 This function is called by:
		Interrupt level 1
 This function uses a non-reentrant model


 *************** function _Envio *****************
 Defined at:
		line 213 in file "E:/UVG/Semestre 5/Digital2/Proyecto1/Proyecto1.X/code.c"
 Parameters:    Size  Location     Type
		None
 Auto vars:     Size  Location     Type
  temporal        1    5[COMMON] unsigned char 
 Return value:  Size  Location     Type
                  1    wreg      unsigned char 
 Registers used:
		wreg, fsr0l, fsr0h, status,2, status,0, pclath, cstack
 Tracked objects:
		On entry : 
		On exit  : 
		Unchanged: 
 Data sizes:     COMMON   BANK0   BANK1   BANK3   BANK2
      Params:         0       0       0       0       0
      Locals:         1       0       0       0       0
      Temps:          2       0       0       0       0
      Totals:         3       0       0       0       0
Total ram usage:        3 bytes
 Hardware stack levels used:    1
 Hardware stack levels required when called:    1
 This function calls:
		_ASCII
 This function is called by:
		_isr
 This function uses a non-reentrant model


 *************** function _ASCII *****************
 Defined at:
		line 22 in file "E:/UVG/Semestre 5/Digital2/Proyecto1/Proyecto1.X/USART.c"
 Parameters:    Size  Location     Type
  valor           1    wreg     unsigned char 
 Auto vars:     Size  Location     Type
  valor           1    2[COMMON] unsigned char 
 Return value:  Size  Location     Type
                  1    wreg      unsigned char 
 Registers used:
		wreg, fsr0l, fsr0h, status,2, status,0
 Tracked objects:
		On entry : 
		On exit  : 
		Unchanged: 
 Data sizes:     COMMON   BANK0   BANK1   BANK3   BANK2
      Params:         0       0       0       0       0
      Locals:         1       0       0       0       0
      Temps:          2       0       0       0       0
      Totals:         3       0       0       0       0
Total ram usage:        3 bytes
 Hardware stack levels used:    1
 This function calls:
		Nothing
 This function is called by:
		_Envio
 This function uses a non-reentrant model



MODULE INFORMATION

Module		Function		Class		Link	Load	Size
E:/UVG/Semestre 5/Digital2/Proyecto1/Proyecto1.X/code.c
		_Envio_Temperatura		CODE           	0343	0000	166
		_Mappin_Temperature		CODE           	03E9	0000	112
		_main          		CODE           	01E2	0000	181
		_Envio         		CODE           	0112	0000	208
		_Envio_Contador		CODE           	0297	0000	172
		_Setup         		CODE           	0662	0000	59
		_isr           		CODE           	06F4	0000	41
		_Conversiones  		CODE           	0027	0000	235

E:/UVG/Semestre 5/Digital2/Proyecto1/Proyecto1.X/code.c estimated size: 1174

E:/UVG/Semestre 5/Digital2/Proyecto1/Proyecto1.X/USART.c
		_ASCII         		CODE           	057E	0000	93
		_initUART      		CODE           	07CA	0000	20

E:/UVG/Semestre 5/Digital2/Proyecto1/Proyecto1.X/USART.c estimated size: 113

E:/UVG/Semestre 5/Digital2/Proyecto1/Proyecto1.X/Oscilador.c
		_initOsc       		CODE           	04C2	0000	94

E:/UVG/Semestre 5/Digital2/Proyecto1/Proyecto1.X/Oscilador.c estimated size: 94

E:/UVG/Semestre 5/Digital2/Proyecto1/Proyecto1.X/MSSP.c
		_spiWrite      		CODE           	07EE	0000	6
		_spiInit       		CODE           	0744	0000	30
		_spiReceiveWait		CODE           	07E7	0000	7
		_spiRead       		CODE           	07DE	0000	9

E:/UVG/Semestre 5/Digital2/Proyecto1/Proyecto1.X/MSSP.c estimated size: 52

C:\Program Files\Microchip\xc8\v2.31\pic\sources\c90\common\Umul16.c
		___wmul        		CODE           	071D	0000	39

C:\Program Files\Microchip\xc8\v2.31\pic\sources\c90\common\Umul16.c estimated size: 39

C:\Program Files\Microchip\xc8\v2.31\pic\sources\c90\common\lwdiv.c
		___lwdiv       		CODE           	05DB	0000	70

C:\Program Files\Microchip\xc8\v2.31\pic\sources\c90\common\lwdiv.c estimated size: 70

C:\Program Files\Microchip\xc8\v2.31\pic\sources\c90\common\awdiv.c
		___awdiv       		CODE           	0459	0000	105

C:\Program Files\Microchip\xc8\v2.31\pic\sources\c90\common\awdiv.c estimated size: 105

shared
		__stringtab    		STRING         	069D	0000	6
		__initialization		CODE           	0011	0000	18

shared estimated size: 24

E:/UVG/Semestre 5/Digital2/Proyecto1/Proyecto1.X/LCD.c
		_Lcd_Write_String		CODE           	06CB	0000	41
		_Lcd_Init      		CODE           	0520	0000	94
		_Lcd_Write_Char		CODE           	079B	0000	24
		_Cambio        		CODE           	0621	0000	65
		_Lcd_Cmd       		CODE           	0780	0000	27
		_Lcd_Set_Cursor		CODE           	0762	0000	30
		_Lcd_Port      		CODE           	07F4	0000	6

E:/UVG/Semestre 5/Digital2/Proyecto1/Proyecto1.X/LCD.c estimated size: 287

C:\Program Files\Microchip\xc8\v2.31\pic\sources\c90\common\Umul8.c
		___bmul        		CODE           	07B3	0000	23

C:\Program Files\Microchip\xc8\v2.31\pic\sources\c90\common\Umul8.c estimated size: 23

