

Microchip MPLAB XC8 Assembler V2.31 build 20201012212115 
                                                                                               Mon Feb 15 15:55:32 2021

Microchip MPLAB XC8 C Compiler v2.31 (Free license) build 20201012212115 Og1 
     1                           	processor	16F887
     2                           	pagewidth 120
     3                           	opt	flic
     4                           	psect	strings,global,class=STRING,delta=2,noexec
     5                           	psect	cinit,global,class=CODE,merge=1,delta=2
     6                           	psect	bssCOMMON,global,class=COMMON,space=1,delta=1,noexec
     7                           	psect	bssBANK0,global,class=BANK0,space=1,delta=1,noexec
     8                           	psect	cstackCOMMON,global,class=COMMON,space=1,delta=1,noexec
     9                           	psect	cstackBANK0,global,class=BANK0,space=1,delta=1,noexec
    10                           	psect	maintext,global,class=CODE,split=1,delta=2
    11                           	psect	text1,local,class=CODE,merge=1,delta=2
    12                           	psect	text2,local,class=CODE,merge=1,delta=2
    13                           	psect	text3,local,class=CODE,merge=1,delta=2
    14                           	psect	text4,local,class=CODE,merge=1,delta=2
    15                           	psect	text5,local,class=CODE,merge=1,delta=2
    16                           	psect	text6,local,class=CODE,merge=1,delta=2
    17                           	psect	text7,local,class=CODE,merge=1,delta=2
    18                           	psect	text8,local,class=CODE,merge=1,delta=2
    19                           	psect	text9,local,class=CODE,merge=1,delta=2
    20                           	psect	text10,local,class=CODE,merge=1,delta=2
    21                           	psect	text11,local,class=CODE,merge=1,delta=2
    22                           	psect	text12,local,class=CODE,merge=1,delta=2,group=1
    23                           	psect	text13,local,class=CODE,merge=1,delta=2
    24                           	psect	text14,local,class=CODE,merge=1,delta=2,group=1
    25                           	psect	text15,local,class=CODE,merge=1,delta=2,group=1
    26                           	psect	text16,local,class=CODE,merge=1,delta=2,group=1
    27                           	psect	text17,local,class=CODE,merge=1,delta=2
    28                           	psect	text18,local,class=CODE,merge=1,delta=2
    29                           	psect	text19,local,class=CODE,merge=1,delta=2
    30                           	psect	text20,local,class=CODE,merge=1,delta=2
    31                           	psect	text21,local,class=CODE,merge=1,delta=2
    32                           	psect	text22,local,class=CODE,merge=1,delta=2
    33                           	psect	text23,local,class=CODE,merge=1,delta=2
    34                           	psect	intentry,global,class=CODE,delta=2
    35                           	psect	text24,local,class=CODE,merge=1,delta=2
    36                           	psect	text25,local,class=CODE,merge=1,delta=2
    37                           	psect	config,global,abs,ovrld,class=CONFIG,space=4,delta=2,noexec
    38                           	dabs	1,0x7E,2
    39  0000                     
    40                           ; Version 2.31
    41                           ; Generated 13/10/2020 GMT
    42                           ; 
    43                           ; Copyright © 2020, Microchip Technology Inc. and its subsidiaries ("Microchip")
    44                           ; All rights reserved.
    45                           ; 
    46                           ; This software is developed by Microchip Technology Inc. and its subsidiaries ("Microch
      +                          ip").
    47                           ; 
    48                           ; Redistribution and use in source and binary forms, with or without modification, are
    49                           ; permitted provided that the following conditions are met:
    50                           ; 
    51                           ;     1. Redistributions of source code must retain the above copyright notice, this lis
      +                          t of
    52                           ;        conditions and the following disclaimer.
    53                           ; 
    54                           ;     2. Redistributions in binary form must reproduce the above copyright notice, this 
      +                          list
    55                           ;        of conditions and the following disclaimer in the documentation and/or other
    56                           ;        materials provided with the distribution. Publication is not required when
    57                           ;        this file is used in an embedded application.
    58                           ; 
    59                           ;     3. Microchip's name may not be used to endorse or promote products derived from th
      +                          is
    60                           ;        software without specific prior written permission.
    61                           ; 
    62                           ; THIS SOFTWARE IS PROVIDED BY MICROCHIP "AS IS" AND ANY EXPRESS OR IMPLIED WARRANTIES,
    63                           ; INCLUDING, BUT NOT LIMITED TO, THE IMPLIED WARRANTIES OF MERCHANTABILITY AND FITNESS F
      +                          OR
    64                           ; PURPOSE ARE DISCLAIMED.  IN NO EVENT SHALL MICROCHIP BE LIABLE FOR ANY DIRECT, INDIREC
      +                          T,
    65                           ; INCIDENTAL, SPECIAL, EXEMPLARY, OR CONSEQUENTIAL DAMAGES (INCLUDING BUT NOT LIMITED TO
    66                           ; PROCUREMENT OF SUBSTITUTE GOODS OR SERVICES; LOSS OF USE, DATA OR PROFITS; OR BUSINESS
    67                           ; INTERRUPTION) HOWSOEVER CAUSED AND ON ANY THEORY OF LIABILITY, WHETHER IN CONTRACT, ST
      +                          RICT
    68                           ; LIABILITY, OR TORT (INCLUDING NEGLIGENCE OR OTHERWISE) ARISING IN ANY WAY OUT OF THE U
      +                          SE OF
    69                           ; THIS SOFTWARE, EVEN IF ADVISED OF THE POSSIBILITY OF SUCH DAMAGE.
    70                           ; 
    71                           ; 
    72                           ; Code-generator required, PIC16F887 Definitions
    73                           ; 
    74                           ; SFR Addresses
    75  0000                     	;# 
    76  0001                     	;# 
    77  0002                     	;# 
    78  0003                     	;# 
    79  0004                     	;# 
    80  0005                     	;# 
    81  0006                     	;# 
    82  0007                     	;# 
    83  0008                     	;# 
    84  0009                     	;# 
    85  000A                     	;# 
    86  000B                     	;# 
    87  000C                     	;# 
    88  000D                     	;# 
    89  000E                     	;# 
    90  000E                     	;# 
    91  000F                     	;# 
    92  0010                     	;# 
    93  0011                     	;# 
    94  0012                     	;# 
    95  0013                     	;# 
    96  0014                     	;# 
    97  0015                     	;# 
    98  0015                     	;# 
    99  0016                     	;# 
   100  0017                     	;# 
   101  0018                     	;# 
   102  0019                     	;# 
   103  001A                     	;# 
   104  001B                     	;# 
   105  001B                     	;# 
   106  001C                     	;# 
   107  001D                     	;# 
   108  001E                     	;# 
   109  001F                     	;# 
   110  0081                     	;# 
   111  0085                     	;# 
   112  0086                     	;# 
   113  0087                     	;# 
   114  0088                     	;# 
   115  0089                     	;# 
   116  008C                     	;# 
   117  008D                     	;# 
   118  008E                     	;# 
   119  008F                     	;# 
   120  0090                     	;# 
   121  0091                     	;# 
   122  0092                     	;# 
   123  0093                     	;# 
   124  0093                     	;# 
   125  0093                     	;# 
   126  0094                     	;# 
   127  0095                     	;# 
   128  0096                     	;# 
   129  0097                     	;# 
   130  0098                     	;# 
   131  0099                     	;# 
   132  009A                     	;# 
   133  009B                     	;# 
   134  009C                     	;# 
   135  009D                     	;# 
   136  009E                     	;# 
   137  009F                     	;# 
   138  0105                     	;# 
   139  0107                     	;# 
   140  0108                     	;# 
   141  0109                     	;# 
   142  010C                     	;# 
   143  010C                     	;# 
   144  010D                     	;# 
   145  010E                     	;# 
   146  010F                     	;# 
   147  0185                     	;# 
   148  0187                     	;# 
   149  0188                     	;# 
   150  0189                     	;# 
   151  018C                     	;# 
   152  018D                     	;# 
   153  0000                     	;# 
   154  0001                     	;# 
   155  0002                     	;# 
   156  0003                     	;# 
   157  0004                     	;# 
   158  0005                     	;# 
   159  0006                     	;# 
   160  0007                     	;# 
   161  0008                     	;# 
   162  0009                     	;# 
   163  000A                     	;# 
   164  000B                     	;# 
   165  000C                     	;# 
   166  000D                     	;# 
   167  000E                     	;# 
   168  000E                     	;# 
   169  000F                     	;# 
   170  0010                     	;# 
   171  0011                     	;# 
   172  0012                     	;# 
   173  0013                     	;# 
   174  0014                     	;# 
   175  0015                     	;# 
   176  0015                     	;# 
   177  0016                     	;# 
   178  0017                     	;# 
   179  0018                     	;# 
   180  0019                     	;# 
   181  001A                     	;# 
   182  001B                     	;# 
   183  001B                     	;# 
   184  001C                     	;# 
   185  001D                     	;# 
   186  001E                     	;# 
   187  001F                     	;# 
   188  0081                     	;# 
   189  0085                     	;# 
   190  0086                     	;# 
   191  0087                     	;# 
   192  0088                     	;# 
   193  0089                     	;# 
   194  008C                     	;# 
   195  008D                     	;# 
   196  008E                     	;# 
   197  008F                     	;# 
   198  0090                     	;# 
   199  0091                     	;# 
   200  0092                     	;# 
   201  0093                     	;# 
   202  0093                     	;# 
   203  0093                     	;# 
   204  0094                     	;# 
   205  0095                     	;# 
   206  0096                     	;# 
   207  0097                     	;# 
   208  0098                     	;# 
   209  0099                     	;# 
   210  009A                     	;# 
   211  009B                     	;# 
   212  009C                     	;# 
   213  009D                     	;# 
   214  009E                     	;# 
   215  009F                     	;# 
   216  0105                     	;# 
   217  0107                     	;# 
   218  0108                     	;# 
   219  0109                     	;# 
   220  010C                     	;# 
   221  010C                     	;# 
   222  010D                     	;# 
   223  010E                     	;# 
   224  010F                     	;# 
   225  0185                     	;# 
   226  0187                     	;# 
   227  0188                     	;# 
   228  0189                     	;# 
   229  018C                     	;# 
   230  018D                     	;# 
   231  0000                     	;# 
   232  0001                     	;# 
   233  0002                     	;# 
   234  0003                     	;# 
   235  0004                     	;# 
   236  0005                     	;# 
   237  0006                     	;# 
   238  0007                     	;# 
   239  0008                     	;# 
   240  0009                     	;# 
   241  000A                     	;# 
   242  000B                     	;# 
   243  000C                     	;# 
   244  000D                     	;# 
   245  000E                     	;# 
   246  000E                     	;# 
   247  000F                     	;# 
   248  0010                     	;# 
   249  0011                     	;# 
   250  0012                     	;# 
   251  0013                     	;# 
   252  0014                     	;# 
   253  0015                     	;# 
   254  0015                     	;# 
   255  0016                     	;# 
   256  0017                     	;# 
   257  0018                     	;# 
   258  0019                     	;# 
   259  001A                     	;# 
   260  001B                     	;# 
   261  001B                     	;# 
   262  001C                     	;# 
   263  001D                     	;# 
   264  001E                     	;# 
   265  001F                     	;# 
   266  0081                     	;# 
   267  0085                     	;# 
   268  0086                     	;# 
   269  0087                     	;# 
   270  0088                     	;# 
   271  0089                     	;# 
   272  008C                     	;# 
   273  008D                     	;# 
   274  008E                     	;# 
   275  008F                     	;# 
   276  0090                     	;# 
   277  0091                     	;# 
   278  0092                     	;# 
   279  0093                     	;# 
   280  0093                     	;# 
   281  0093                     	;# 
   282  0094                     	;# 
   283  0095                     	;# 
   284  0096                     	;# 
   285  0097                     	;# 
   286  0098                     	;# 
   287  0099                     	;# 
   288  009A                     	;# 
   289  009B                     	;# 
   290  009C                     	;# 
   291  009D                     	;# 
   292  009E                     	;# 
   293  009F                     	;# 
   294  0105                     	;# 
   295  0107                     	;# 
   296  0108                     	;# 
   297  0109                     	;# 
   298  010C                     	;# 
   299  010C                     	;# 
   300  010D                     	;# 
   301  010E                     	;# 
   302  010F                     	;# 
   303  0185                     	;# 
   304  0187                     	;# 
   305  0188                     	;# 
   306  0189                     	;# 
   307  018C                     	;# 
   308  018D                     	;# 
   309  0000                     	;# 
   310  0001                     	;# 
   311  0002                     	;# 
   312  0003                     	;# 
   313  0004                     	;# 
   314  0005                     	;# 
   315  0006                     	;# 
   316  0007                     	;# 
   317  0008                     	;# 
   318  0009                     	;# 
   319  000A                     	;# 
   320  000B                     	;# 
   321  000C                     	;# 
   322  000D                     	;# 
   323  000E                     	;# 
   324  000E                     	;# 
   325  000F                     	;# 
   326  0010                     	;# 
   327  0011                     	;# 
   328  0012                     	;# 
   329  0013                     	;# 
   330  0014                     	;# 
   331  0015                     	;# 
   332  0015                     	;# 
   333  0016                     	;# 
   334  0017                     	;# 
   335  0018                     	;# 
   336  0019                     	;# 
   337  001A                     	;# 
   338  001B                     	;# 
   339  001B                     	;# 
   340  001C                     	;# 
   341  001D                     	;# 
   342  001E                     	;# 
   343  001F                     	;# 
   344  0081                     	;# 
   345  0085                     	;# 
   346  0086                     	;# 
   347  0087                     	;# 
   348  0088                     	;# 
   349  0089                     	;# 
   350  008C                     	;# 
   351  008D                     	;# 
   352  008E                     	;# 
   353  008F                     	;# 
   354  0090                     	;# 
   355  0091                     	;# 
   356  0092                     	;# 
   357  0093                     	;# 
   358  0093                     	;# 
   359  0093                     	;# 
   360  0094                     	;# 
   361  0095                     	;# 
   362  0096                     	;# 
   363  0097                     	;# 
   364  0098                     	;# 
   365  0099                     	;# 
   366  009A                     	;# 
   367  009B                     	;# 
   368  009C                     	;# 
   369  009D                     	;# 
   370  009E                     	;# 
   371  009F                     	;# 
   372  0105                     	;# 
   373  0107                     	;# 
   374  0108                     	;# 
   375  0109                     	;# 
   376  010C                     	;# 
   377  010C                     	;# 
   378  010D                     	;# 
   379  010E                     	;# 
   380  010F                     	;# 
   381  0185                     	;# 
   382  0187                     	;# 
   383  0188                     	;# 
   384  0189                     	;# 
   385  018C                     	;# 
   386  018D                     	;# 
   387  0000                     	;# 
   388  0001                     	;# 
   389  0002                     	;# 
   390  0003                     	;# 
   391  0004                     	;# 
   392  0005                     	;# 
   393  0006                     	;# 
   394  0007                     	;# 
   395  0008                     	;# 
   396  0009                     	;# 
   397  000A                     	;# 
   398  000B                     	;# 
   399  000C                     	;# 
   400  000D                     	;# 
   401  000E                     	;# 
   402  000E                     	;# 
   403  000F                     	;# 
   404  0010                     	;# 
   405  0011                     	;# 
   406  0012                     	;# 
   407  0013                     	;# 
   408  0014                     	;# 
   409  0015                     	;# 
   410  0015                     	;# 
   411  0016                     	;# 
   412  0017                     	;# 
   413  0018                     	;# 
   414  0019                     	;# 
   415  001A                     	;# 
   416  001B                     	;# 
   417  001B                     	;# 
   418  001C                     	;# 
   419  001D                     	;# 
   420  001E                     	;# 
   421  001F                     	;# 
   422  0081                     	;# 
   423  0085                     	;# 
   424  0086                     	;# 
   425  0087                     	;# 
   426  0088                     	;# 
   427  0089                     	;# 
   428  008C                     	;# 
   429  008D                     	;# 
   430  008E                     	;# 
   431  008F                     	;# 
   432  0090                     	;# 
   433  0091                     	;# 
   434  0092                     	;# 
   435  0093                     	;# 
   436  0093                     	;# 
   437  0093                     	;# 
   438  0094                     	;# 
   439  0095                     	;# 
   440  0096                     	;# 
   441  0097                     	;# 
   442  0098                     	;# 
   443  0099                     	;# 
   444  009A                     	;# 
   445  009B                     	;# 
   446  009C                     	;# 
   447  009D                     	;# 
   448  009E                     	;# 
   449  009F                     	;# 
   450  0105                     	;# 
   451  0107                     	;# 
   452  0108                     	;# 
   453  0109                     	;# 
   454  010C                     	;# 
   455  010C                     	;# 
   456  010D                     	;# 
   457  010E                     	;# 
   458  010F                     	;# 
   459  0185                     	;# 
   460  0187                     	;# 
   461  0188                     	;# 
   462  0189                     	;# 
   463  018C                     	;# 
   464  018D                     	;# 
   465  0000                     	;# 
   466  0001                     	;# 
   467  0002                     	;# 
   468  0003                     	;# 
   469  0004                     	;# 
   470  0005                     	;# 
   471  0006                     	;# 
   472  0007                     	;# 
   473  0008                     	;# 
   474  0009                     	;# 
   475  000A                     	;# 
   476  000B                     	;# 
   477  000C                     	;# 
   478  000D                     	;# 
   479  000E                     	;# 
   480  000E                     	;# 
   481  000F                     	;# 
   482  0010                     	;# 
   483  0011                     	;# 
   484  0012                     	;# 
   485  0013                     	;# 
   486  0014                     	;# 
   487  0015                     	;# 
   488  0015                     	;# 
   489  0016                     	;# 
   490  0017                     	;# 
   491  0018                     	;# 
   492  0019                     	;# 
   493  001A                     	;# 
   494  001B                     	;# 
   495  001B                     	;# 
   496  001C                     	;# 
   497  001D                     	;# 
   498  001E                     	;# 
   499  001F                     	;# 
   500  0081                     	;# 
   501  0085                     	;# 
   502  0086                     	;# 
   503  0087                     	;# 
   504  0088                     	;# 
   505  0089                     	;# 
   506  008C                     	;# 
   507  008D                     	;# 
   508  008E                     	;# 
   509  008F                     	;# 
   510  0090                     	;# 
   511  0091                     	;# 
   512  0092                     	;# 
   513  0093                     	;# 
   514  0093                     	;# 
   515  0093                     	;# 
   516  0094                     	;# 
   517  0095                     	;# 
   518  0096                     	;# 
   519  0097                     	;# 
   520  0098                     	;# 
   521  0099                     	;# 
   522  009A                     	;# 
   523  009B                     	;# 
   524  009C                     	;# 
   525  009D                     	;# 
   526  009E                     	;# 
   527  009F                     	;# 
   528  0105                     	;# 
   529  0107                     	;# 
   530  0108                     	;# 
   531  0109                     	;# 
   532  010C                     	;# 
   533  010C                     	;# 
   534  010D                     	;# 
   535  010E                     	;# 
   536  010F                     	;# 
   537  0185                     	;# 
   538  0187                     	;# 
   539  0188                     	;# 
   540  0189                     	;# 
   541  018C                     	;# 
   542  018D                     	;# 
   543  0018                     _RCSTAbits	set	24
   544  0009                     _PORTEbits	set	9
   545  0013                     _SSPBUF	set	19
   546  0014                     _SSPCON	set	20
   547  0009                     _PORTE	set	9
   548  0007                     _PORTC	set	7
   549  0006                     _PORTB	set	6
   550  0005                     _PORTA	set	5
   551  0008                     _PORTD	set	8
   552  0007                     _PORTCbits	set	7
   553  0019                     _TXREG	set	25
   554  000C                     _PIR1bits	set	12
   555  0001                     _TMR0	set	1
   556  000B                     _INTCONbits	set	11
   557  009A                     _SPBRGH	set	154
   558  0099                     _SPBRG	set	153
   559  0098                     _TXSTAbits	set	152
   560  0094                     _SSPSTATbits	set	148
   561  0094                     _SSPSTAT	set	148
   562  0081                     _OPTION_REG	set	129
   563  0089                     _TRISE	set	137
   564  0088                     _TRISD	set	136
   565  0087                     _TRISC	set	135
   566  0086                     _TRISB	set	134
   567  0085                     _TRISA	set	133
   568  008C                     _PIE1bits	set	140
   569  008F                     _OSCCONbits	set	143
   570  043B                     _TRISC3	set	1083
   571  043D                     _TRISC5	set	1085
   572  0105                     _WDTCON	set	261
   573  0187                     _BAUDCTLbits	set	391
   574  0189                     _ANSELH	set	393
   575  0188                     _ANSEL	set	392
   576                           
   577                           	psect	strings
   578  069D                     __pstrings:
   579  069D                     stringtab:
   580  069D                     __stringtab:
   581  069D                     stringcode:	
   582                           ;	String table - string pointers are 1 byte each
   583                           
   584  069D                     stringdir:
   585  069D  3006               	movlw	high stringdir
   586  069E  008A               	movwf	10
   587  069F  0804               	movf	4,w
   588  06A0  0A84               	incf	4,f
   589  06A1  0782               	addwf	2,f
   590  06A2                     __stringbase:
   591  06A2  3400               	retlw	0
   592  06A3                     __end_of__stringtab:
   593  06A3                     STR_3:
   594  06A3  3454               	retlw	84	;'T'
   595  06A4  3445               	retlw	69	;'E'
   596  06A5  344D               	retlw	77	;'M'
   597  06A6  3450               	retlw	80	;'P'
   598  06A7  3400               	retlw	0
   599  06A8                     STR_2:
   600  06A8  3443               	retlw	67	;'C'
   601  06A9  344F               	retlw	79	;'O'
   602  06AA  344E               	retlw	78	;'N'
   603  06AB  3454               	retlw	84	;'T'
   604  06AC  3400               	retlw	0
   605  06AD                     STR_1:
   606  06AD  3441               	retlw	65	;'A'
   607  06AE  3444               	retlw	68	;'D'
   608  06AF  3443               	retlw	67	;'C'
   609  06B0  3400               	retlw	0
   610  06B1                     STR_7:
   611  06B1  3430               	retlw	48	;'0'
   612  06B2  3400               	retlw	0
   613  06B3                     STR_8:
   614  06B3  3431               	retlw	49	;'1'
   615  06B4  3400               	retlw	0
   616  06B5                     STR_9:
   617  06B5  3432               	retlw	50	;'2'
   618  06B6  3400               	retlw	0
   619  06B7                     STR_10:
   620  06B7  3433               	retlw	51	;'3'
   621  06B8  3400               	retlw	0
   622  06B9                     STR_11:
   623  06B9  3434               	retlw	52	;'4'
   624  06BA  3400               	retlw	0
   625  06BB                     STR_12:
   626  06BB  3435               	retlw	53	;'5'
   627  06BC  3400               	retlw	0
   628  06BD                     STR_13:
   629  06BD  3436               	retlw	54	;'6'
   630  06BE  3400               	retlw	0
   631  06BF                     STR_14:
   632  06BF  3437               	retlw	55	;'7'
   633  06C0  3400               	retlw	0
   634  06C1                     STR_15:
   635  06C1  3438               	retlw	56	;'8'
   636  06C2  3400               	retlw	0
   637  06C3                     STR_16:
   638  06C3  3439               	retlw	57	;'9'
   639  06C4  3400               	retlw	0
   640  06C5                     STR_6:
   641  06C5  342B               	retlw	43	;'+'
   642  06C6  3400               	retlw	0
   643  06C7                     STR_5:
   644  06C7  342D               	retlw	45	;'-'
   645  06C8  3400               	retlw	0
   646  06C9                     STR_4:
   647  06C9  342E               	retlw	46	;'.'
   648  06CA  3400               	retlw	0
   649                           
   650                           	psect	cinit
   651  0011                     start_initialization:	
   652                           ; #config settings
   653                           
   654  0011                     __initialization:
   655                           
   656                           ; Clear objects allocated to COMMON
   657  0011  01FA               	clrf	__pbssCOMMON& (0+127)
   658  0012  01FB               	clrf	(__pbssCOMMON+1)& (0+127)
   659  0013  01FC               	clrf	(__pbssCOMMON+2)& (0+127)
   660  0014  01FD               	clrf	(__pbssCOMMON+3)& (0+127)
   661                           
   662                           ; Clear objects allocated to BANK0
   663  0015  1283               	bcf	3,5	;RP0=0, select bank0
   664  0016  1303               	bcf	3,6	;RP1=0, select bank0
   665  0017  01B8               	clrf	__pbssBANK0& (0+127)
   666  0018  01B9               	clrf	(__pbssBANK0+1)& (0+127)
   667  0019  01BA               	clrf	(__pbssBANK0+2)& (0+127)
   668  001A  01BB               	clrf	(__pbssBANK0+3)& (0+127)
   669  001B  01BC               	clrf	(__pbssBANK0+4)& (0+127)
   670  001C  01BD               	clrf	(__pbssBANK0+5)& (0+127)
   671  001D  01BE               	clrf	(__pbssBANK0+6)& (0+127)
   672  001E  01BF               	clrf	(__pbssBANK0+7)& (0+127)
   673  001F  01C0               	clrf	(__pbssBANK0+8)& (0+127)
   674  0020  01C1               	clrf	(__pbssBANK0+9)& (0+127)
   675  0021  01C2               	clrf	(__pbssBANK0+10)& (0+127)
   676  0022  01C3               	clrf	(__pbssBANK0+11)& (0+127)
   677  0023                     end_of_initialization:	
   678                           ;End of C runtime variable initialization code
   679                           
   680  0023                     __end_of__initialization:
   681  0023  0183               	clrf	3
   682  0024  120A  118A  29E2   	ljmp	_main	;jump to C main() function
   683                           
   684                           	psect	bssCOMMON
   685  007A                     __pbssCOMMON:
   686  007A                     _centimas_temp:
   687  007A                     	ds	1
   688  007B                     _decimas_temp:
   689  007B                     	ds	1
   690  007C                     _unidades_temp:
   691  007C                     	ds	1
   692  007D                     _FLAGTX:
   693  007D                     	ds	1
   694                           
   695                           	psect	bssBANK0
   696  0038                     __pbssBANK0:
   697  0038                     _SIGNO:
   698  0038                     	ds	1
   699  0039                     _centimas_adc:
   700  0039                     	ds	1
   701  003A                     _decimas_adc:
   702  003A                     	ds	1
   703  003B                     _unidades_adc:
   704  003B                     	ds	1
   705  003C                     _TEMPERATURA_FINAL:
   706  003C                     	ds	1
   707  003D                     _TEMPERATURA:
   708  003D                     	ds	1
   709  003E                     _COUNTER:
   710  003E                     	ds	1
   711  003F                     _FLAGSS:
   712  003F                     	ds	1
   713  0040                     _CONTADOR:
   714  0040                     	ds	1
   715  0041                     _VAR_ADC:
   716  0041                     	ds	1
   717  0042                     _PRUEBA:
   718  0042                     	ds	2
   719                           
   720                           	psect	cstackCOMMON
   721  0070                     __pcstackCOMMON:
   722  0070                     ?_Envio:
   723  0070                     ?_Setup:	
   724                           ; 1 bytes @ 0x0
   725                           
   726  0070                     ?_Lcd_Write_String:	
   727                           ; 1 bytes @ 0x0
   728                           
   729  0070                     ?_spiWrite:	
   730                           ; 1 bytes @ 0x0
   731                           
   732  0070                     ?_spiRead:	
   733                           ; 1 bytes @ 0x0
   734                           
   735  0070                     ?_Conversiones:	
   736                           ; 1 bytes @ 0x0
   737                           
   738  0070                     ?_Envio_Contador:	
   739                           ; 1 bytes @ 0x0
   740                           
   741  0070                     ?_Mappin_Temperature:	
   742                           ; 1 bytes @ 0x0
   743                           
   744  0070                     ?_Lcd_Init:	
   745                           ; 1 bytes @ 0x0
   746                           
   747  0070                     ?_initUART:	
   748                           ; 1 bytes @ 0x0
   749                           
   750  0070                     ?_Cambio:	
   751                           ; 1 bytes @ 0x0
   752                           
   753  0070                     ?_ASCII:	
   754                           ; 1 bytes @ 0x0
   755                           
   756  0070                     ??_ASCII:	
   757                           ; 1 bytes @ 0x0
   758                           
   759  0070                     ?_Envio_Temperatura:	
   760                           ; 1 bytes @ 0x0
   761                           
   762  0070                     ?_initOsc:	
   763                           ; 1 bytes @ 0x0
   764                           
   765  0070                     ?_isr:	
   766                           ; 1 bytes @ 0x0
   767                           
   768  0070                     ?_main:	
   769                           ; 1 bytes @ 0x0
   770                           
   771  0070                     ?_spiReceiveWait:	
   772                           ; 1 bytes @ 0x0
   773                           
   774  0070                     ?_Lcd_Port:	
   775                           ; 1 bytes @ 0x0
   776                           
   777  0070                     ?_Lcd_Cmd:	
   778                           ; 1 bytes @ 0x0
   779                           
   780  0070                     ?_Lcd_Write_Char:	
   781                           ; 1 bytes @ 0x0
   782                           
   783                           
   784                           ; 1 bytes @ 0x0
   785  0070                     	ds	2
   786  0072                     ASCII@valor:
   787                           
   788                           ; 1 bytes @ 0x2
   789  0072                     	ds	1
   790  0073                     ??_Envio:
   791                           
   792                           ; 1 bytes @ 0x3
   793  0073                     	ds	2
   794  0075                     Envio@temporal:
   795                           
   796                           ; 1 bytes @ 0x5
   797  0075                     	ds	1
   798  0076                     ??_isr:
   799                           
   800                           ; 1 bytes @ 0x6
   801  0076                     	ds	4
   802                           
   803                           	psect	cstackBANK0
   804  0020                     __pcstackBANK0:
   805  0020                     ??_spiWrite:
   806  0020                     ??_spiRead:	
   807                           ; 1 bytes @ 0x0
   808                           
   809  0020                     ??_initUART:	
   810                           ; 1 bytes @ 0x0
   811                           
   812  0020                     ?_spiInit:	
   813                           ; 1 bytes @ 0x0
   814                           
   815  0020                     ??_Cambio:	
   816                           ; 1 bytes @ 0x0
   817                           
   818  0020                     ??_initOsc:	
   819                           ; 1 bytes @ 0x0
   820                           
   821  0020                     ??_spiReceiveWait:	
   822                           ; 1 bytes @ 0x0
   823                           
   824  0020                     ??_Lcd_Port:	
   825                           ; 1 bytes @ 0x0
   826                           
   827  0020                     ?___bmul:	
   828                           ; 1 bytes @ 0x0
   829                           
   830  0020                     ?___wmul:	
   831                           ; 1 bytes @ 0x0
   832                           
   833  0020                     ?___lwdiv:	
   834                           ; 2 bytes @ 0x0
   835                           
   836  0020                     spiInit@sDataSample:	
   837                           ; 2 bytes @ 0x0
   838                           
   839  0020                     spiWrite@dat:	
   840                           ; 1 bytes @ 0x0
   841                           
   842  0020                     Lcd_Port@a:	
   843                           ; 1 bytes @ 0x0
   844                           
   845  0020                     ___bmul@multiplicand:	
   846                           ; 1 bytes @ 0x0
   847                           
   848  0020                     ___wmul@multiplier:	
   849                           ; 1 bytes @ 0x0
   850                           
   851  0020                     ___lwdiv@divisor:	
   852                           ; 2 bytes @ 0x0
   853                           
   854                           
   855                           ; 2 bytes @ 0x0
   856  0020                     	ds	1
   857  0021                     ??_Lcd_Cmd:
   858  0021                     ??_Lcd_Write_Char:	
   859                           ; 1 bytes @ 0x1
   860                           
   861  0021                     ??___bmul:	
   862                           ; 1 bytes @ 0x1
   863                           
   864  0021                     spiInit@sClockIdle:	
   865                           ; 1 bytes @ 0x1
   866                           
   867                           
   868                           ; 1 bytes @ 0x1
   869  0021                     	ds	1
   870  0022                     initOsc@IRCF:
   871  0022                     spiInit@sTransmitEdge:	
   872                           ; 1 bytes @ 0x2
   873                           
   874  0022                     Lcd_Write_Char@a:	
   875                           ; 1 bytes @ 0x2
   876                           
   877  0022                     Cambio@numero:	
   878                           ; 1 bytes @ 0x2
   879                           
   880  0022                     ___bmul@product:	
   881                           ; 1 bytes @ 0x2
   882                           
   883  0022                     ___wmul@multiplicand:	
   884                           ; 1 bytes @ 0x2
   885                           
   886  0022                     ___lwdiv@dividend:	
   887                           ; 2 bytes @ 0x2
   888                           
   889                           
   890                           ; 2 bytes @ 0x2
   891  0022                     	ds	1
   892  0023                     ??_Lcd_Write_String:
   893  0023                     ??_spiInit:	
   894                           ; 1 bytes @ 0x3
   895                           
   896  0023                     spiInit@sType:	
   897                           ; 1 bytes @ 0x3
   898                           
   899  0023                     Lcd_Cmd@a:	
   900                           ; 1 bytes @ 0x3
   901                           
   902  0023                     ___bmul@multiplier:	
   903                           ; 1 bytes @ 0x3
   904                           
   905  0023                     Lcd_Write_String@i:	
   906                           ; 1 bytes @ 0x3
   907                           
   908                           
   909                           ; 2 bytes @ 0x3
   910  0023                     	ds	1
   911  0024                     ?_Lcd_Set_Cursor:
   912  0024                     ??_Lcd_Init:	
   913                           ; 1 bytes @ 0x4
   914                           
   915  0024                     ??___wmul:	
   916                           ; 1 bytes @ 0x4
   917                           
   918  0024                     ??___lwdiv:	
   919                           ; 1 bytes @ 0x4
   920                           
   921  0024                     Lcd_Set_Cursor@b:	
   922                           ; 1 bytes @ 0x4
   923                           
   924  0024                     ___wmul@product:	
   925                           ; 1 bytes @ 0x4
   926                           
   927                           
   928                           ; 2 bytes @ 0x4
   929  0024                     	ds	1
   930  0025                     ??_Lcd_Set_Cursor:
   931  0025                     Lcd_Set_Cursor@a:	
   932                           ; 1 bytes @ 0x5
   933                           
   934  0025                     Lcd_Write_String@a:	
   935                           ; 1 bytes @ 0x5
   936                           
   937  0025                     ___lwdiv@quotient:	
   938                           ; 1 bytes @ 0x5
   939                           
   940                           
   941                           ; 2 bytes @ 0x5
   942  0025                     	ds	1
   943  0026                     ??_Setup:
   944  0026                     ?___awdiv:	
   945                           ; 1 bytes @ 0x6
   946                           
   947  0026                     ___awdiv@divisor:	
   948                           ; 2 bytes @ 0x6
   949                           
   950                           
   951                           ; 2 bytes @ 0x6
   952  0026                     	ds	1
   953  0027                     ___lwdiv@counter:
   954                           
   955                           ; 1 bytes @ 0x7
   956  0027                     	ds	1
   957  0028                     ___awdiv@dividend:
   958                           
   959                           ; 2 bytes @ 0x8
   960  0028                     	ds	2
   961  002A                     ??___awdiv:
   962                           
   963                           ; 1 bytes @ 0xA
   964  002A                     	ds	1
   965  002B                     ___awdiv@counter:
   966                           
   967                           ; 1 bytes @ 0xB
   968  002B                     	ds	1
   969  002C                     ___awdiv@sign:
   970                           
   971                           ; 1 bytes @ 0xC
   972  002C                     	ds	1
   973  002D                     ___awdiv@quotient:
   974                           
   975                           ; 2 bytes @ 0xD
   976  002D                     	ds	2
   977  002F                     ??_Conversiones:
   978  002F                     ??_Envio_Contador:	
   979                           ; 1 bytes @ 0xF
   980                           
   981  002F                     ??_Envio_Temperatura:	
   982                           ; 1 bytes @ 0xF
   983                           
   984                           
   985                           ; 1 bytes @ 0xF
   986  002F                     	ds	2
   987  0031                     Conversiones@temporal:
   988                           
   989                           ; 2 bytes @ 0x11
   990  0031                     	ds	1
   991  0032                     Envio_Contador@centimas:
   992  0032                     Envio_Temperatura@temporal:	
   993                           ; 1 bytes @ 0x12
   994                           
   995                           
   996                           ; 1 bytes @ 0x12
   997  0032                     	ds	1
   998  0033                     ??_Mappin_Temperature:
   999  0033                     Envio_Contador@unidades:	
  1000                           ; 1 bytes @ 0x13
  1001                           
  1002                           
  1003                           ; 1 bytes @ 0x13
  1004  0033                     	ds	1
  1005  0034                     Envio_Contador@decimas:
  1006                           
  1007                           ; 1 bytes @ 0x14
  1008  0034                     	ds	1
  1009  0035                     Envio_Contador@temporal:
  1010                           
  1011                           ; 1 bytes @ 0x15
  1012  0035                     	ds	1
  1013  0036                     ??_main:
  1014                           
  1015                           ; 1 bytes @ 0x16
  1016  0036                     	ds	2
  1017                           
  1018                           	psect	maintext
  1019  01E2                     __pmaintext:	
  1020 ;;
  1021 ;;Main: autosize = 0, tempsize = 2, incstack = 0, save=0
  1022 ;;
  1023 ;; *************** function _main *****************
  1024 ;; Defined at:
  1025 ;;		line 98 in file "E:/UVG/Semestre 5/Digital2/Proyecto1/Proyecto1.X/code.c"
  1026 ;; Parameters:    Size  Location     Type
  1027 ;;		None
  1028 ;; Auto vars:     Size  Location     Type
  1029 ;;		None
  1030 ;; Return value:  Size  Location     Type
  1031 ;;                  1    wreg      void 
  1032 ;; Registers used:
  1033 ;;		wreg, fsr0l, fsr0h, status,2, status,0, pclath, cstack
  1034 ;; Tracked objects:
  1035 ;;		On entry : B00/0
  1036 ;;		On exit  : 0/0
  1037 ;;		Unchanged: 0/0
  1038 ;; Data sizes:     COMMON   BANK0   BANK1   BANK3   BANK2
  1039 ;;      Params:         0       0       0       0       0
  1040 ;;      Locals:         0       0       0       0       0
  1041 ;;      Temps:          0       2       0       0       0
  1042 ;;      Totals:         0       2       0       0       0
  1043 ;;Total ram usage:        2 bytes
  1044 ;; Hardware stack levels required when called:    8
  1045 ;; This function calls:
  1046 ;;		_Conversiones
  1047 ;;		_Envio_Contador
  1048 ;;		_Lcd_Set_Cursor
  1049 ;;		_Lcd_Write_String
  1050 ;;		_Mappin_Temperature
  1051 ;;		_Setup
  1052 ;;		_spiRead
  1053 ;;		_spiWrite
  1054 ;; This function is called by:
  1055 ;;		Startup code after reset
  1056 ;; This function uses a non-reentrant model
  1057 ;;
  1058                           
  1059                           
  1060                           ;psect for function _main
  1061  01E2                     _main:
  1062  01E2                     l2350:	
  1063                           ;incstack = 0
  1064                           ; Regs used in _main: [wreg-fsr0h+status,2+status,0+pclath+cstack]
  1065                           
  1066                           
  1067                           ;E:/UVG/Semestre 5/Digital2/Proyecto1/Proyecto1.X/code.c: 99:     Setup();
  1068  01E2  120A  118A  2662  120A  118A  	fcall	_Setup
  1069  01E7                     l2352:
  1070                           
  1071                           ;E:/UVG/Semestre 5/Digital2/Proyecto1/Proyecto1.X/code.c: 101:     Lcd_Set_Cursor(1, 1);
  1072  01E7  1283               	bcf	3,5	;RP0=0, select bank0
  1073  01E8  1303               	bcf	3,6	;RP1=0, select bank0
  1074  01E9  01A4               	clrf	Lcd_Set_Cursor@b
  1075  01EA  0AA4               	incf	Lcd_Set_Cursor@b,f
  1076  01EB  3001               	movlw	1
  1077  01EC  120A  118A  2762  120A  118A  	fcall	_Lcd_Set_Cursor
  1078  01F1                     l2354:
  1079                           
  1080                           ;E:/UVG/Semestre 5/Digital2/Proyecto1/Proyecto1.X/code.c: 102:     Lcd_Write_String("ADC
      +                          ");
  1081  01F1  300B               	movlw	(low ((STR_1-__stringbase)| (0+32768)))& (0+255)
  1082  01F2  120A  118A  26CB  120A  118A  	fcall	_Lcd_Write_String
  1083                           
  1084                           ;E:/UVG/Semestre 5/Digital2/Proyecto1/Proyecto1.X/code.c: 103:     Lcd_Set_Cursor(1, 6);
  1085  01F7  3006               	movlw	6
  1086  01F8  1283               	bcf	3,5	;RP0=0, select bank0
  1087  01F9  1303               	bcf	3,6	;RP1=0, select bank0
  1088  01FA  00B6               	movwf	??_main
  1089  01FB  0836               	movf	??_main,w
  1090  01FC  00A4               	movwf	Lcd_Set_Cursor@b
  1091  01FD  3001               	movlw	1
  1092  01FE  120A  118A  2762  120A  118A  	fcall	_Lcd_Set_Cursor
  1093  0203                     l2356:
  1094                           
  1095                           ;E:/UVG/Semestre 5/Digital2/Proyecto1/Proyecto1.X/code.c: 104:     Lcd_Write_String("CON
      +                          T");
  1096  0203  3006               	movlw	(low ((STR_2-__stringbase)| (0+32768)))& (0+255)
  1097  0204  120A  118A  26CB  120A  118A  	fcall	_Lcd_Write_String
  1098  0209                     l2358:
  1099                           
  1100                           ;E:/UVG/Semestre 5/Digital2/Proyecto1/Proyecto1.X/code.c: 105:     Lcd_Set_Cursor(1, 12)
      +                          ;
  1101  0209  300C               	movlw	12
  1102  020A  1283               	bcf	3,5	;RP0=0, select bank0
  1103  020B  1303               	bcf	3,6	;RP1=0, select bank0
  1104  020C  00B6               	movwf	??_main
  1105  020D  0836               	movf	??_main,w
  1106  020E  00A4               	movwf	Lcd_Set_Cursor@b
  1107  020F  3001               	movlw	1
  1108  0210  120A  118A  2762  120A  118A  	fcall	_Lcd_Set_Cursor
  1109                           
  1110                           ;E:/UVG/Semestre 5/Digital2/Proyecto1/Proyecto1.X/code.c: 106:     Lcd_Write_String("TEM
      +                          P");
  1111  0215  3001               	movlw	(low ((STR_3-__stringbase)| (0+32768)))& (0+255)
  1112  0216  120A  118A  26CB  120A  118A  	fcall	_Lcd_Write_String
  1113  021B                     l2360:
  1114                           
  1115                           ;E:/UVG/Semestre 5/Digital2/Proyecto1/Proyecto1.X/code.c: 108:         if(CONTADOR>10){
  1116  021B  300B               	movlw	11
  1117  021C  1283               	bcf	3,5	;RP0=0, select bank0
  1118  021D  1303               	bcf	3,6	;RP1=0, select bank0
  1119  021E  0240               	subwf	_CONTADOR,w
  1120  021F  1C03               	skipc
  1121  0220  2A22               	goto	u661
  1122  0221  2A23               	goto	u660
  1123  0222                     u661:
  1124  0222  2A1B               	goto	l2360
  1125  0223                     u660:
  1126  0223  2A7A               	goto	l2386
  1127  0224                     l133:	
  1128                           ;E:/UVG/Semestre 5/Digital2/Proyecto1/Proyecto1.X/code.c: 110:                 case 0:
  1129                           
  1130                           
  1131                           ;E:/UVG/Semestre 5/Digital2/Proyecto1/Proyecto1.X/code.c: 111:                     PORTC
      +                          bits.RC0 = 0;
  1132  0224  1007               	bcf	7,0	;volatile
  1133                           
  1134                           ;E:/UVG/Semestre 5/Digital2/Proyecto1/Proyecto1.X/code.c: 112:                     PORTC
      +                          bits.RC1 = 1;
  1135  0225  1487               	bsf	7,1	;volatile
  1136                           
  1137                           ;E:/UVG/Semestre 5/Digital2/Proyecto1/Proyecto1.X/code.c: 113:                     PORTC
      +                          bits.RC2 = 1;
  1138  0226  1507               	bsf	7,2	;volatile
  1139  0227                     l2364:
  1140                           
  1141                           ;E:/UVG/Semestre 5/Digital2/Proyecto1/Proyecto1.X/code.c: 114:                     spiWr
      +                          ite(0x00);
  1142  0227  3000               	movlw	0
  1143  0228  120A  118A  27EE  120A  118A  	fcall	_spiWrite
  1144                           
  1145                           ;E:/UVG/Semestre 5/Digital2/Proyecto1/Proyecto1.X/code.c: 115:                     VAR_A
      +                          DC = spiRead();
  1146  022D  120A  118A  27DE  120A  118A  	fcall	_spiRead
  1147  0232  1283               	bcf	3,5	;RP0=0, select bank0
  1148  0233  1303               	bcf	3,6	;RP1=0, select bank0
  1149  0234  00B6               	movwf	??_main
  1150  0235  0836               	movf	??_main,w
  1151  0236  00C1               	movwf	_VAR_ADC
  1152  0237                     l2366:
  1153                           
  1154                           ;E:/UVG/Semestre 5/Digital2/Proyecto1/Proyecto1.X/code.c: 116:                     Conve
      +                          rsiones();
  1155  0237  120A  118A  2027  120A  118A  	fcall	_Conversiones
  1156  023C                     l2368:
  1157                           
  1158                           ;E:/UVG/Semestre 5/Digital2/Proyecto1/Proyecto1.X/code.c: 117:                     FLAGS
      +                          S++;
  1159  023C  3001               	movlw	1
  1160  023D  1283               	bcf	3,5	;RP0=0, select bank0
  1161  023E  1303               	bcf	3,6	;RP1=0, select bank0
  1162  023F  00B6               	movwf	??_main
  1163  0240  0836               	movf	??_main,w
  1164  0241  07BF               	addwf	_FLAGSS,f
  1165                           
  1166                           ;E:/UVG/Semestre 5/Digital2/Proyecto1/Proyecto1.X/code.c: 118:                     break
      +                          ;
  1167  0242  2A8D               	goto	l134
  1168  0243                     l135:	
  1169                           ;E:/UVG/Semestre 5/Digital2/Proyecto1/Proyecto1.X/code.c: 119:                 case 1:
  1170                           
  1171                           
  1172                           ;E:/UVG/Semestre 5/Digital2/Proyecto1/Proyecto1.X/code.c: 120:                     PORTC
      +                          bits.RC0 = 1;
  1173  0243  1407               	bsf	7,0	;volatile
  1174                           
  1175                           ;E:/UVG/Semestre 5/Digital2/Proyecto1/Proyecto1.X/code.c: 121:                     PORTC
      +                          bits.RC1 = 0;
  1176  0244  1087               	bcf	7,1	;volatile
  1177                           
  1178                           ;E:/UVG/Semestre 5/Digital2/Proyecto1/Proyecto1.X/code.c: 122:                     PORTC
      +                          bits.RC2 = 1;
  1179  0245  1507               	bsf	7,2	;volatile
  1180  0246                     l2370:
  1181                           
  1182                           ;E:/UVG/Semestre 5/Digital2/Proyecto1/Proyecto1.X/code.c: 123:                     spiWr
      +                          ite(0x00);
  1183  0246  3000               	movlw	0
  1184  0247  120A  118A  27EE  120A  118A  	fcall	_spiWrite
  1185                           
  1186                           ;E:/UVG/Semestre 5/Digital2/Proyecto1/Proyecto1.X/code.c: 124:                     COUNT
      +                          ER = spiRead();
  1187  024C  120A  118A  27DE  120A  118A  	fcall	_spiRead
  1188  0251  1283               	bcf	3,5	;RP0=0, select bank0
  1189  0252  1303               	bcf	3,6	;RP1=0, select bank0
  1190  0253  00B6               	movwf	??_main
  1191  0254  0836               	movf	??_main,w
  1192  0255  00BE               	movwf	_COUNTER
  1193  0256                     l2372:
  1194                           
  1195                           ;E:/UVG/Semestre 5/Digital2/Proyecto1/Proyecto1.X/code.c: 125:                     PORTD
      +                           = COUNTER;
  1196  0256  083E               	movf	_COUNTER,w
  1197  0257  0088               	movwf	8	;volatile
  1198  0258                     l2374:
  1199                           
  1200                           ;E:/UVG/Semestre 5/Digital2/Proyecto1/Proyecto1.X/code.c: 126:                     Envio
      +                          _Contador();
  1201  0258  120A  118A  2297  120A  118A  	fcall	_Envio_Contador
  1202  025D  2A3C               	goto	l2368
  1203  025E                     l136:	
  1204                           ;E:/UVG/Semestre 5/Digital2/Proyecto1/Proyecto1.X/code.c: 129:                 case 2:
  1205                           
  1206                           
  1207                           ;E:/UVG/Semestre 5/Digital2/Proyecto1/Proyecto1.X/code.c: 130:                     PORTC
      +                          bits.RC0 = 1;
  1208  025E  1407               	bsf	7,0	;volatile
  1209                           
  1210                           ;E:/UVG/Semestre 5/Digital2/Proyecto1/Proyecto1.X/code.c: 131:                     PORTC
      +                          bits.RC1 = 1;
  1211  025F  1487               	bsf	7,1	;volatile
  1212                           
  1213                           ;E:/UVG/Semestre 5/Digital2/Proyecto1/Proyecto1.X/code.c: 132:                     PORTC
      +                          bits.RC2 = 0;
  1214  0260  1107               	bcf	7,2	;volatile
  1215  0261                     l2378:
  1216                           
  1217                           ;E:/UVG/Semestre 5/Digital2/Proyecto1/Proyecto1.X/code.c: 133:                     spiWr
      +                          ite(0x00);
  1218  0261  3000               	movlw	0
  1219  0262  120A  118A  27EE  120A  118A  	fcall	_spiWrite
  1220                           
  1221                           ;E:/UVG/Semestre 5/Digital2/Proyecto1/Proyecto1.X/code.c: 134:                     TEMPE
      +                          RATURA = spiRead();
  1222  0267  120A  118A  27DE  120A  118A  	fcall	_spiRead
  1223  026C  1283               	bcf	3,5	;RP0=0, select bank0
  1224  026D  1303               	bcf	3,6	;RP1=0, select bank0
  1225  026E  00B6               	movwf	??_main
  1226  026F  0836               	movf	??_main,w
  1227  0270  00BD               	movwf	_TEMPERATURA
  1228  0271                     l2380:
  1229                           
  1230                           ;E:/UVG/Semestre 5/Digital2/Proyecto1/Proyecto1.X/code.c: 135:                     Mappi
      +                          n_Temperature();
  1231  0271  120A  118A  23E9  120A  118A  	fcall	_Mappin_Temperature
  1232  0276                     l2382:
  1233                           
  1234                           ;E:/UVG/Semestre 5/Digital2/Proyecto1/Proyecto1.X/code.c: 136:                     FLAGS
      +                          S = 0;
  1235  0276  1283               	bcf	3,5	;RP0=0, select bank0
  1236  0277  1303               	bcf	3,6	;RP1=0, select bank0
  1237  0278  01BF               	clrf	_FLAGSS
  1238                           
  1239                           ;E:/UVG/Semestre 5/Digital2/Proyecto1/Proyecto1.X/code.c: 137:                     break
      +                          ;
  1240  0279  2A8D               	goto	l134
  1241  027A                     l2386:
  1242  027A  083F               	movf	_FLAGSS,w
  1243  027B  00B6               	movwf	??_main
  1244  027C  01B7               	clrf	??_main+1
  1245                           
  1246                           ; Switch on 2 bytes has been partitioned into a top level switch of size 1, and 1 sub-sw
      +                          itches
  1247                           ; Switch size 1, requested type "simple"
  1248                           ; Number of cases is 1, Range of values is 0 to 0
  1249                           ; switch strategies available:
  1250                           ; Name         Instructions Cycles
  1251                           ; simple_byte            4     3 (average)
  1252                           ; direct_byte           11     8 (fixed)
  1253                           ; jumptable            260     6 (fixed)
  1254                           ;	Chosen strategy is simple_byte
  1255  027D  0837               	movf	??_main+1,w
  1256  027E  3A00               	xorlw	0	; case 0
  1257  027F  1903               	skipnz
  1258  0280  2A82               	goto	l2520
  1259  0281  2A8D               	goto	l134
  1260  0282                     l2520:
  1261                           
  1262                           ; Switch size 1, requested type "simple"
  1263                           ; Number of cases is 3, Range of values is 0 to 2
  1264                           ; switch strategies available:
  1265                           ; Name         Instructions Cycles
  1266                           ; simple_byte           10     6 (average)
  1267                           ; direct_byte           17     8 (fixed)
  1268                           ; jumptable            260     6 (fixed)
  1269                           ;	Chosen strategy is simple_byte
  1270  0282  0836               	movf	??_main,w
  1271  0283  3A00               	xorlw	0	; case 0
  1272  0284  1903               	skipnz
  1273  0285  2A24               	goto	l133
  1274  0286  3A01               	xorlw	1	; case 1
  1275  0287  1903               	skipnz
  1276  0288  2A43               	goto	l135
  1277  0289  3A03               	xorlw	3	; case 2
  1278  028A  1903               	skipnz
  1279  028B  2A5E               	goto	l136
  1280  028C  2A8D               	goto	l134
  1281  028D                     l134:
  1282                           
  1283                           ;E:/UVG/Semestre 5/Digital2/Proyecto1/Proyecto1.X/code.c: 139:             PIE1bits.TXIE
      +                           = 1;
  1284  028D  1683               	bsf	3,5	;RP0=1, select bank1
  1285  028E  1303               	bcf	3,6	;RP1=0, select bank1
  1286  028F  160C               	bsf	12,4	;volatile
  1287  0290                     l2388:
  1288                           
  1289                           ;E:/UVG/Semestre 5/Digital2/Proyecto1/Proyecto1.X/code.c: 140:             CONTADOR = 0;
  1290  0290  1283               	bcf	3,5	;RP0=0, select bank0
  1291  0291  1303               	bcf	3,6	;RP1=0, select bank0
  1292  0292  01C0               	clrf	_CONTADOR
  1293  0293  2A1B               	goto	l2360
  1294  0294  120A  118A  280E   	ljmp	start
  1295  0297                     __end_of_main:
  1296                           
  1297                           	psect	text1
  1298  07EE                     __ptext1:	
  1299 ;; *************** function _spiWrite *****************
  1300 ;; Defined at:
  1301 ;;		line 32 in file "E:/UVG/Semestre 5/Digital2/Proyecto1/Proyecto1.X/MSSP.c"
  1302 ;; Parameters:    Size  Location     Type
  1303 ;;  dat             1    wreg     unsigned char 
  1304 ;; Auto vars:     Size  Location     Type
  1305 ;;  dat             1    0[BANK0 ] unsigned char 
  1306 ;; Return value:  Size  Location     Type
  1307 ;;                  1    wreg      void 
  1308 ;; Registers used:
  1309 ;;		wreg
  1310 ;; Tracked objects:
  1311 ;;		On entry : 0/0
  1312 ;;		On exit  : 0/0
  1313 ;;		Unchanged: 0/0
  1314 ;; Data sizes:     COMMON   BANK0   BANK1   BANK3   BANK2
  1315 ;;      Params:         0       0       0       0       0
  1316 ;;      Locals:         0       1       0       0       0
  1317 ;;      Temps:          0       0       0       0       0
  1318 ;;      Totals:         0       1       0       0       0
  1319 ;;Total ram usage:        1 bytes
  1320 ;; Hardware stack levels used:    1
  1321 ;; Hardware stack levels required when called:    3
  1322 ;; This function calls:
  1323 ;;		Nothing
  1324 ;; This function is called by:
  1325 ;;		_main
  1326 ;; This function uses a non-reentrant model
  1327 ;;
  1328                           
  1329                           
  1330                           ;psect for function _spiWrite
  1331  07EE                     _spiWrite:
  1332                           
  1333                           ;incstack = 0
  1334                           ; Regs used in _spiWrite: [wreg]
  1335                           ;spiWrite@dat stored from wreg
  1336  07EE  1283               	bcf	3,5	;RP0=0, select bank0
  1337  07EF  1303               	bcf	3,6	;RP1=0, select bank0
  1338  07F0  00A0               	movwf	spiWrite@dat
  1339  07F1                     l2256:
  1340                           
  1341                           ;E:/UVG/Semestre 5/Digital2/Proyecto1/Proyecto1.X/MSSP.c: 33:     SSPBUF = dat;
  1342  07F1  0820               	movf	spiWrite@dat,w
  1343  07F2  0093               	movwf	19	;volatile
  1344  07F3                     l202:
  1345  07F3  0008               	return
  1346  07F4                     __end_of_spiWrite:
  1347                           
  1348                           	psect	text2
  1349  07DE                     __ptext2:	
  1350 ;; *************** function _spiRead *****************
  1351 ;; Defined at:
  1352 ;;		line 43 in file "E:/UVG/Semestre 5/Digital2/Proyecto1/Proyecto1.X/MSSP.c"
  1353 ;; Parameters:    Size  Location     Type
  1354 ;;		None
  1355 ;; Auto vars:     Size  Location     Type
  1356 ;;		None
  1357 ;; Return value:  Size  Location     Type
  1358 ;;                  1    wreg      unsigned char 
  1359 ;; Registers used:
  1360 ;;		wreg, status,2, status,0, pclath, cstack
  1361 ;; Tracked objects:
  1362 ;;		On entry : 0/0
  1363 ;;		On exit  : 0/0
  1364 ;;		Unchanged: 0/0
  1365 ;; Data sizes:     COMMON   BANK0   BANK1   BANK3   BANK2
  1366 ;;      Params:         0       0       0       0       0
  1367 ;;      Locals:         0       0       0       0       0
  1368 ;;      Temps:          0       0       0       0       0
  1369 ;;      Totals:         0       0       0       0       0
  1370 ;;Total ram usage:        0 bytes
  1371 ;; Hardware stack levels used:    1
  1372 ;; Hardware stack levels required when called:    4
  1373 ;; This function calls:
  1374 ;;		_spiReceiveWait
  1375 ;; This function is called by:
  1376 ;;		_main
  1377 ;; This function uses a non-reentrant model
  1378 ;;
  1379                           
  1380                           
  1381                           ;psect for function _spiRead
  1382  07DE                     _spiRead:
  1383  07DE                     l2258:	
  1384                           ;incstack = 0
  1385                           ; Regs used in _spiRead: [wreg+status,2+status,0+pclath+cstack]
  1386                           
  1387                           
  1388                           ;E:/UVG/Semestre 5/Digital2/Proyecto1/Proyecto1.X/MSSP.c: 44:     spiReceiveWait();
  1389  07DE  120A  118A  27E7  120A  118A  	fcall	_spiReceiveWait
  1390  07E3                     l2260:
  1391                           
  1392                           ;E:/UVG/Semestre 5/Digital2/Proyecto1/Proyecto1.X/MSSP.c: 45:     return(SSPBUF);
  1393  07E3  1283               	bcf	3,5	;RP0=0, select bank0
  1394  07E4  1303               	bcf	3,6	;RP1=0, select bank0
  1395  07E5  0813               	movf	19,w	;volatile
  1396  07E6                     l210:
  1397  07E6  0008               	return
  1398  07E7                     __end_of_spiRead:
  1399                           
  1400                           	psect	text3
  1401  07E7                     __ptext3:	
  1402 ;; *************** function _spiReceiveWait *****************
  1403 ;; Defined at:
  1404 ;;		line 28 in file "E:/UVG/Semestre 5/Digital2/Proyecto1/Proyecto1.X/MSSP.c"
  1405 ;; Parameters:    Size  Location     Type
  1406 ;;		None
  1407 ;; Auto vars:     Size  Location     Type
  1408 ;;		None
  1409 ;; Return value:  Size  Location     Type
  1410 ;;                  1    wreg      void 
  1411 ;; Registers used:
  1412 ;;		None
  1413 ;; Tracked objects:
  1414 ;;		On entry : 0/0
  1415 ;;		On exit  : 0/0
  1416 ;;		Unchanged: 0/0
  1417 ;; Data sizes:     COMMON   BANK0   BANK1   BANK3   BANK2
  1418 ;;      Params:         0       0       0       0       0
  1419 ;;      Locals:         0       0       0       0       0
  1420 ;;      Temps:          0       0       0       0       0
  1421 ;;      Totals:         0       0       0       0       0
  1422 ;;Total ram usage:        0 bytes
  1423 ;; Hardware stack levels used:    1
  1424 ;; Hardware stack levels required when called:    3
  1425 ;; This function calls:
  1426 ;;		Nothing
  1427 ;; This function is called by:
  1428 ;;		_spiRead
  1429 ;; This function uses a non-reentrant model
  1430 ;;
  1431                           
  1432                           
  1433                           ;psect for function _spiReceiveWait
  1434  07E7                     _spiReceiveWait:
  1435  07E7                     l2052:	
  1436                           ;incstack = 0
  1437                           ; Regs used in _spiReceiveWait: []
  1438                           
  1439  07E7                     l196:	
  1440                           ;E:/UVG/Semestre 5/Digital2/Proyecto1/Proyecto1.X/MSSP.c: 29:     while ( !SSPSTATbits.B
      +                          F );
  1441                           
  1442  07E7  1683               	bsf	3,5	;RP0=1, select bank1
  1443  07E8  1303               	bcf	3,6	;RP1=0, select bank1
  1444  07E9  1C14               	btfss	20,0	;volatile
  1445  07EA  2FEC               	goto	u501
  1446  07EB  2FED               	goto	u500
  1447  07EC                     u501:
  1448  07EC  2FE7               	goto	l196
  1449  07ED                     u500:
  1450  07ED                     l199:
  1451  07ED  0008               	return
  1452  07EE                     __end_of_spiReceiveWait:
  1453                           
  1454                           	psect	text4
  1455  0662                     __ptext4:	
  1456 ;; *************** function _Setup *****************
  1457 ;; Defined at:
  1458 ;;		line 149 in file "E:/UVG/Semestre 5/Digital2/Proyecto1/Proyecto1.X/code.c"
  1459 ;; Parameters:    Size  Location     Type
  1460 ;;		None
  1461 ;; Auto vars:     Size  Location     Type
  1462 ;;		None
  1463 ;; Return value:  Size  Location     Type
  1464 ;;                  1    wreg      void 
  1465 ;; Registers used:
  1466 ;;		wreg, fsr0l, fsr0h, status,2, status,0, pclath, cstack
  1467 ;; Tracked objects:
  1468 ;;		On entry : 0/0
  1469 ;;		On exit  : 0/0
  1470 ;;		Unchanged: 0/0
  1471 ;; Data sizes:     COMMON   BANK0   BANK1   BANK3   BANK2
  1472 ;;      Params:         0       0       0       0       0
  1473 ;;      Locals:         0       0       0       0       0
  1474 ;;      Temps:          0       0       0       0       0
  1475 ;;      Totals:         0       0       0       0       0
  1476 ;;Total ram usage:        0 bytes
  1477 ;; Hardware stack levels used:    1
  1478 ;; Hardware stack levels required when called:    6
  1479 ;; This function calls:
  1480 ;;		_Lcd_Init
  1481 ;;		_initOsc
  1482 ;;		_initUART
  1483 ;;		_spiInit
  1484 ;; This function is called by:
  1485 ;;		_main
  1486 ;; This function uses a non-reentrant model
  1487 ;;
  1488                           
  1489                           
  1490                           ;psect for function _Setup
  1491  0662                     _Setup:
  1492  0662                     l2226:	
  1493                           ;incstack = 0
  1494                           ; Regs used in _Setup: [wreg-fsr0h+status,2+status,0+pclath+cstack]
  1495                           
  1496                           
  1497                           ;E:/UVG/Semestre 5/Digital2/Proyecto1/Proyecto1.X/code.c: 151:     PORTA = 0;
  1498  0662  1283               	bcf	3,5	;RP0=0, select bank0
  1499  0663  1303               	bcf	3,6	;RP1=0, select bank0
  1500  0664  0185               	clrf	5	;volatile
  1501                           
  1502                           ;E:/UVG/Semestre 5/Digital2/Proyecto1/Proyecto1.X/code.c: 152:     PORTB = 0;
  1503  0665  0186               	clrf	6	;volatile
  1504                           
  1505                           ;E:/UVG/Semestre 5/Digital2/Proyecto1/Proyecto1.X/code.c: 153:     PORTC = 0;
  1506  0666  0187               	clrf	7	;volatile
  1507                           
  1508                           ;E:/UVG/Semestre 5/Digital2/Proyecto1/Proyecto1.X/code.c: 154:     PORTD = 0;
  1509  0667  0188               	clrf	8	;volatile
  1510                           
  1511                           ;E:/UVG/Semestre 5/Digital2/Proyecto1/Proyecto1.X/code.c: 155:     PORTE = 0;
  1512  0668  0189               	clrf	9	;volatile
  1513                           
  1514                           ;E:/UVG/Semestre 5/Digital2/Proyecto1/Proyecto1.X/code.c: 157:     ANSEL = 0;
  1515  0669  1683               	bsf	3,5	;RP0=1, select bank3
  1516  066A  1703               	bsf	3,6	;RP1=1, select bank3
  1517  066B  0188               	clrf	8	;volatile
  1518                           
  1519                           ;E:/UVG/Semestre 5/Digital2/Proyecto1/Proyecto1.X/code.c: 158:     ANSELH = 0;
  1520  066C  0189               	clrf	9	;volatile
  1521                           
  1522                           ;E:/UVG/Semestre 5/Digital2/Proyecto1/Proyecto1.X/code.c: 160:     TRISA = 0;
  1523  066D  1683               	bsf	3,5	;RP0=1, select bank1
  1524  066E  1303               	bcf	3,6	;RP1=0, select bank1
  1525  066F  0185               	clrf	5	;volatile
  1526                           
  1527                           ;E:/UVG/Semestre 5/Digital2/Proyecto1/Proyecto1.X/code.c: 161:     TRISB = 0;
  1528  0670  0186               	clrf	6	;volatile
  1529  0671                     l2228:
  1530                           
  1531                           ;E:/UVG/Semestre 5/Digital2/Proyecto1/Proyecto1.X/code.c: 162:     TRISC = 0b10010000;
  1532  0671  3090               	movlw	144
  1533  0672  0087               	movwf	7	;volatile
  1534  0673                     l2230:
  1535                           
  1536                           ;E:/UVG/Semestre 5/Digital2/Proyecto1/Proyecto1.X/code.c: 163:     TRISD = 0;
  1537  0673  0188               	clrf	8	;volatile
  1538  0674                     l2232:
  1539                           
  1540                           ;E:/UVG/Semestre 5/Digital2/Proyecto1/Proyecto1.X/code.c: 164:     TRISE = 0;
  1541  0674  0189               	clrf	9	;volatile
  1542  0675                     l2234:
  1543                           
  1544                           ;E:/UVG/Semestre 5/Digital2/Proyecto1/Proyecto1.X/code.c: 167:     INTCONbits.GIE = 1;
  1545  0675  178B               	bsf	11,7	;volatile
  1546  0676                     l2236:
  1547                           
  1548                           ;E:/UVG/Semestre 5/Digital2/Proyecto1/Proyecto1.X/code.c: 168:     INTCONbits.PEIE = 1;
  1549  0676  170B               	bsf	11,6	;volatile
  1550  0677                     l2238:
  1551                           
  1552                           ;E:/UVG/Semestre 5/Digital2/Proyecto1/Proyecto1.X/code.c: 169:     INTCONbits.T0IE = 1;
  1553  0677  168B               	bsf	11,5	;volatile
  1554  0678                     l2240:
  1555                           
  1556                           ;E:/UVG/Semestre 5/Digital2/Proyecto1/Proyecto1.X/code.c: 170:     INTCONbits.T0IF = 0;
  1557  0678  110B               	bcf	11,2	;volatile
  1558  0679                     l2242:
  1559                           
  1560                           ;E:/UVG/Semestre 5/Digital2/Proyecto1/Proyecto1.X/code.c: 171:     PIE1bits.TXIE = 1;
  1561  0679  160C               	bsf	12,4	;volatile
  1562  067A                     l2244:
  1563                           
  1564                           ;E:/UVG/Semestre 5/Digital2/Proyecto1/Proyecto1.X/code.c: 173:     initOsc(6);
  1565  067A  3006               	movlw	6
  1566  067B  120A  118A  24C2  120A  118A  	fcall	_initOsc
  1567  0680                     l2246:
  1568                           
  1569                           ;E:/UVG/Semestre 5/Digital2/Proyecto1/Proyecto1.X/code.c: 175:     Lcd_Init();
  1570  0680  120A  118A  2520  120A  118A  	fcall	_Lcd_Init
  1571  0685                     l2248:
  1572                           
  1573                           ;E:/UVG/Semestre 5/Digital2/Proyecto1/Proyecto1.X/code.c: 177:     initUART();
  1574  0685  120A  118A  27CA  120A  118A  	fcall	_initUART
  1575  068A                     l2250:
  1576                           
  1577                           ;E:/UVG/Semestre 5/Digital2/Proyecto1/Proyecto1.X/code.c: 179:     spiInit(SPI_MASTER_OS
      +                          C_DIV4, SPI_DATA_SAMPLE_MIDDLE, SPI_CLOCK_IDLE_LOW, SPI_IDLE_2_ACTIVE);
  1578  068A  1283               	bcf	3,5	;RP0=0, select bank0
  1579  068B  1303               	bcf	3,6	;RP1=0, select bank0
  1580  068C  01A0               	clrf	spiInit@sDataSample
  1581  068D  01A1               	clrf	spiInit@sClockIdle
  1582  068E  01A2               	clrf	spiInit@sTransmitEdge
  1583  068F  3020               	movlw	32
  1584  0690  120A  118A  2744  120A  118A  	fcall	_spiInit
  1585  0695                     l2252:
  1586                           
  1587                           ;E:/UVG/Semestre 5/Digital2/Proyecto1/Proyecto1.X/code.c: 181:     WDTCON = 0;
  1588  0695  1283               	bcf	3,5	;RP0=0, select bank2
  1589  0696  1703               	bsf	3,6	;RP1=1, select bank2
  1590  0697  0185               	clrf	5	;volatile
  1591  0698                     l2254:
  1592                           
  1593                           ;E:/UVG/Semestre 5/Digital2/Proyecto1/Proyecto1.X/code.c: 182:     OPTION_REG = 0b110101
      +                          11;
  1594  0698  30D7               	movlw	215
  1595  0699  1683               	bsf	3,5	;RP0=1, select bank1
  1596  069A  1303               	bcf	3,6	;RP1=0, select bank1
  1597  069B  0081               	movwf	1	;volatile
  1598  069C                     l142:
  1599  069C  0008               	return
  1600  069D                     __end_of_Setup:
  1601                           
  1602                           	psect	text5
  1603  0744                     __ptext5:	
  1604 ;; *************** function _spiInit *****************
  1605 ;; Defined at:
  1606 ;;		line 12 in file "E:/UVG/Semestre 5/Digital2/Proyecto1/Proyecto1.X/MSSP.c"
  1607 ;; Parameters:    Size  Location     Type
  1608 ;;  sType           1    wreg     enum E1292
  1609 ;;  sDataSample     1    0[BANK0 ] enum E1300
  1610 ;;  sClockIdle      1    1[BANK0 ] enum E1304
  1611 ;;  sTransmitEdg    1    2[BANK0 ] enum E1308
  1612 ;; Auto vars:     Size  Location     Type
  1613 ;;  sType           1    3[BANK0 ] enum E1292
  1614 ;; Return value:  Size  Location     Type
  1615 ;;                  1    wreg      void 
  1616 ;; Registers used:
  1617 ;;		wreg, status,2, status,0
  1618 ;; Tracked objects:
  1619 ;;		On entry : 0/0
  1620 ;;		On exit  : 0/0
  1621 ;;		Unchanged: 0/0
  1622 ;; Data sizes:     COMMON   BANK0   BANK1   BANK3   BANK2
  1623 ;;      Params:         0       3       0       0       0
  1624 ;;      Locals:         0       1       0       0       0
  1625 ;;      Temps:          0       0       0       0       0
  1626 ;;      Totals:         0       4       0       0       0
  1627 ;;Total ram usage:        4 bytes
  1628 ;; Hardware stack levels used:    1
  1629 ;; Hardware stack levels required when called:    3
  1630 ;; This function calls:
  1631 ;;		Nothing
  1632 ;; This function is called by:
  1633 ;;		_Setup
  1634 ;; This function uses a non-reentrant model
  1635 ;;
  1636                           
  1637                           
  1638                           ;psect for function _spiInit
  1639  0744                     _spiInit:
  1640                           
  1641                           ;incstack = 0
  1642                           ; Regs used in _spiInit: [wreg+status,2+status,0]
  1643                           ;spiInit@sType stored from wreg
  1644  0744  1283               	bcf	3,5	;RP0=0, select bank0
  1645  0745  1303               	bcf	3,6	;RP1=0, select bank0
  1646  0746  00A3               	movwf	spiInit@sType
  1647  0747                     l1912:
  1648                           
  1649                           ;E:/UVG/Semestre 5/Digital2/Proyecto1/Proyecto1.X/MSSP.c: 13:     TRISC5 = 0;
  1650  0747  1683               	bsf	3,5	;RP0=1, select bank1
  1651  0748  1303               	bcf	3,6	;RP1=0, select bank1
  1652  0749  1287               	bcf	7,5	;volatile
  1653                           
  1654                           ;E:/UVG/Semestre 5/Digital2/Proyecto1/Proyecto1.X/MSSP.c: 14:     if(sType & 0b00000100)
  1655  074A  1283               	bcf	3,5	;RP0=0, select bank0
  1656  074B  1303               	bcf	3,6	;RP1=0, select bank0
  1657  074C  1D23               	btfss	spiInit@sType,2
  1658  074D  2F4F               	goto	u491
  1659  074E  2F50               	goto	u490
  1660  074F                     u491:
  1661  074F  2F56               	goto	l1918
  1662  0750                     u490:
  1663  0750                     l1914:
  1664                           
  1665                           ;E:/UVG/Semestre 5/Digital2/Proyecto1/Proyecto1.X/MSSP.c: 15:     {;E:/UVG/Semestre 5/Di
      +                          gital2/Proyecto1/Proyecto1.X/MSSP.c: 16:         SSPSTAT = sTransmitEdge;
  1666  0750  0822               	movf	spiInit@sTransmitEdge,w
  1667  0751  1683               	bsf	3,5	;RP0=1, select bank1
  1668  0752  1303               	bcf	3,6	;RP1=0, select bank1
  1669  0753  0094               	movwf	20	;volatile
  1670  0754                     l1916:
  1671                           
  1672                           ;E:/UVG/Semestre 5/Digital2/Proyecto1/Proyecto1.X/MSSP.c: 17:         TRISC3 = 1;
  1673  0754  1587               	bsf	7,3	;volatile
  1674                           
  1675                           ;E:/UVG/Semestre 5/Digital2/Proyecto1/Proyecto1.X/MSSP.c: 18:     }
  1676  0755  2F5C               	goto	l192
  1677  0756                     l1918:
  1678                           
  1679                           ;E:/UVG/Semestre 5/Digital2/Proyecto1/Proyecto1.X/MSSP.c: 20:     {;E:/UVG/Semestre 5/Di
      +                          gital2/Proyecto1/Proyecto1.X/MSSP.c: 21:         SSPSTAT = sDataSample | sTransmitEdge;
  1680  0756  0820               	movf	spiInit@sDataSample,w
  1681  0757  0422               	iorwf	spiInit@sTransmitEdge,w
  1682  0758  1683               	bsf	3,5	;RP0=1, select bank1
  1683  0759  1303               	bcf	3,6	;RP1=0, select bank1
  1684  075A  0094               	movwf	20	;volatile
  1685  075B                     l1920:
  1686                           
  1687                           ;E:/UVG/Semestre 5/Digital2/Proyecto1/Proyecto1.X/MSSP.c: 22:         TRISC3 = 0;
  1688  075B  1187               	bcf	7,3	;volatile
  1689  075C                     l192:	
  1690                           ;E:/UVG/Semestre 5/Digital2/Proyecto1/Proyecto1.X/MSSP.c: 23:     }
  1691                           
  1692                           
  1693                           ;E:/UVG/Semestre 5/Digital2/Proyecto1/Proyecto1.X/MSSP.c: 25:     SSPCON = sType | sCloc
      +                          kIdle;
  1694  075C  1283               	bcf	3,5	;RP0=0, select bank0
  1695  075D  1303               	bcf	3,6	;RP1=0, select bank0
  1696  075E  0823               	movf	spiInit@sType,w
  1697  075F  0421               	iorwf	spiInit@sClockIdle,w
  1698  0760  0094               	movwf	20	;volatile
  1699  0761                     l193:
  1700  0761  0008               	return
  1701  0762                     __end_of_spiInit:
  1702                           
  1703                           	psect	text6
  1704  07CA                     __ptext6:	
  1705 ;; *************** function _initUART *****************
  1706 ;; Defined at:
  1707 ;;		line 6 in file "E:/UVG/Semestre 5/Digital2/Proyecto1/Proyecto1.X/USART.c"
  1708 ;; Parameters:    Size  Location     Type
  1709 ;;		None
  1710 ;; Auto vars:     Size  Location     Type
  1711 ;;		None
  1712 ;; Return value:  Size  Location     Type
  1713 ;;                  1    wreg      void 
  1714 ;; Registers used:
  1715 ;;		wreg, status,2
  1716 ;; Tracked objects:
  1717 ;;		On entry : 0/0
  1718 ;;		On exit  : 0/0
  1719 ;;		Unchanged: 0/0
  1720 ;; Data sizes:     COMMON   BANK0   BANK1   BANK3   BANK2
  1721 ;;      Params:         0       0       0       0       0
  1722 ;;      Locals:         0       0       0       0       0
  1723 ;;      Temps:          0       0       0       0       0
  1724 ;;      Totals:         0       0       0       0       0
  1725 ;;Total ram usage:        0 bytes
  1726 ;; Hardware stack levels used:    1
  1727 ;; Hardware stack levels required when called:    3
  1728 ;; This function calls:
  1729 ;;		Nothing
  1730 ;; This function is called by:
  1731 ;;		_Setup
  1732 ;; This function uses a non-reentrant model
  1733 ;;
  1734                           
  1735                           
  1736                           ;psect for function _initUART
  1737  07CA                     _initUART:
  1738  07CA                     l1898:	
  1739                           ;incstack = 0
  1740                           ; Regs used in _initUART: [wreg+status,2]
  1741                           
  1742                           
  1743                           ;E:/UVG/Semestre 5/Digital2/Proyecto1/Proyecto1.X/USART.c: 8:     TXSTAbits.TX9 = 0;
  1744  07CA  1683               	bsf	3,5	;RP0=1, select bank1
  1745  07CB  1303               	bcf	3,6	;RP1=0, select bank1
  1746  07CC  1318               	bcf	24,6	;volatile
  1747                           
  1748                           ;E:/UVG/Semestre 5/Digital2/Proyecto1/Proyecto1.X/USART.c: 9:     TXSTAbits.SYNC = 0;
  1749  07CD  1218               	bcf	24,4	;volatile
  1750                           
  1751                           ;E:/UVG/Semestre 5/Digital2/Proyecto1/Proyecto1.X/USART.c: 10:     TXSTAbits.BRGH = 1;
  1752  07CE  1518               	bsf	24,2	;volatile
  1753                           
  1754                           ;E:/UVG/Semestre 5/Digital2/Proyecto1/Proyecto1.X/USART.c: 11:     BAUDCTLbits.BRG16 = 0
      +                          ;
  1755  07CF  1683               	bsf	3,5	;RP0=1, select bank3
  1756  07D0  1703               	bsf	3,6	;RP1=1, select bank3
  1757  07D1  1187               	bcf	7,3	;volatile
  1758  07D2                     l1900:
  1759                           
  1760                           ;E:/UVG/Semestre 5/Digital2/Proyecto1/Proyecto1.X/USART.c: 12:     SPBRG = 25;
  1761  07D2  3019               	movlw	25
  1762  07D3  1683               	bsf	3,5	;RP0=1, select bank1
  1763  07D4  1303               	bcf	3,6	;RP1=0, select bank1
  1764  07D5  0099               	movwf	25	;volatile
  1765  07D6                     l1902:
  1766                           
  1767                           ;E:/UVG/Semestre 5/Digital2/Proyecto1/Proyecto1.X/USART.c: 13:     SPBRGH = 0;
  1768  07D6  019A               	clrf	26	;volatile
  1769  07D7                     l1904:
  1770                           
  1771                           ;E:/UVG/Semestre 5/Digital2/Proyecto1/Proyecto1.X/USART.c: 14:     TXSTAbits.TXEN = 1;
  1772  07D7  1698               	bsf	24,5	;volatile
  1773  07D8                     l1906:
  1774                           
  1775                           ;E:/UVG/Semestre 5/Digital2/Proyecto1/Proyecto1.X/USART.c: 17:     RCSTAbits.SPEN = 1;
  1776  07D8  1283               	bcf	3,5	;RP0=0, select bank0
  1777  07D9  1303               	bcf	3,6	;RP1=0, select bank0
  1778  07DA  1798               	bsf	24,7	;volatile
  1779  07DB                     l1908:
  1780                           
  1781                           ;E:/UVG/Semestre 5/Digital2/Proyecto1/Proyecto1.X/USART.c: 18:     RCSTAbits.RX9 = 0;
  1782  07DB  1318               	bcf	24,6	;volatile
  1783  07DC                     l1910:
  1784                           
  1785                           ;E:/UVG/Semestre 5/Digital2/Proyecto1/Proyecto1.X/USART.c: 19:     RCSTAbits.CREN = 1;
  1786  07DC  1618               	bsf	24,4	;volatile
  1787  07DD                     l277:
  1788  07DD  0008               	return
  1789  07DE                     __end_of_initUART:
  1790                           
  1791                           	psect	text7
  1792  04C2                     __ptext7:	
  1793 ;; *************** function _initOsc *****************
  1794 ;; Defined at:
  1795 ;;		line 6 in file "E:/UVG/Semestre 5/Digital2/Proyecto1/Proyecto1.X/Oscilador.c"
  1796 ;; Parameters:    Size  Location     Type
  1797 ;;  IRCF            1    wreg     unsigned char 
  1798 ;; Auto vars:     Size  Location     Type
  1799 ;;  IRCF            1    2[BANK0 ] unsigned char 
  1800 ;; Return value:  Size  Location     Type
  1801 ;;                  1    wreg      void 
  1802 ;; Registers used:
  1803 ;;		wreg, fsr0l, fsr0h, status,2, status,0
  1804 ;; Tracked objects:
  1805 ;;		On entry : 0/0
  1806 ;;		On exit  : 0/0
  1807 ;;		Unchanged: 0/0
  1808 ;; Data sizes:     COMMON   BANK0   BANK1   BANK3   BANK2
  1809 ;;      Params:         0       0       0       0       0
  1810 ;;      Locals:         0       1       0       0       0
  1811 ;;      Temps:          0       2       0       0       0
  1812 ;;      Totals:         0       3       0       0       0
  1813 ;;Total ram usage:        3 bytes
  1814 ;; Hardware stack levels used:    1
  1815 ;; Hardware stack levels required when called:    3
  1816 ;; This function calls:
  1817 ;;		Nothing
  1818 ;; This function is called by:
  1819 ;;		_Setup
  1820 ;; This function uses a non-reentrant model
  1821 ;;
  1822                           
  1823                           
  1824                           ;psect for function _initOsc
  1825  04C2                     _initOsc:
  1826                           
  1827                           ;incstack = 0
  1828                           ; Regs used in _initOsc: [wreg-fsr0h+status,2+status,0]
  1829                           ;initOsc@IRCF stored from wreg
  1830  04C2  1283               	bcf	3,5	;RP0=0, select bank0
  1831  04C3  1303               	bcf	3,6	;RP1=0, select bank0
  1832  04C4  00A2               	movwf	initOsc@IRCF
  1833  04C5                     l1864:
  1834                           
  1835                           ;E:/UVG/Semestre 5/Digital2/Proyecto1/Proyecto1.X/Oscilador.c: 8:     switch(IRCF){
  1836  04C5  2CFC               	goto	l1868
  1837  04C6                     l6:	
  1838                           ;E:/UVG/Semestre 5/Digital2/Proyecto1/Proyecto1.X/Oscilador.c: 9:         case 0:
  1839                           
  1840                           
  1841                           ;E:/UVG/Semestre 5/Digital2/Proyecto1/Proyecto1.X/Oscilador.c: 10:             OSCCONbit
      +                          s.IRCF2 = 0;
  1842  04C6  1683               	bsf	3,5	;RP0=1, select bank1
  1843  04C7  1303               	bcf	3,6	;RP1=0, select bank1
  1844  04C8  130F               	bcf	15,6	;volatile
  1845                           
  1846                           ;E:/UVG/Semestre 5/Digital2/Proyecto1/Proyecto1.X/Oscilador.c: 11:             OSCCONbit
      +                          s.IRCF1 = 0;
  1847  04C9  128F               	bcf	15,5	;volatile
  1848                           
  1849                           ;E:/UVG/Semestre 5/Digital2/Proyecto1/Proyecto1.X/Oscilador.c: 12:             OSCCONbit
      +                          s.IRCF0 = 0;
  1850  04CA  120F               	bcf	15,4	;volatile
  1851                           
  1852                           ;E:/UVG/Semestre 5/Digital2/Proyecto1/Proyecto1.X/Oscilador.c: 13:             break;
  1853  04CB  2D1E               	goto	l7
  1854  04CC                     l8:	
  1855                           ;E:/UVG/Semestre 5/Digital2/Proyecto1/Proyecto1.X/Oscilador.c: 14:         case 1:
  1856                           
  1857                           
  1858                           ;E:/UVG/Semestre 5/Digital2/Proyecto1/Proyecto1.X/Oscilador.c: 15:             OSCCONbit
      +                          s.IRCF2 = 0;
  1859  04CC  1683               	bsf	3,5	;RP0=1, select bank1
  1860  04CD  1303               	bcf	3,6	;RP1=0, select bank1
  1861  04CE  130F               	bcf	15,6	;volatile
  1862                           
  1863                           ;E:/UVG/Semestre 5/Digital2/Proyecto1/Proyecto1.X/Oscilador.c: 16:             OSCCONbit
      +                          s.IRCF1 = 0;
  1864  04CF  128F               	bcf	15,5	;volatile
  1865                           
  1866                           ;E:/UVG/Semestre 5/Digital2/Proyecto1/Proyecto1.X/Oscilador.c: 17:             OSCCONbit
      +                          s.IRCF0 = 1;
  1867  04D0  160F               	bsf	15,4	;volatile
  1868                           
  1869                           ;E:/UVG/Semestre 5/Digital2/Proyecto1/Proyecto1.X/Oscilador.c: 18:             break;
  1870  04D1  2D1E               	goto	l7
  1871  04D2                     l9:	
  1872                           ;E:/UVG/Semestre 5/Digital2/Proyecto1/Proyecto1.X/Oscilador.c: 19:         case 2:
  1873                           
  1874                           
  1875                           ;E:/UVG/Semestre 5/Digital2/Proyecto1/Proyecto1.X/Oscilador.c: 20:             OSCCONbit
      +                          s.IRCF2 = 0;
  1876  04D2  1683               	bsf	3,5	;RP0=1, select bank1
  1877  04D3  1303               	bcf	3,6	;RP1=0, select bank1
  1878  04D4  130F               	bcf	15,6	;volatile
  1879                           
  1880                           ;E:/UVG/Semestre 5/Digital2/Proyecto1/Proyecto1.X/Oscilador.c: 21:             OSCCONbit
      +                          s.IRCF1 = 1;
  1881  04D5  168F               	bsf	15,5	;volatile
  1882                           
  1883                           ;E:/UVG/Semestre 5/Digital2/Proyecto1/Proyecto1.X/Oscilador.c: 22:             OSCCONbit
      +                          s.IRCF0 = 0;
  1884  04D6  120F               	bcf	15,4	;volatile
  1885                           
  1886                           ;E:/UVG/Semestre 5/Digital2/Proyecto1/Proyecto1.X/Oscilador.c: 23:             break;
  1887  04D7  2D1E               	goto	l7
  1888  04D8                     l10:	
  1889                           ;E:/UVG/Semestre 5/Digital2/Proyecto1/Proyecto1.X/Oscilador.c: 24:         case 3:
  1890                           
  1891                           
  1892                           ;E:/UVG/Semestre 5/Digital2/Proyecto1/Proyecto1.X/Oscilador.c: 25:             OSCCONbit
      +                          s.IRCF2 = 0;
  1893  04D8  1683               	bsf	3,5	;RP0=1, select bank1
  1894  04D9  1303               	bcf	3,6	;RP1=0, select bank1
  1895  04DA  130F               	bcf	15,6	;volatile
  1896                           
  1897                           ;E:/UVG/Semestre 5/Digital2/Proyecto1/Proyecto1.X/Oscilador.c: 26:             OSCCONbit
      +                          s.IRCF1 = 1;
  1898  04DB  168F               	bsf	15,5	;volatile
  1899                           
  1900                           ;E:/UVG/Semestre 5/Digital2/Proyecto1/Proyecto1.X/Oscilador.c: 27:             OSCCONbit
      +                          s.IRCF0 = 1;
  1901  04DC  160F               	bsf	15,4	;volatile
  1902                           
  1903                           ;E:/UVG/Semestre 5/Digital2/Proyecto1/Proyecto1.X/Oscilador.c: 28:             break;
  1904  04DD  2D1E               	goto	l7
  1905  04DE                     l11:	
  1906                           ;E:/UVG/Semestre 5/Digital2/Proyecto1/Proyecto1.X/Oscilador.c: 29:         case 4:
  1907                           
  1908                           
  1909                           ;E:/UVG/Semestre 5/Digital2/Proyecto1/Proyecto1.X/Oscilador.c: 30:             OSCCONbit
      +                          s.IRCF2 = 1;
  1910  04DE  1683               	bsf	3,5	;RP0=1, select bank1
  1911  04DF  1303               	bcf	3,6	;RP1=0, select bank1
  1912  04E0  170F               	bsf	15,6	;volatile
  1913                           
  1914                           ;E:/UVG/Semestre 5/Digital2/Proyecto1/Proyecto1.X/Oscilador.c: 31:             OSCCONbit
      +                          s.IRCF1 = 0;
  1915  04E1  128F               	bcf	15,5	;volatile
  1916                           
  1917                           ;E:/UVG/Semestre 5/Digital2/Proyecto1/Proyecto1.X/Oscilador.c: 32:             OSCCONbit
      +                          s.IRCF0 = 0;
  1918  04E2  120F               	bcf	15,4	;volatile
  1919                           
  1920                           ;E:/UVG/Semestre 5/Digital2/Proyecto1/Proyecto1.X/Oscilador.c: 33:             break;
  1921  04E3  2D1E               	goto	l7
  1922  04E4                     l12:	
  1923                           ;E:/UVG/Semestre 5/Digital2/Proyecto1/Proyecto1.X/Oscilador.c: 34:         case 5:
  1924                           
  1925                           
  1926                           ;E:/UVG/Semestre 5/Digital2/Proyecto1/Proyecto1.X/Oscilador.c: 35:             OSCCONbit
      +                          s.IRCF2 = 1;
  1927  04E4  1683               	bsf	3,5	;RP0=1, select bank1
  1928  04E5  1303               	bcf	3,6	;RP1=0, select bank1
  1929  04E6  170F               	bsf	15,6	;volatile
  1930                           
  1931                           ;E:/UVG/Semestre 5/Digital2/Proyecto1/Proyecto1.X/Oscilador.c: 36:             OSCCONbit
      +                          s.IRCF1 = 0;
  1932  04E7  128F               	bcf	15,5	;volatile
  1933                           
  1934                           ;E:/UVG/Semestre 5/Digital2/Proyecto1/Proyecto1.X/Oscilador.c: 37:             OSCCONbit
      +                          s.IRCF0 = 1;
  1935  04E8  160F               	bsf	15,4	;volatile
  1936                           
  1937                           ;E:/UVG/Semestre 5/Digital2/Proyecto1/Proyecto1.X/Oscilador.c: 38:             break;
  1938  04E9  2D1E               	goto	l7
  1939  04EA                     l13:	
  1940                           ;E:/UVG/Semestre 5/Digital2/Proyecto1/Proyecto1.X/Oscilador.c: 39:         case 6:
  1941                           
  1942                           
  1943                           ;E:/UVG/Semestre 5/Digital2/Proyecto1/Proyecto1.X/Oscilador.c: 40:             OSCCONbit
      +                          s.IRCF2 = 1;
  1944  04EA  1683               	bsf	3,5	;RP0=1, select bank1
  1945  04EB  1303               	bcf	3,6	;RP1=0, select bank1
  1946  04EC  170F               	bsf	15,6	;volatile
  1947                           
  1948                           ;E:/UVG/Semestre 5/Digital2/Proyecto1/Proyecto1.X/Oscilador.c: 41:             OSCCONbit
      +                          s.IRCF1 = 1;
  1949  04ED  168F               	bsf	15,5	;volatile
  1950                           
  1951                           ;E:/UVG/Semestre 5/Digital2/Proyecto1/Proyecto1.X/Oscilador.c: 42:             OSCCONbit
      +                          s.IRCF0 = 0;
  1952  04EE  120F               	bcf	15,4	;volatile
  1953                           
  1954                           ;E:/UVG/Semestre 5/Digital2/Proyecto1/Proyecto1.X/Oscilador.c: 43:             break;
  1955  04EF  2D1E               	goto	l7
  1956  04F0                     l14:	
  1957                           ;E:/UVG/Semestre 5/Digital2/Proyecto1/Proyecto1.X/Oscilador.c: 44:         case 7:
  1958                           
  1959                           
  1960                           ;E:/UVG/Semestre 5/Digital2/Proyecto1/Proyecto1.X/Oscilador.c: 45:             OSCCONbit
      +                          s.IRCF2 = 1;
  1961  04F0  1683               	bsf	3,5	;RP0=1, select bank1
  1962  04F1  1303               	bcf	3,6	;RP1=0, select bank1
  1963  04F2  170F               	bsf	15,6	;volatile
  1964                           
  1965                           ;E:/UVG/Semestre 5/Digital2/Proyecto1/Proyecto1.X/Oscilador.c: 46:             OSCCONbit
      +                          s.IRCF1 = 1;
  1966  04F3  168F               	bsf	15,5	;volatile
  1967                           
  1968                           ;E:/UVG/Semestre 5/Digital2/Proyecto1/Proyecto1.X/Oscilador.c: 47:             OSCCONbit
      +                          s.IRCF0 = 1;
  1969  04F4  160F               	bsf	15,4	;volatile
  1970                           
  1971                           ;E:/UVG/Semestre 5/Digital2/Proyecto1/Proyecto1.X/Oscilador.c: 48:             break;
  1972  04F5  2D1E               	goto	l7
  1973  04F6                     l15:	
  1974                           ;E:/UVG/Semestre 5/Digital2/Proyecto1/Proyecto1.X/Oscilador.c: 49:         default:
  1975                           
  1976                           
  1977                           ;E:/UVG/Semestre 5/Digital2/Proyecto1/Proyecto1.X/Oscilador.c: 50:             OSCCONbit
      +                          s.IRCF2 = 1;
  1978  04F6  1683               	bsf	3,5	;RP0=1, select bank1
  1979  04F7  1303               	bcf	3,6	;RP1=0, select bank1
  1980  04F8  170F               	bsf	15,6	;volatile
  1981                           
  1982                           ;E:/UVG/Semestre 5/Digital2/Proyecto1/Proyecto1.X/Oscilador.c: 51:             OSCCONbit
      +                          s.IRCF1 = 1;
  1983  04F9  168F               	bsf	15,5	;volatile
  1984                           
  1985                           ;E:/UVG/Semestre 5/Digital2/Proyecto1/Proyecto1.X/Oscilador.c: 52:             OSCCONbit
      +                          s.IRCF0 = 0;
  1986  04FA  120F               	bcf	15,4	;volatile
  1987                           
  1988                           ;E:/UVG/Semestre 5/Digital2/Proyecto1/Proyecto1.X/Oscilador.c: 53:             break;
  1989  04FB  2D1E               	goto	l7
  1990  04FC                     l1868:
  1991  04FC  0822               	movf	initOsc@IRCF,w
  1992  04FD  00A0               	movwf	??_initOsc
  1993  04FE  01A1               	clrf	??_initOsc+1
  1994                           
  1995                           ; Switch on 2 bytes has been partitioned into a top level switch of size 1, and 1 sub-sw
      +                          itches
  1996                           ; Switch size 1, requested type "simple"
  1997                           ; Number of cases is 1, Range of values is 0 to 0
  1998                           ; switch strategies available:
  1999                           ; Name         Instructions Cycles
  2000                           ; simple_byte            4     3 (average)
  2001                           ; direct_byte           11     8 (fixed)
  2002                           ; jumptable            260     6 (fixed)
  2003                           ;	Chosen strategy is simple_byte
  2004  04FF  0821               	movf	??_initOsc+1,w
  2005  0500  3A00               	xorlw	0	; case 0
  2006  0501  1903               	skipnz
  2007  0502  2D04               	goto	l2522
  2008  0503  2CF6               	goto	l15
  2009  0504                     l2522:
  2010                           
  2011                           ; Switch size 1, requested type "simple"
  2012                           ; Number of cases is 8, Range of values is 0 to 7
  2013                           ; switch strategies available:
  2014                           ; Name         Instructions Cycles
  2015                           ; simple_byte           25    13 (average)
  2016                           ; direct_byte           32     8 (fixed)
  2017                           ; jumptable            260     6 (fixed)
  2018                           ;	Chosen strategy is simple_byte
  2019  0504  0820               	movf	??_initOsc,w
  2020  0505  3A00               	xorlw	0	; case 0
  2021  0506  1903               	skipnz
  2022  0507  2CC6               	goto	l6
  2023  0508  3A01               	xorlw	1	; case 1
  2024  0509  1903               	skipnz
  2025  050A  2CCC               	goto	l8
  2026  050B  3A03               	xorlw	3	; case 2
  2027  050C  1903               	skipnz
  2028  050D  2CD2               	goto	l9
  2029  050E  3A01               	xorlw	1	; case 3
  2030  050F  1903               	skipnz
  2031  0510  2CD8               	goto	l10
  2032  0511  3A07               	xorlw	7	; case 4
  2033  0512  1903               	skipnz
  2034  0513  2CDE               	goto	l11
  2035  0514  3A01               	xorlw	1	; case 5
  2036  0515  1903               	skipnz
  2037  0516  2CE4               	goto	l12
  2038  0517  3A03               	xorlw	3	; case 6
  2039  0518  1903               	skipnz
  2040  0519  2CEA               	goto	l13
  2041  051A  3A01               	xorlw	1	; case 7
  2042  051B  1903               	skipnz
  2043  051C  2CF0               	goto	l14
  2044  051D  2CF6               	goto	l15
  2045  051E                     l7:
  2046                           
  2047                           ;E:/UVG/Semestre 5/Digital2/Proyecto1/Proyecto1.X/Oscilador.c: 56:     OSCCONbits.SCS = 
      +                          1;
  2048  051E  140F               	bsf	15,0	;volatile
  2049  051F                     l16:
  2050  051F  0008               	return
  2051  0520                     __end_of_initOsc:
  2052                           
  2053                           	psect	text8
  2054  0520                     __ptext8:	
  2055 ;; *************** function _Lcd_Init *****************
  2056 ;; Defined at:
  2057 ;;		line 38 in file "E:/UVG/Semestre 5/Digital2/Proyecto1/Proyecto1.X/LCD.c"
  2058 ;; Parameters:    Size  Location     Type
  2059 ;;		None
  2060 ;; Auto vars:     Size  Location     Type
  2061 ;;		None
  2062 ;; Return value:  Size  Location     Type
  2063 ;;                  1    wreg      void 
  2064 ;; Registers used:
  2065 ;;		wreg, status,2, status,0, pclath, cstack
  2066 ;; Tracked objects:
  2067 ;;		On entry : 0/0
  2068 ;;		On exit  : 0/0
  2069 ;;		Unchanged: 0/0
  2070 ;; Data sizes:     COMMON   BANK0   BANK1   BANK3   BANK2
  2071 ;;      Params:         0       0       0       0       0
  2072 ;;      Locals:         0       0       0       0       0
  2073 ;;      Temps:          0       2       0       0       0
  2074 ;;      Totals:         0       2       0       0       0
  2075 ;;Total ram usage:        2 bytes
  2076 ;; Hardware stack levels used:    1
  2077 ;; Hardware stack levels required when called:    5
  2078 ;; This function calls:
  2079 ;;		_Lcd_Cmd
  2080 ;;		_Lcd_Port
  2081 ;; This function is called by:
  2082 ;;		_Setup
  2083 ;; This function uses a non-reentrant model
  2084 ;;
  2085                           
  2086                           
  2087                           ;psect for function _Lcd_Init
  2088  0520                     _Lcd_Init:
  2089  0520                     l1876:	
  2090                           ;incstack = 0
  2091                           ; Regs used in _Lcd_Init: [wreg+status,2+status,0+pclath+cstack]
  2092                           
  2093                           
  2094                           ;E:/UVG/Semestre 5/Digital2/Proyecto1/Proyecto1.X/LCD.c: 39:     _delay((unsigned long)(
      +                          (15)*(4000000/4000.0)));
  2095  0520  3014               	movlw	20
  2096  0521  1283               	bcf	3,5	;RP0=0, select bank0
  2097  0522  1303               	bcf	3,6	;RP1=0, select bank0
  2098  0523  00A5               	movwf	??_Lcd_Init+1
  2099  0524  3079               	movlw	121
  2100  0525  00A4               	movwf	??_Lcd_Init
  2101  0526                     u677:
  2102  0526  0BA4               	decfsz	??_Lcd_Init,f
  2103  0527  2D26               	goto	u677
  2104  0528  0BA5               	decfsz	??_Lcd_Init+1,f
  2105  0529  2D26               	goto	u677
  2106  052A                     l1878:
  2107                           
  2108                           ;E:/UVG/Semestre 5/Digital2/Proyecto1/Proyecto1.X/LCD.c: 40:     Lcd_Port(0x00);
  2109  052A  3000               	movlw	0
  2110  052B  120A  118A  27F4  120A  118A  	fcall	_Lcd_Port
  2111  0530                     l1880:
  2112                           
  2113                           ;E:/UVG/Semestre 5/Digital2/Proyecto1/Proyecto1.X/LCD.c: 41:     _delay((unsigned long)(
      +                          (20)*(4000000/4000.0)));
  2114  0530  301A               	movlw	26
  2115  0531  1283               	bcf	3,5	;RP0=0, select bank0
  2116  0532  1303               	bcf	3,6	;RP1=0, select bank0
  2117  0533  00A5               	movwf	??_Lcd_Init+1
  2118  0534  30F7               	movlw	247
  2119  0535  00A4               	movwf	??_Lcd_Init
  2120  0536                     u687:
  2121  0536  0BA4               	decfsz	??_Lcd_Init,f
  2122  0537  2D36               	goto	u687
  2123  0538  0BA5               	decfsz	??_Lcd_Init+1,f
  2124  0539  2D36               	goto	u687
  2125  053A  2D3B               	nop2
  2126                           
  2127                           ;E:/UVG/Semestre 5/Digital2/Proyecto1/Proyecto1.X/LCD.c: 42:     Lcd_Cmd(0x30);
  2128  053B  3030               	movlw	48
  2129  053C  120A  118A  2780  120A  118A  	fcall	_Lcd_Cmd
  2130  0541                     l1882:
  2131                           
  2132                           ;E:/UVG/Semestre 5/Digital2/Proyecto1/Proyecto1.X/LCD.c: 43:     _delay((unsigned long)(
      +                          (5)*(4000000/4000.0)));
  2133  0541  3007               	movlw	7
  2134  0542  1283               	bcf	3,5	;RP0=0, select bank0
  2135  0543  1303               	bcf	3,6	;RP1=0, select bank0
  2136  0544  00A5               	movwf	??_Lcd_Init+1
  2137  0545  307C               	movlw	124
  2138  0546  00A4               	movwf	??_Lcd_Init
  2139  0547                     u697:
  2140  0547  0BA4               	decfsz	??_Lcd_Init,f
  2141  0548  2D47               	goto	u697
  2142  0549  0BA5               	decfsz	??_Lcd_Init+1,f
  2143  054A  2D47               	goto	u697
  2144  054B  0000               	nop
  2145  054C                     l1884:
  2146                           
  2147                           ;E:/UVG/Semestre 5/Digital2/Proyecto1/Proyecto1.X/LCD.c: 44:     Lcd_Cmd(0x30);
  2148  054C  3030               	movlw	48
  2149  054D  120A  118A  2780  120A  118A  	fcall	_Lcd_Cmd
  2150                           
  2151                           ;E:/UVG/Semestre 5/Digital2/Proyecto1/Proyecto1.X/LCD.c: 45:     _delay((unsigned long)(
      +                          (160)*(4000000/4000000.0)));
  2152  0552  3034               	movlw	52
  2153  0553  1283               	bcf	3,5	;RP0=0, select bank0
  2154  0554  1303               	bcf	3,6	;RP1=0, select bank0
  2155  0555  00A4               	movwf	??_Lcd_Init
  2156  0556                     u707:
  2157  0556  0BA4               	decfsz	??_Lcd_Init,f
  2158  0557  2D56               	goto	u707
  2159  0558  0000               	nop
  2160  0559                     l1886:
  2161                           
  2162                           ;E:/UVG/Semestre 5/Digital2/Proyecto1/Proyecto1.X/LCD.c: 46:     Lcd_Cmd(0x30);
  2163  0559  3030               	movlw	48
  2164  055A  120A  118A  2780  120A  118A  	fcall	_Lcd_Cmd
  2165  055F                     l1888:
  2166                           
  2167                           ;E:/UVG/Semestre 5/Digital2/Proyecto1/Proyecto1.X/LCD.c: 48:     Lcd_Cmd(0x38);
  2168  055F  3038               	movlw	56
  2169  0560  120A  118A  2780  120A  118A  	fcall	_Lcd_Cmd
  2170  0565                     l1890:
  2171                           
  2172                           ;E:/UVG/Semestre 5/Digital2/Proyecto1/Proyecto1.X/LCD.c: 49:     Lcd_Cmd(0x10);
  2173  0565  3010               	movlw	16
  2174  0566  120A  118A  2780  120A  118A  	fcall	_Lcd_Cmd
  2175  056B                     l1892:
  2176                           
  2177                           ;E:/UVG/Semestre 5/Digital2/Proyecto1/Proyecto1.X/LCD.c: 50:     Lcd_Cmd(0x01);
  2178  056B  3001               	movlw	1
  2179  056C  120A  118A  2780  120A  118A  	fcall	_Lcd_Cmd
  2180  0571                     l1894:
  2181                           
  2182                           ;E:/UVG/Semestre 5/Digital2/Proyecto1/Proyecto1.X/LCD.c: 51:     Lcd_Cmd(0x06);
  2183  0571  3006               	movlw	6
  2184  0572  120A  118A  2780  120A  118A  	fcall	_Lcd_Cmd
  2185  0577                     l1896:
  2186                           
  2187                           ;E:/UVG/Semestre 5/Digital2/Proyecto1/Proyecto1.X/LCD.c: 53:     Lcd_Cmd(0x0C);
  2188  0577  300C               	movlw	12
  2189  0578  120A  118A  2780  120A  118A  	fcall	_Lcd_Cmd
  2190  057D                     l234:
  2191  057D  0008               	return
  2192  057E                     __end_of_Lcd_Init:
  2193                           
  2194                           	psect	text9
  2195  03E9                     __ptext9:	
  2196 ;; *************** function _Mappin_Temperature *****************
  2197 ;; Defined at:
  2198 ;;		line 305 in file "E:/UVG/Semestre 5/Digital2/Proyecto1/Proyecto1.X/code.c"
  2199 ;; Parameters:    Size  Location     Type
  2200 ;;		None
  2201 ;; Auto vars:     Size  Location     Type
  2202 ;;		None
  2203 ;; Return value:  Size  Location     Type
  2204 ;;                  1    wreg      void 
  2205 ;; Registers used:
  2206 ;;		wreg, fsr0l, fsr0h, status,2, status,0, pclath, cstack
  2207 ;; Tracked objects:
  2208 ;;		On entry : 0/0
  2209 ;;		On exit  : 0/0
  2210 ;;		Unchanged: 0/0
  2211 ;; Data sizes:     COMMON   BANK0   BANK1   BANK3   BANK2
  2212 ;;      Params:         0       0       0       0       0
  2213 ;;      Locals:         0       0       0       0       0
  2214 ;;      Temps:          0       2       0       0       0
  2215 ;;      Totals:         0       2       0       0       0
  2216 ;;Total ram usage:        2 bytes
  2217 ;; Hardware stack levels used:    1
  2218 ;; Hardware stack levels required when called:    7
  2219 ;; This function calls:
  2220 ;;		_Envio_Temperatura
  2221 ;;		_Lcd_Set_Cursor
  2222 ;;		_Lcd_Write_String
  2223 ;;		___awdiv
  2224 ;;		___wmul
  2225 ;; This function is called by:
  2226 ;;		_main
  2227 ;; This function uses a non-reentrant model
  2228 ;;
  2229                           
  2230                           
  2231                           ;psect for function _Mappin_Temperature
  2232  03E9                     _Mappin_Temperature:
  2233  03E9                     l2310:	
  2234                           ;incstack = 0
  2235                           ; Regs used in _Mappin_Temperature: [wreg-fsr0h+status,2+status,0+pclath+cstack]
  2236                           
  2237                           
  2238                           ;E:/UVG/Semestre 5/Digital2/Proyecto1/Proyecto1.X/code.c: 306:     PRUEBA = ((TEMPERATUR
      +                          A*205)/128)-55;
  2239  03E9  3080               	movlw	128
  2240  03EA  1283               	bcf	3,5	;RP0=0, select bank0
  2241  03EB  1303               	bcf	3,6	;RP1=0, select bank0
  2242  03EC  00A6               	movwf	___awdiv@divisor
  2243  03ED  3000               	movlw	0
  2244  03EE  00A7               	movwf	___awdiv@divisor+1
  2245  03EF  083D               	movf	_TEMPERATURA,w
  2246  03F0  00B3               	movwf	??_Mappin_Temperature
  2247  03F1  01B4               	clrf	??_Mappin_Temperature+1
  2248  03F2  0833               	movf	??_Mappin_Temperature,w
  2249  03F3  00A0               	movwf	___wmul@multiplier
  2250  03F4  0834               	movf	??_Mappin_Temperature+1,w
  2251  03F5  00A1               	movwf	___wmul@multiplier+1
  2252  03F6  30CD               	movlw	205
  2253  03F7  00A2               	movwf	___wmul@multiplicand
  2254  03F8  3000               	movlw	0
  2255  03F9  00A3               	movwf	___wmul@multiplicand+1
  2256  03FA  120A  118A  271D  120A  118A  	fcall	___wmul
  2257  03FF  1283               	bcf	3,5	;RP0=0, select bank0
  2258  0400  1303               	bcf	3,6	;RP1=0, select bank0
  2259  0401  0821               	movf	?___wmul+1,w
  2260  0402  00A9               	movwf	___awdiv@dividend+1
  2261  0403  0820               	movf	?___wmul,w
  2262  0404  00A8               	movwf	___awdiv@dividend
  2263  0405  120A  118A  2459  120A  118A  	fcall	___awdiv
  2264  040A  1283               	bcf	3,5	;RP0=0, select bank0
  2265  040B  1303               	bcf	3,6	;RP1=0, select bank0
  2266  040C  0826               	movf	?___awdiv,w
  2267  040D  3EC9               	addlw	201
  2268  040E  00C2               	movwf	_PRUEBA
  2269  040F  0827               	movf	?___awdiv+1,w
  2270  0410  1803               	skipnc
  2271  0411  3E01               	addlw	1
  2272  0412  3EFF               	addlw	255
  2273  0413  00C3               	movwf	_PRUEBA+1
  2274  0414                     l2312:
  2275                           
  2276                           ;E:/UVG/Semestre 5/Digital2/Proyecto1/Proyecto1.X/code.c: 307:     if (PRUEBA < 0){
  2277  0414  1FC3               	btfss	_PRUEBA+1,7
  2278  0415  2C17               	goto	u631
  2279  0416  2C18               	goto	u630
  2280  0417                     u631:
  2281  0417  2C39               	goto	l2324
  2282  0418                     u630:
  2283  0418                     l2314:
  2284                           
  2285                           ;E:/UVG/Semestre 5/Digital2/Proyecto1/Proyecto1.X/code.c: 308:         TEMPERATURA_FINAL
      +                           = PRUEBA*(-1);
  2286  0418  0342               	decf	_PRUEBA,w
  2287  0419  3AFF               	xorlw	255
  2288  041A  00B3               	movwf	??_Mappin_Temperature
  2289  041B  0833               	movf	??_Mappin_Temperature,w
  2290  041C  00BC               	movwf	_TEMPERATURA_FINAL
  2291  041D                     l2316:
  2292                           
  2293                           ;E:/UVG/Semestre 5/Digital2/Proyecto1/Proyecto1.X/code.c: 309:         Lcd_Set_Cursor(2,
      +                          12);
  2294  041D  300C               	movlw	12
  2295  041E  00B3               	movwf	??_Mappin_Temperature
  2296  041F  0833               	movf	??_Mappin_Temperature,w
  2297  0420  00A4               	movwf	Lcd_Set_Cursor@b
  2298  0421  3002               	movlw	2
  2299  0422  120A  118A  2762  120A  118A  	fcall	_Lcd_Set_Cursor
  2300  0427                     l2318:
  2301                           
  2302                           ;E:/UVG/Semestre 5/Digital2/Proyecto1/Proyecto1.X/code.c: 310:         Lcd_Write_String(
      +                          "-");
  2303  0427  3025               	movlw	(low ((STR_5-__stringbase)| (0+32768)))& (0+255)
  2304  0428  120A  118A  26CB  120A  118A  	fcall	_Lcd_Write_String
  2305  042D                     l2320:
  2306                           
  2307                           ;E:/UVG/Semestre 5/Digital2/Proyecto1/Proyecto1.X/code.c: 311:         Envio_Temperatura
      +                          ();
  2308  042D  120A  118A  2343  120A  118A  	fcall	_Envio_Temperatura
  2309  0432                     l2322:
  2310                           
  2311                           ;E:/UVG/Semestre 5/Digital2/Proyecto1/Proyecto1.X/code.c: 312:         SIGNO = 45;
  2312  0432  302D               	movlw	45
  2313  0433  1283               	bcf	3,5	;RP0=0, select bank0
  2314  0434  1303               	bcf	3,6	;RP1=0, select bank0
  2315  0435  00B3               	movwf	??_Mappin_Temperature
  2316  0436  0833               	movf	??_Mappin_Temperature,w
  2317  0437  00B8               	movwf	_SIGNO
  2318                           
  2319                           ;E:/UVG/Semestre 5/Digital2/Proyecto1/Proyecto1.X/code.c: 313:     }
  2320  0438  2C58               	goto	l173
  2321  0439                     l2324:
  2322                           
  2323                           ;E:/UVG/Semestre 5/Digital2/Proyecto1/Proyecto1.X/code.c: 315:         TEMPERATURA_FINAL
      +                           = PRUEBA;
  2324  0439  0842               	movf	_PRUEBA,w
  2325  043A  00B3               	movwf	??_Mappin_Temperature
  2326  043B  0833               	movf	??_Mappin_Temperature,w
  2327  043C  00BC               	movwf	_TEMPERATURA_FINAL
  2328  043D                     l2326:
  2329                           
  2330                           ;E:/UVG/Semestre 5/Digital2/Proyecto1/Proyecto1.X/code.c: 316:         Lcd_Set_Cursor(2,
      +                          12);
  2331  043D  300C               	movlw	12
  2332  043E  00B3               	movwf	??_Mappin_Temperature
  2333  043F  0833               	movf	??_Mappin_Temperature,w
  2334  0440  00A4               	movwf	Lcd_Set_Cursor@b
  2335  0441  3002               	movlw	2
  2336  0442  120A  118A  2762  120A  118A  	fcall	_Lcd_Set_Cursor
  2337  0447                     l2328:
  2338                           
  2339                           ;E:/UVG/Semestre 5/Digital2/Proyecto1/Proyecto1.X/code.c: 317:         Lcd_Write_String(
      +                          "+");
  2340  0447  3023               	movlw	(low ((STR_6-__stringbase)| (0+32768)))& (0+255)
  2341  0448  120A  118A  26CB  120A  118A  	fcall	_Lcd_Write_String
  2342  044D                     l2330:
  2343                           
  2344                           ;E:/UVG/Semestre 5/Digital2/Proyecto1/Proyecto1.X/code.c: 318:         Envio_Temperatura
      +                          ();
  2345  044D  120A  118A  2343  120A  118A  	fcall	_Envio_Temperatura
  2346  0452                     l2332:
  2347                           
  2348                           ;E:/UVG/Semestre 5/Digital2/Proyecto1/Proyecto1.X/code.c: 319:         SIGNO = 43;
  2349  0452  302B               	movlw	43
  2350  0453  1283               	bcf	3,5	;RP0=0, select bank0
  2351  0454  1303               	bcf	3,6	;RP1=0, select bank0
  2352  0455  00B3               	movwf	??_Mappin_Temperature
  2353  0456  0833               	movf	??_Mappin_Temperature,w
  2354  0457  00B8               	movwf	_SIGNO
  2355  0458                     l173:
  2356  0458  0008               	return
  2357  0459                     __end_of_Mappin_Temperature:
  2358                           
  2359                           	psect	text10
  2360  0343                     __ptext10:	
  2361 ;; *************** function _Envio_Temperatura *****************
  2362 ;; Defined at:
  2363 ;;		line 323 in file "E:/UVG/Semestre 5/Digital2/Proyecto1/Proyecto1.X/code.c"
  2364 ;; Parameters:    Size  Location     Type
  2365 ;;		None
  2366 ;; Auto vars:     Size  Location     Type
  2367 ;;  temporal        1   18[BANK0 ] unsigned char 
  2368 ;; Return value:  Size  Location     Type
  2369 ;;                  1    wreg      void 
  2370 ;; Registers used:
  2371 ;;		wreg, fsr0l, fsr0h, status,2, status,0, pclath, cstack
  2372 ;; Tracked objects:
  2373 ;;		On entry : 0/0
  2374 ;;		On exit  : 0/0
  2375 ;;		Unchanged: 0/0
  2376 ;; Data sizes:     COMMON   BANK0   BANK1   BANK3   BANK2
  2377 ;;      Params:         0       0       0       0       0
  2378 ;;      Locals:         0       1       0       0       0
  2379 ;;      Temps:          0       3       0       0       0
  2380 ;;      Totals:         0       4       0       0       0
  2381 ;;Total ram usage:        4 bytes
  2382 ;; Hardware stack levels used:    1
  2383 ;; Hardware stack levels required when called:    6
  2384 ;; This function calls:
  2385 ;;		_Cambio
  2386 ;;		_Lcd_Set_Cursor
  2387 ;;		_Lcd_Write_String
  2388 ;;		___awdiv
  2389 ;;		___bmul
  2390 ;; This function is called by:
  2391 ;;		_Mappin_Temperature
  2392 ;; This function uses a non-reentrant model
  2393 ;;
  2394                           
  2395                           
  2396                           ;psect for function _Envio_Temperatura
  2397  0343                     _Envio_Temperatura:
  2398  0343                     l2028:	
  2399                           ;incstack = 0
  2400                           ; Regs used in _Envio_Temperatura: [wreg-fsr0h+status,2+status,0+pclath+cstack]
  2401                           
  2402                           
  2403                           ;E:/UVG/Semestre 5/Digital2/Proyecto1/Proyecto1.X/code.c: 324:     uint8_t temporal;;E:/
      +                          UVG/Semestre 5/Digital2/Proyecto1/Proyecto1.X/code.c: 325:     temporal = TEMPERATURA_FI
      +                          NAL;
  2404  0343  1283               	bcf	3,5	;RP0=0, select bank0
  2405  0344  1303               	bcf	3,6	;RP1=0, select bank0
  2406  0345  083C               	movf	_TEMPERATURA_FINAL,w
  2407  0346  00AF               	movwf	??_Envio_Temperatura
  2408  0347  082F               	movf	??_Envio_Temperatura,w
  2409  0348  00B2               	movwf	Envio_Temperatura@temporal
  2410  0349                     l2030:
  2411                           
  2412                           ;E:/UVG/Semestre 5/Digital2/Proyecto1/Proyecto1.X/code.c: 327:     unidades_temp = tempo
      +                          ral/100;
  2413  0349  3064               	movlw	100
  2414  034A  00A6               	movwf	___awdiv@divisor
  2415  034B  3000               	movlw	0
  2416  034C  00A7               	movwf	___awdiv@divisor+1
  2417  034D  0832               	movf	Envio_Temperatura@temporal,w
  2418  034E  00AF               	movwf	??_Envio_Temperatura
  2419  034F  01B0               	clrf	??_Envio_Temperatura+1
  2420  0350  082F               	movf	??_Envio_Temperatura,w
  2421  0351  00A8               	movwf	___awdiv@dividend
  2422  0352  0830               	movf	??_Envio_Temperatura+1,w
  2423  0353  00A9               	movwf	___awdiv@dividend+1
  2424  0354  120A  118A  2459  120A  118A  	fcall	___awdiv
  2425  0359  1283               	bcf	3,5	;RP0=0, select bank0
  2426  035A  1303               	bcf	3,6	;RP1=0, select bank0
  2427  035B  0826               	movf	?___awdiv,w
  2428  035C  00B1               	movwf	??_Envio_Temperatura+2
  2429  035D  0831               	movf	??_Envio_Temperatura+2,w
  2430  035E  00FC               	movwf	_unidades_temp
  2431  035F                     l2032:
  2432                           
  2433                           ;E:/UVG/Semestre 5/Digital2/Proyecto1/Proyecto1.X/code.c: 328:     temporal = temporal -
      +                           100*unidades_temp;
  2434  035F  309C               	movlw	156
  2435  0360  00AF               	movwf	??_Envio_Temperatura
  2436  0361  082F               	movf	??_Envio_Temperatura,w
  2437  0362  00A0               	movwf	___bmul@multiplicand
  2438  0363  087C               	movf	_unidades_temp,w
  2439  0364  120A  118A  27B3  120A  118A  	fcall	___bmul
  2440  0369  1283               	bcf	3,5	;RP0=0, select bank0
  2441  036A  1303               	bcf	3,6	;RP1=0, select bank0
  2442  036B  0732               	addwf	Envio_Temperatura@temporal,w
  2443  036C  00B0               	movwf	??_Envio_Temperatura+1
  2444  036D  0830               	movf	??_Envio_Temperatura+1,w
  2445  036E  00B2               	movwf	Envio_Temperatura@temporal
  2446  036F                     l2034:
  2447                           
  2448                           ;E:/UVG/Semestre 5/Digital2/Proyecto1/Proyecto1.X/code.c: 330:     decimas_temp = tempor
      +                          al/10;
  2449  036F  300A               	movlw	10
  2450  0370  00A6               	movwf	___awdiv@divisor
  2451  0371  3000               	movlw	0
  2452  0372  00A7               	movwf	___awdiv@divisor+1
  2453  0373  0832               	movf	Envio_Temperatura@temporal,w
  2454  0374  00AF               	movwf	??_Envio_Temperatura
  2455  0375  01B0               	clrf	??_Envio_Temperatura+1
  2456  0376  082F               	movf	??_Envio_Temperatura,w
  2457  0377  00A8               	movwf	___awdiv@dividend
  2458  0378  0830               	movf	??_Envio_Temperatura+1,w
  2459  0379  00A9               	movwf	___awdiv@dividend+1
  2460  037A  120A  118A  2459  120A  118A  	fcall	___awdiv
  2461  037F  1283               	bcf	3,5	;RP0=0, select bank0
  2462  0380  1303               	bcf	3,6	;RP1=0, select bank0
  2463  0381  0826               	movf	?___awdiv,w
  2464  0382  00B1               	movwf	??_Envio_Temperatura+2
  2465  0383  0831               	movf	??_Envio_Temperatura+2,w
  2466  0384  00FB               	movwf	_decimas_temp
  2467  0385                     l2036:
  2468                           
  2469                           ;E:/UVG/Semestre 5/Digital2/Proyecto1/Proyecto1.X/code.c: 331:     temporal = temporal -
      +                           10*decimas_temp;
  2470  0385  30F6               	movlw	246
  2471  0386  00AF               	movwf	??_Envio_Temperatura
  2472  0387  082F               	movf	??_Envio_Temperatura,w
  2473  0388  00A0               	movwf	___bmul@multiplicand
  2474  0389  087B               	movf	_decimas_temp,w
  2475  038A  120A  118A  27B3  120A  118A  	fcall	___bmul
  2476  038F  1283               	bcf	3,5	;RP0=0, select bank0
  2477  0390  1303               	bcf	3,6	;RP1=0, select bank0
  2478  0391  0732               	addwf	Envio_Temperatura@temporal,w
  2479  0392  00B0               	movwf	??_Envio_Temperatura+1
  2480  0393  0830               	movf	??_Envio_Temperatura+1,w
  2481  0394  00B2               	movwf	Envio_Temperatura@temporal
  2482                           
  2483                           ;E:/UVG/Semestre 5/Digital2/Proyecto1/Proyecto1.X/code.c: 333:     centimas_temp = tempo
      +                          ral;
  2484  0395  0832               	movf	Envio_Temperatura@temporal,w
  2485  0396  00AF               	movwf	??_Envio_Temperatura
  2486  0397  082F               	movf	??_Envio_Temperatura,w
  2487  0398  00FA               	movwf	_centimas_temp
  2488  0399                     l2038:
  2489                           
  2490                           ;E:/UVG/Semestre 5/Digital2/Proyecto1/Proyecto1.X/code.c: 335:     Lcd_Set_Cursor(2,13);
  2491  0399  300D               	movlw	13
  2492  039A  00AF               	movwf	??_Envio_Temperatura
  2493  039B  082F               	movf	??_Envio_Temperatura,w
  2494  039C  00A4               	movwf	Lcd_Set_Cursor@b
  2495  039D  3002               	movlw	2
  2496  039E  120A  118A  2762  120A  118A  	fcall	_Lcd_Set_Cursor
  2497  03A3                     l2040:
  2498                           
  2499                           ;E:/UVG/Semestre 5/Digital2/Proyecto1/Proyecto1.X/code.c: 336:     Lcd_Write_String(Camb
      +                          io(unidades_temp));
  2500  03A3  087C               	movf	_unidades_temp,w
  2501  03A4  120A  118A  2621  120A  118A  	fcall	_Cambio
  2502  03A9  120A  118A  26CB  120A  118A  	fcall	_Lcd_Write_String
  2503  03AE                     l2042:
  2504                           
  2505                           ;E:/UVG/Semestre 5/Digital2/Proyecto1/Proyecto1.X/code.c: 337:     Lcd_Set_Cursor(2,14);
  2506  03AE  300E               	movlw	14
  2507  03AF  1283               	bcf	3,5	;RP0=0, select bank0
  2508  03B0  1303               	bcf	3,6	;RP1=0, select bank0
  2509  03B1  00AF               	movwf	??_Envio_Temperatura
  2510  03B2  082F               	movf	??_Envio_Temperatura,w
  2511  03B3  00A4               	movwf	Lcd_Set_Cursor@b
  2512  03B4  3002               	movlw	2
  2513  03B5  120A  118A  2762  120A  118A  	fcall	_Lcd_Set_Cursor
  2514  03BA                     l2044:
  2515                           
  2516                           ;E:/UVG/Semestre 5/Digital2/Proyecto1/Proyecto1.X/code.c: 338:     Lcd_Write_String(Camb
      +                          io(decimas_temp));
  2517  03BA  087B               	movf	_decimas_temp,w
  2518  03BB  120A  118A  2621  120A  118A  	fcall	_Cambio
  2519  03C0  120A  118A  26CB  120A  118A  	fcall	_Lcd_Write_String
  2520  03C5                     l2046:
  2521                           
  2522                           ;E:/UVG/Semestre 5/Digital2/Proyecto1/Proyecto1.X/code.c: 339:     Lcd_Set_Cursor(2,15);
  2523  03C5  300F               	movlw	15
  2524  03C6  1283               	bcf	3,5	;RP0=0, select bank0
  2525  03C7  1303               	bcf	3,6	;RP1=0, select bank0
  2526  03C8  00AF               	movwf	??_Envio_Temperatura
  2527  03C9  082F               	movf	??_Envio_Temperatura,w
  2528  03CA  00A4               	movwf	Lcd_Set_Cursor@b
  2529  03CB  3002               	movlw	2
  2530  03CC  120A  118A  2762  120A  118A  	fcall	_Lcd_Set_Cursor
  2531  03D1                     l2048:
  2532                           
  2533                           ;E:/UVG/Semestre 5/Digital2/Proyecto1/Proyecto1.X/code.c: 340:     Lcd_Write_String(Camb
      +                          io(centimas_temp));
  2534  03D1  087A               	movf	_centimas_temp,w
  2535  03D2  120A  118A  2621  120A  118A  	fcall	_Cambio
  2536  03D7  120A  118A  26CB  120A  118A  	fcall	_Lcd_Write_String
  2537  03DC                     l2050:
  2538                           
  2539                           ;E:/UVG/Semestre 5/Digital2/Proyecto1/Proyecto1.X/code.c: 341:     Lcd_Set_Cursor(2,16);
  2540  03DC  3010               	movlw	16
  2541  03DD  1283               	bcf	3,5	;RP0=0, select bank0
  2542  03DE  1303               	bcf	3,6	;RP1=0, select bank0
  2543  03DF  00AF               	movwf	??_Envio_Temperatura
  2544  03E0  082F               	movf	??_Envio_Temperatura,w
  2545  03E1  00A4               	movwf	Lcd_Set_Cursor@b
  2546  03E2  3002               	movlw	2
  2547  03E3  120A  118A  2762  120A  118A  	fcall	_Lcd_Set_Cursor
  2548  03E8                     l176:
  2549  03E8  0008               	return
  2550  03E9                     __end_of_Envio_Temperatura:
  2551                           
  2552                           	psect	text11
  2553  0297                     __ptext11:	
  2554 ;; *************** function _Envio_Contador *****************
  2555 ;; Defined at:
  2556 ;;		line 281 in file "E:/UVG/Semestre 5/Digital2/Proyecto1/Proyecto1.X/code.c"
  2557 ;; Parameters:    Size  Location     Type
  2558 ;;		None
  2559 ;; Auto vars:     Size  Location     Type
  2560 ;;  temporal        1   21[BANK0 ] unsigned char 
  2561 ;;  decimas         1   20[BANK0 ] unsigned char 
  2562 ;;  unidades        1   19[BANK0 ] unsigned char 
  2563 ;;  centimas        1   18[BANK0 ] unsigned char 
  2564 ;; Return value:  Size  Location     Type
  2565 ;;                  1    wreg      void 
  2566 ;; Registers used:
  2567 ;;		wreg, fsr0l, fsr0h, status,2, status,0, pclath, cstack
  2568 ;; Tracked objects:
  2569 ;;		On entry : 0/0
  2570 ;;		On exit  : 0/0
  2571 ;;		Unchanged: 0/0
  2572 ;; Data sizes:     COMMON   BANK0   BANK1   BANK3   BANK2
  2573 ;;      Params:         0       0       0       0       0
  2574 ;;      Locals:         0       4       0       0       0
  2575 ;;      Temps:          0       3       0       0       0
  2576 ;;      Totals:         0       7       0       0       0
  2577 ;;Total ram usage:        7 bytes
  2578 ;; Hardware stack levels used:    1
  2579 ;; Hardware stack levels required when called:    6
  2580 ;; This function calls:
  2581 ;;		_Cambio
  2582 ;;		_Lcd_Set_Cursor
  2583 ;;		_Lcd_Write_String
  2584 ;;		___awdiv
  2585 ;;		___bmul
  2586 ;; This function is called by:
  2587 ;;		_main
  2588 ;; This function uses a non-reentrant model
  2589 ;;
  2590                           
  2591                           
  2592                           ;psect for function _Envio_Contador
  2593  0297                     _Envio_Contador:
  2594  0297                     l2286:	
  2595                           ;incstack = 0
  2596                           ; Regs used in _Envio_Contador: [wreg-fsr0h+status,2+status,0+pclath+cstack]
  2597                           
  2598                           
  2599                           ;E:/UVG/Semestre 5/Digital2/Proyecto1/Proyecto1.X/code.c: 282:     uint8_t temporal;;E:/
      +                          UVG/Semestre 5/Digital2/Proyecto1/Proyecto1.X/code.c: 283:     uint8_t unidades;;E:/UVG/
      +                          Semestre 5/Digital2/Proyecto1/Proyecto1.X/code.c: 284:     uint8_t decimas;;E:/UVG/Semes
      +                          tre 5/Digital2/Proyecto1/Proyecto1.X/code.c: 285:     uint8_t centimas;;E:/UVG/Semestre 
      +                          5/Digital2/Proyecto1/Proyecto1.X/code.c: 286:     temporal = PORTD;
  2600  0297  1283               	bcf	3,5	;RP0=0, select bank0
  2601  0298  1303               	bcf	3,6	;RP1=0, select bank0
  2602  0299  0808               	movf	8,w	;volatile
  2603  029A  00AF               	movwf	??_Envio_Contador
  2604  029B  082F               	movf	??_Envio_Contador,w
  2605  029C  00B5               	movwf	Envio_Contador@temporal
  2606  029D                     l2288:
  2607                           
  2608                           ;E:/UVG/Semestre 5/Digital2/Proyecto1/Proyecto1.X/code.c: 288:     unidades = temporal/1
      +                          00;
  2609  029D  3064               	movlw	100
  2610  029E  00A6               	movwf	___awdiv@divisor
  2611  029F  3000               	movlw	0
  2612  02A0  00A7               	movwf	___awdiv@divisor+1
  2613  02A1  0835               	movf	Envio_Contador@temporal,w
  2614  02A2  00AF               	movwf	??_Envio_Contador
  2615  02A3  01B0               	clrf	??_Envio_Contador+1
  2616  02A4  082F               	movf	??_Envio_Contador,w
  2617  02A5  00A8               	movwf	___awdiv@dividend
  2618  02A6  0830               	movf	??_Envio_Contador+1,w
  2619  02A7  00A9               	movwf	___awdiv@dividend+1
  2620  02A8  120A  118A  2459  120A  118A  	fcall	___awdiv
  2621  02AD  1283               	bcf	3,5	;RP0=0, select bank0
  2622  02AE  1303               	bcf	3,6	;RP1=0, select bank0
  2623  02AF  0826               	movf	?___awdiv,w
  2624  02B0  00B1               	movwf	??_Envio_Contador+2
  2625  02B1  0831               	movf	??_Envio_Contador+2,w
  2626  02B2  00B3               	movwf	Envio_Contador@unidades
  2627  02B3                     l2290:
  2628                           
  2629                           ;E:/UVG/Semestre 5/Digital2/Proyecto1/Proyecto1.X/code.c: 289:     temporal = temporal -
      +                           100*unidades;
  2630  02B3  309C               	movlw	156
  2631  02B4  00AF               	movwf	??_Envio_Contador
  2632  02B5  082F               	movf	??_Envio_Contador,w
  2633  02B6  00A0               	movwf	___bmul@multiplicand
  2634  02B7  0833               	movf	Envio_Contador@unidades,w
  2635  02B8  120A  118A  27B3  120A  118A  	fcall	___bmul
  2636  02BD  1283               	bcf	3,5	;RP0=0, select bank0
  2637  02BE  1303               	bcf	3,6	;RP1=0, select bank0
  2638  02BF  0735               	addwf	Envio_Contador@temporal,w
  2639  02C0  00B0               	movwf	??_Envio_Contador+1
  2640  02C1  0830               	movf	??_Envio_Contador+1,w
  2641  02C2  00B5               	movwf	Envio_Contador@temporal
  2642  02C3                     l2292:
  2643                           
  2644                           ;E:/UVG/Semestre 5/Digital2/Proyecto1/Proyecto1.X/code.c: 291:     decimas = temporal/10
      +                          ;
  2645  02C3  300A               	movlw	10
  2646  02C4  00A6               	movwf	___awdiv@divisor
  2647  02C5  3000               	movlw	0
  2648  02C6  00A7               	movwf	___awdiv@divisor+1
  2649  02C7  0835               	movf	Envio_Contador@temporal,w
  2650  02C8  00AF               	movwf	??_Envio_Contador
  2651  02C9  01B0               	clrf	??_Envio_Contador+1
  2652  02CA  082F               	movf	??_Envio_Contador,w
  2653  02CB  00A8               	movwf	___awdiv@dividend
  2654  02CC  0830               	movf	??_Envio_Contador+1,w
  2655  02CD  00A9               	movwf	___awdiv@dividend+1
  2656  02CE  120A  118A  2459  120A  118A  	fcall	___awdiv
  2657  02D3  1283               	bcf	3,5	;RP0=0, select bank0
  2658  02D4  1303               	bcf	3,6	;RP1=0, select bank0
  2659  02D5  0826               	movf	?___awdiv,w
  2660  02D6  00B1               	movwf	??_Envio_Contador+2
  2661  02D7  0831               	movf	??_Envio_Contador+2,w
  2662  02D8  00B4               	movwf	Envio_Contador@decimas
  2663  02D9                     l2294:
  2664                           
  2665                           ;E:/UVG/Semestre 5/Digital2/Proyecto1/Proyecto1.X/code.c: 292:     temporal = temporal -
      +                           10*decimas;
  2666  02D9  30F6               	movlw	246
  2667  02DA  00AF               	movwf	??_Envio_Contador
  2668  02DB  082F               	movf	??_Envio_Contador,w
  2669  02DC  00A0               	movwf	___bmul@multiplicand
  2670  02DD  0834               	movf	Envio_Contador@decimas,w
  2671  02DE  120A  118A  27B3  120A  118A  	fcall	___bmul
  2672  02E3  1283               	bcf	3,5	;RP0=0, select bank0
  2673  02E4  1303               	bcf	3,6	;RP1=0, select bank0
  2674  02E5  0735               	addwf	Envio_Contador@temporal,w
  2675  02E6  00B0               	movwf	??_Envio_Contador+1
  2676  02E7  0830               	movf	??_Envio_Contador+1,w
  2677  02E8  00B5               	movwf	Envio_Contador@temporal
  2678                           
  2679                           ;E:/UVG/Semestre 5/Digital2/Proyecto1/Proyecto1.X/code.c: 294:     centimas = temporal;
  2680  02E9  0835               	movf	Envio_Contador@temporal,w
  2681  02EA  00AF               	movwf	??_Envio_Contador
  2682  02EB  082F               	movf	??_Envio_Contador,w
  2683  02EC  00B2               	movwf	Envio_Contador@centimas
  2684  02ED                     l2296:
  2685                           
  2686                           ;E:/UVG/Semestre 5/Digital2/Proyecto1/Proyecto1.X/code.c: 296:     Lcd_Set_Cursor(2,7);
  2687  02ED  3007               	movlw	7
  2688  02EE  00AF               	movwf	??_Envio_Contador
  2689  02EF  082F               	movf	??_Envio_Contador,w
  2690  02F0  00A4               	movwf	Lcd_Set_Cursor@b
  2691  02F1  3002               	movlw	2
  2692  02F2  120A  118A  2762  120A  118A  	fcall	_Lcd_Set_Cursor
  2693  02F7                     l2298:
  2694                           
  2695                           ;E:/UVG/Semestre 5/Digital2/Proyecto1/Proyecto1.X/code.c: 297:     Lcd_Write_String(Camb
      +                          io(unidades));
  2696  02F7  1283               	bcf	3,5	;RP0=0, select bank0
  2697  02F8  1303               	bcf	3,6	;RP1=0, select bank0
  2698  02F9  0833               	movf	Envio_Contador@unidades,w
  2699  02FA  120A  118A  2621  120A  118A  	fcall	_Cambio
  2700  02FF  120A  118A  26CB  120A  118A  	fcall	_Lcd_Write_String
  2701  0304                     l2300:
  2702                           
  2703                           ;E:/UVG/Semestre 5/Digital2/Proyecto1/Proyecto1.X/code.c: 298:     Lcd_Set_Cursor(2,8);
  2704  0304  3008               	movlw	8
  2705  0305  1283               	bcf	3,5	;RP0=0, select bank0
  2706  0306  1303               	bcf	3,6	;RP1=0, select bank0
  2707  0307  00AF               	movwf	??_Envio_Contador
  2708  0308  082F               	movf	??_Envio_Contador,w
  2709  0309  00A4               	movwf	Lcd_Set_Cursor@b
  2710  030A  3002               	movlw	2
  2711  030B  120A  118A  2762  120A  118A  	fcall	_Lcd_Set_Cursor
  2712  0310                     l2302:
  2713                           
  2714                           ;E:/UVG/Semestre 5/Digital2/Proyecto1/Proyecto1.X/code.c: 299:     Lcd_Write_String(Camb
      +                          io(decimas));
  2715  0310  1283               	bcf	3,5	;RP0=0, select bank0
  2716  0311  1303               	bcf	3,6	;RP1=0, select bank0
  2717  0312  0834               	movf	Envio_Contador@decimas,w
  2718  0313  120A  118A  2621  120A  118A  	fcall	_Cambio
  2719  0318  120A  118A  26CB  120A  118A  	fcall	_Lcd_Write_String
  2720  031D                     l2304:
  2721                           
  2722                           ;E:/UVG/Semestre 5/Digital2/Proyecto1/Proyecto1.X/code.c: 300:     Lcd_Set_Cursor(2,9);
  2723  031D  3009               	movlw	9
  2724  031E  1283               	bcf	3,5	;RP0=0, select bank0
  2725  031F  1303               	bcf	3,6	;RP1=0, select bank0
  2726  0320  00AF               	movwf	??_Envio_Contador
  2727  0321  082F               	movf	??_Envio_Contador,w
  2728  0322  00A4               	movwf	Lcd_Set_Cursor@b
  2729  0323  3002               	movlw	2
  2730  0324  120A  118A  2762  120A  118A  	fcall	_Lcd_Set_Cursor
  2731  0329                     l2306:
  2732                           
  2733                           ;E:/UVG/Semestre 5/Digital2/Proyecto1/Proyecto1.X/code.c: 301:     Lcd_Write_String(Camb
      +                          io(centimas));
  2734  0329  1283               	bcf	3,5	;RP0=0, select bank0
  2735  032A  1303               	bcf	3,6	;RP1=0, select bank0
  2736  032B  0832               	movf	Envio_Contador@centimas,w
  2737  032C  120A  118A  2621  120A  118A  	fcall	_Cambio
  2738  0331  120A  118A  26CB  120A  118A  	fcall	_Lcd_Write_String
  2739  0336                     l2308:
  2740                           
  2741                           ;E:/UVG/Semestre 5/Digital2/Proyecto1/Proyecto1.X/code.c: 302:     Lcd_Set_Cursor(2,10);
  2742  0336  300A               	movlw	10
  2743  0337  1283               	bcf	3,5	;RP0=0, select bank0
  2744  0338  1303               	bcf	3,6	;RP1=0, select bank0
  2745  0339  00AF               	movwf	??_Envio_Contador
  2746  033A  082F               	movf	??_Envio_Contador,w
  2747  033B  00A4               	movwf	Lcd_Set_Cursor@b
  2748  033C  3002               	movlw	2
  2749  033D  120A  118A  2762  120A  118A  	fcall	_Lcd_Set_Cursor
  2750  0342                     l168:
  2751  0342  0008               	return
  2752  0343                     __end_of_Envio_Contador:
  2753                           
  2754                           	psect	text12
  2755  07B3                     __ptext12:	
  2756 ;; *************** function ___bmul *****************
  2757 ;; Defined at:
  2758 ;;		line 4 in file "C:\Program Files\Microchip\xc8\v2.31\pic\sources\c90\common\Umul8.c"
  2759 ;; Parameters:    Size  Location     Type
  2760 ;;  multiplier      1    wreg     unsigned char 
  2761 ;;  multiplicand    1    0[BANK0 ] unsigned char 
  2762 ;; Auto vars:     Size  Location     Type
  2763 ;;  multiplier      1    3[BANK0 ] unsigned char 
  2764 ;;  product         1    2[BANK0 ] unsigned char 
  2765 ;; Return value:  Size  Location     Type
  2766 ;;                  1    wreg      unsigned char 
  2767 ;; Registers used:
  2768 ;;		wreg, status,2, status,0
  2769 ;; Tracked objects:
  2770 ;;		On entry : 0/0
  2771 ;;		On exit  : 0/0
  2772 ;;		Unchanged: 0/0
  2773 ;; Data sizes:     COMMON   BANK0   BANK1   BANK3   BANK2
  2774 ;;      Params:         0       1       0       0       0
  2775 ;;      Locals:         0       2       0       0       0
  2776 ;;      Temps:          0       1       0       0       0
  2777 ;;      Totals:         0       4       0       0       0
  2778 ;;Total ram usage:        4 bytes
  2779 ;; Hardware stack levels used:    1
  2780 ;; Hardware stack levels required when called:    3
  2781 ;; This function calls:
  2782 ;;		Nothing
  2783 ;; This function is called by:
  2784 ;;		_Envio_Contador
  2785 ;;		_Envio_Temperatura
  2786 ;; This function uses a non-reentrant model
  2787 ;;
  2788                           
  2789                           
  2790                           ;psect for function ___bmul
  2791  07B3                     ___bmul:
  2792                           
  2793                           ;incstack = 0
  2794                           ; Regs used in ___bmul: [wreg+status,2+status,0]
  2795                           ;___bmul@multiplier stored from wreg
  2796  07B3  1283               	bcf	3,5	;RP0=0, select bank0
  2797  07B4  1303               	bcf	3,6	;RP1=0, select bank0
  2798  07B5  00A3               	movwf	___bmul@multiplier
  2799  07B6                     l1806:
  2800  07B6  01A2               	clrf	___bmul@product
  2801  07B7                     l1808:
  2802  07B7  1C23               	btfss	___bmul@multiplier,0
  2803  07B8  2FBA               	goto	u371
  2804  07B9  2FBB               	goto	u370
  2805  07BA                     u371:
  2806  07BA  2FBF               	goto	l1812
  2807  07BB                     u370:
  2808  07BB                     l1810:
  2809  07BB  0820               	movf	___bmul@multiplicand,w
  2810  07BC  00A1               	movwf	??___bmul
  2811  07BD  0821               	movf	??___bmul,w
  2812  07BE  07A2               	addwf	___bmul@product,f
  2813  07BF                     l1812:
  2814  07BF  1003               	clrc
  2815  07C0  0DA0               	rlf	___bmul@multiplicand,f
  2816  07C1                     l1814:
  2817  07C1  1003               	clrc
  2818  07C2  0CA3               	rrf	___bmul@multiplier,f
  2819  07C3  0823               	movf	___bmul@multiplier,w
  2820  07C4  1D03               	btfss	3,2
  2821  07C5  2FC7               	goto	u381
  2822  07C6  2FC8               	goto	u380
  2823  07C7                     u381:
  2824  07C7  2FB7               	goto	l1808
  2825  07C8                     u380:
  2826  07C8                     l1816:
  2827  07C8  0822               	movf	___bmul@product,w
  2828  07C9                     l410:
  2829  07C9  0008               	return
  2830  07CA                     __end_of___bmul:
  2831                           
  2832                           	psect	text13
  2833  0027                     __ptext13:	
  2834 ;; *************** function _Conversiones *****************
  2835 ;; Defined at:
  2836 ;;		line 188 in file "E:/UVG/Semestre 5/Digital2/Proyecto1/Proyecto1.X/code.c"
  2837 ;; Parameters:    Size  Location     Type
  2838 ;;		None
  2839 ;; Auto vars:     Size  Location     Type
  2840 ;;  temporal        2   17[BANK0 ] unsigned int 
  2841 ;; Return value:  Size  Location     Type
  2842 ;;                  1    wreg      void 
  2843 ;; Registers used:
  2844 ;;		wreg, fsr0l, fsr0h, status,2, status,0, pclath, cstack
  2845 ;; Tracked objects:
  2846 ;;		On entry : 0/0
  2847 ;;		On exit  : 0/0
  2848 ;;		Unchanged: 0/0
  2849 ;; Data sizes:     COMMON   BANK0   BANK1   BANK3   BANK2
  2850 ;;      Params:         0       0       0       0       0
  2851 ;;      Locals:         0       2       0       0       0
  2852 ;;      Temps:          0       2       0       0       0
  2853 ;;      Totals:         0       4       0       0       0
  2854 ;;Total ram usage:        4 bytes
  2855 ;; Hardware stack levels used:    1
  2856 ;; Hardware stack levels required when called:    6
  2857 ;; This function calls:
  2858 ;;		_Cambio
  2859 ;;		_Lcd_Set_Cursor
  2860 ;;		_Lcd_Write_String
  2861 ;;		___awdiv
  2862 ;;		___lwdiv
  2863 ;;		___wmul
  2864 ;; This function is called by:
  2865 ;;		_main
  2866 ;; This function uses a non-reentrant model
  2867 ;;
  2868                           
  2869                           
  2870                           ;psect for function _Conversiones
  2871  0027                     _Conversiones:
  2872  0027                     l2264:	
  2873                           ;incstack = 0
  2874                           ; Regs used in _Conversiones: [wreg-fsr0h+status,2+status,0+pclath+cstack]
  2875                           
  2876                           
  2877                           ;E:/UVG/Semestre 5/Digital2/Proyecto1/Proyecto1.X/code.c: 189:     uint16_t temporal;;E:
      +                          /UVG/Semestre 5/Digital2/Proyecto1/Proyecto1.X/code.c: 191:     temporal = (VAR_ADC*100)
      +                          /51;
  2878  0027  3033               	movlw	51
  2879  0028  1283               	bcf	3,5	;RP0=0, select bank0
  2880  0029  1303               	bcf	3,6	;RP1=0, select bank0
  2881  002A  00A6               	movwf	___awdiv@divisor
  2882  002B  3000               	movlw	0
  2883  002C  00A7               	movwf	___awdiv@divisor+1
  2884  002D  0841               	movf	_VAR_ADC,w
  2885  002E  00AF               	movwf	??_Conversiones
  2886  002F  01B0               	clrf	??_Conversiones+1
  2887  0030  082F               	movf	??_Conversiones,w
  2888  0031  00A0               	movwf	___wmul@multiplier
  2889  0032  0830               	movf	??_Conversiones+1,w
  2890  0033  00A1               	movwf	___wmul@multiplier+1
  2891  0034  3064               	movlw	100
  2892  0035  00A2               	movwf	___wmul@multiplicand
  2893  0036  3000               	movlw	0
  2894  0037  00A3               	movwf	___wmul@multiplicand+1
  2895  0038  120A  118A  271D  120A  118A  	fcall	___wmul
  2896  003D  1283               	bcf	3,5	;RP0=0, select bank0
  2897  003E  1303               	bcf	3,6	;RP1=0, select bank0
  2898  003F  0821               	movf	?___wmul+1,w
  2899  0040  00A9               	movwf	___awdiv@dividend+1
  2900  0041  0820               	movf	?___wmul,w
  2901  0042  00A8               	movwf	___awdiv@dividend
  2902  0043  120A  118A  2459  120A  118A  	fcall	___awdiv
  2903  0048  1283               	bcf	3,5	;RP0=0, select bank0
  2904  0049  1303               	bcf	3,6	;RP1=0, select bank0
  2905  004A  0827               	movf	?___awdiv+1,w
  2906  004B  00B2               	movwf	Conversiones@temporal+1
  2907  004C  0826               	movf	?___awdiv,w
  2908  004D  00B1               	movwf	Conversiones@temporal
  2909                           
  2910                           ;E:/UVG/Semestre 5/Digital2/Proyecto1/Proyecto1.X/code.c: 193:     unidades_adc = tempor
      +                          al/100;
  2911  004E  3064               	movlw	100
  2912  004F  00A0               	movwf	___lwdiv@divisor
  2913  0050  3000               	movlw	0
  2914  0051  00A1               	movwf	___lwdiv@divisor+1
  2915  0052  0832               	movf	Conversiones@temporal+1,w
  2916  0053  00A3               	movwf	___lwdiv@dividend+1
  2917  0054  0831               	movf	Conversiones@temporal,w
  2918  0055  00A2               	movwf	___lwdiv@dividend
  2919  0056  120A  118A  25DB  120A  118A  	fcall	___lwdiv
  2920  005B  1283               	bcf	3,5	;RP0=0, select bank0
  2921  005C  1303               	bcf	3,6	;RP1=0, select bank0
  2922  005D  0820               	movf	?___lwdiv,w
  2923  005E  00AF               	movwf	??_Conversiones
  2924  005F  082F               	movf	??_Conversiones,w
  2925  0060  00BB               	movwf	_unidades_adc
  2926                           
  2927                           ;E:/UVG/Semestre 5/Digital2/Proyecto1/Proyecto1.X/code.c: 194:     temporal = temporal -
      +                           100*unidades_adc;
  2928  0061  083B               	movf	_unidades_adc,w
  2929  0062  00AF               	movwf	??_Conversiones
  2930  0063  01B0               	clrf	??_Conversiones+1
  2931  0064  082F               	movf	??_Conversiones,w
  2932  0065  00A0               	movwf	___wmul@multiplier
  2933  0066  0830               	movf	??_Conversiones+1,w
  2934  0067  00A1               	movwf	___wmul@multiplier+1
  2935  0068  309C               	movlw	156
  2936  0069  00A2               	movwf	___wmul@multiplicand
  2937  006A  30FF               	movlw	255
  2938  006B  00A3               	movwf	___wmul@multiplicand+1
  2939  006C  120A  118A  271D  120A  118A  	fcall	___wmul
  2940  0071  1283               	bcf	3,5	;RP0=0, select bank0
  2941  0072  1303               	bcf	3,6	;RP1=0, select bank0
  2942  0073  0831               	movf	Conversiones@temporal,w
  2943  0074  0720               	addwf	?___wmul,w
  2944  0075  00B1               	movwf	Conversiones@temporal
  2945  0076  0832               	movf	Conversiones@temporal+1,w
  2946  0077  1803               	skipnc
  2947  0078  0A32               	incf	Conversiones@temporal+1,w
  2948  0079  0721               	addwf	?___wmul+1,w
  2949  007A  00B2               	movwf	Conversiones@temporal+1
  2950                           
  2951                           ;E:/UVG/Semestre 5/Digital2/Proyecto1/Proyecto1.X/code.c: 196:     decimas_adc = tempora
      +                          l/10;
  2952  007B  300A               	movlw	10
  2953  007C  00A0               	movwf	___lwdiv@divisor
  2954  007D  3000               	movlw	0
  2955  007E  00A1               	movwf	___lwdiv@divisor+1
  2956  007F  0832               	movf	Conversiones@temporal+1,w
  2957  0080  00A3               	movwf	___lwdiv@dividend+1
  2958  0081  0831               	movf	Conversiones@temporal,w
  2959  0082  00A2               	movwf	___lwdiv@dividend
  2960  0083  120A  118A  25DB  120A  118A  	fcall	___lwdiv
  2961  0088  1283               	bcf	3,5	;RP0=0, select bank0
  2962  0089  1303               	bcf	3,6	;RP1=0, select bank0
  2963  008A  0820               	movf	?___lwdiv,w
  2964  008B  00AF               	movwf	??_Conversiones
  2965  008C  082F               	movf	??_Conversiones,w
  2966  008D  00BA               	movwf	_decimas_adc
  2967                           
  2968                           ;E:/UVG/Semestre 5/Digital2/Proyecto1/Proyecto1.X/code.c: 197:     temporal = temporal -
      +                           10*decimas_adc;
  2969  008E  083A               	movf	_decimas_adc,w
  2970  008F  00AF               	movwf	??_Conversiones
  2971  0090  01B0               	clrf	??_Conversiones+1
  2972  0091  082F               	movf	??_Conversiones,w
  2973  0092  00A0               	movwf	___wmul@multiplier
  2974  0093  0830               	movf	??_Conversiones+1,w
  2975  0094  00A1               	movwf	___wmul@multiplier+1
  2976  0095  30F6               	movlw	246
  2977  0096  00A2               	movwf	___wmul@multiplicand
  2978  0097  30FF               	movlw	255
  2979  0098  00A3               	movwf	___wmul@multiplicand+1
  2980  0099  120A  118A  271D  120A  118A  	fcall	___wmul
  2981  009E  1283               	bcf	3,5	;RP0=0, select bank0
  2982  009F  1303               	bcf	3,6	;RP1=0, select bank0
  2983  00A0  0831               	movf	Conversiones@temporal,w
  2984  00A1  0720               	addwf	?___wmul,w
  2985  00A2  00B1               	movwf	Conversiones@temporal
  2986  00A3  0832               	movf	Conversiones@temporal+1,w
  2987  00A4  1803               	skipnc
  2988  00A5  0A32               	incf	Conversiones@temporal+1,w
  2989  00A6  0721               	addwf	?___wmul+1,w
  2990  00A7  00B2               	movwf	Conversiones@temporal+1
  2991  00A8                     l2266:
  2992                           
  2993                           ;E:/UVG/Semestre 5/Digital2/Proyecto1/Proyecto1.X/code.c: 199:     centimas_adc = tempor
      +                          al;
  2994  00A8  0831               	movf	Conversiones@temporal,w
  2995  00A9  00AF               	movwf	??_Conversiones
  2996  00AA  082F               	movf	??_Conversiones,w
  2997  00AB  00B9               	movwf	_centimas_adc
  2998  00AC                     l2268:
  2999                           
  3000                           ;E:/UVG/Semestre 5/Digital2/Proyecto1/Proyecto1.X/code.c: 201:     Lcd_Set_Cursor(2,1);
  3001  00AC  01A4               	clrf	Lcd_Set_Cursor@b
  3002  00AD  0AA4               	incf	Lcd_Set_Cursor@b,f
  3003  00AE  3002               	movlw	2
  3004  00AF  120A  118A  2762  120A  118A  	fcall	_Lcd_Set_Cursor
  3005  00B4                     l2270:
  3006                           
  3007                           ;E:/UVG/Semestre 5/Digital2/Proyecto1/Proyecto1.X/code.c: 202:     Lcd_Write_String(Camb
      +                          io(unidades_adc));
  3008  00B4  1283               	bcf	3,5	;RP0=0, select bank0
  3009  00B5  1303               	bcf	3,6	;RP1=0, select bank0
  3010  00B6  083B               	movf	_unidades_adc,w
  3011  00B7  120A  118A  2621  120A  118A  	fcall	_Cambio
  3012  00BC  120A  118A  26CB  120A  118A  	fcall	_Lcd_Write_String
  3013  00C1                     l2272:
  3014                           
  3015                           ;E:/UVG/Semestre 5/Digital2/Proyecto1/Proyecto1.X/code.c: 203:     Lcd_Set_Cursor(2,2);
  3016  00C1  3002               	movlw	2
  3017  00C2  1283               	bcf	3,5	;RP0=0, select bank0
  3018  00C3  1303               	bcf	3,6	;RP1=0, select bank0
  3019  00C4  00AF               	movwf	??_Conversiones
  3020  00C5  082F               	movf	??_Conversiones,w
  3021  00C6  00A4               	movwf	Lcd_Set_Cursor@b
  3022  00C7  3002               	movlw	2
  3023  00C8  120A  118A  2762  120A  118A  	fcall	_Lcd_Set_Cursor
  3024  00CD                     l2274:
  3025                           
  3026                           ;E:/UVG/Semestre 5/Digital2/Proyecto1/Proyecto1.X/code.c: 204:     Lcd_Write_String(".")
      +                          ;
  3027  00CD  3027               	movlw	(low ((STR_4-__stringbase)| (0+32768)))& (0+255)
  3028  00CE  120A  118A  26CB  120A  118A  	fcall	_Lcd_Write_String
  3029  00D3                     l2276:
  3030                           
  3031                           ;E:/UVG/Semestre 5/Digital2/Proyecto1/Proyecto1.X/code.c: 205:     Lcd_Set_Cursor(2,3);
  3032  00D3  3003               	movlw	3
  3033  00D4  1283               	bcf	3,5	;RP0=0, select bank0
  3034  00D5  1303               	bcf	3,6	;RP1=0, select bank0
  3035  00D6  00AF               	movwf	??_Conversiones
  3036  00D7  082F               	movf	??_Conversiones,w
  3037  00D8  00A4               	movwf	Lcd_Set_Cursor@b
  3038  00D9  3002               	movlw	2
  3039  00DA  120A  118A  2762  120A  118A  	fcall	_Lcd_Set_Cursor
  3040  00DF                     l2278:
  3041                           
  3042                           ;E:/UVG/Semestre 5/Digital2/Proyecto1/Proyecto1.X/code.c: 206:     Lcd_Write_String(Camb
      +                          io(decimas_adc));
  3043  00DF  1283               	bcf	3,5	;RP0=0, select bank0
  3044  00E0  1303               	bcf	3,6	;RP1=0, select bank0
  3045  00E1  083A               	movf	_decimas_adc,w
  3046  00E2  120A  118A  2621  120A  118A  	fcall	_Cambio
  3047  00E7  120A  118A  26CB  120A  118A  	fcall	_Lcd_Write_String
  3048  00EC                     l2280:
  3049                           
  3050                           ;E:/UVG/Semestre 5/Digital2/Proyecto1/Proyecto1.X/code.c: 207:     Lcd_Set_Cursor(2,4);
  3051  00EC  3004               	movlw	4
  3052  00ED  1283               	bcf	3,5	;RP0=0, select bank0
  3053  00EE  1303               	bcf	3,6	;RP1=0, select bank0
  3054  00EF  00AF               	movwf	??_Conversiones
  3055  00F0  082F               	movf	??_Conversiones,w
  3056  00F1  00A4               	movwf	Lcd_Set_Cursor@b
  3057  00F2  3002               	movlw	2
  3058  00F3  120A  118A  2762  120A  118A  	fcall	_Lcd_Set_Cursor
  3059  00F8                     l2282:
  3060                           
  3061                           ;E:/UVG/Semestre 5/Digital2/Proyecto1/Proyecto1.X/code.c: 208:     Lcd_Write_String(Camb
      +                          io(centimas_adc));
  3062  00F8  1283               	bcf	3,5	;RP0=0, select bank0
  3063  00F9  1303               	bcf	3,6	;RP1=0, select bank0
  3064  00FA  0839               	movf	_centimas_adc,w
  3065  00FB  120A  118A  2621  120A  118A  	fcall	_Cambio
  3066  0100  120A  118A  26CB  120A  118A  	fcall	_Lcd_Write_String
  3067  0105                     l2284:
  3068                           
  3069                           ;E:/UVG/Semestre 5/Digital2/Proyecto1/Proyecto1.X/code.c: 209:     Lcd_Set_Cursor(2,5);
  3070  0105  3005               	movlw	5
  3071  0106  1283               	bcf	3,5	;RP0=0, select bank0
  3072  0107  1303               	bcf	3,6	;RP1=0, select bank0
  3073  0108  00AF               	movwf	??_Conversiones
  3074  0109  082F               	movf	??_Conversiones,w
  3075  010A  00A4               	movwf	Lcd_Set_Cursor@b
  3076  010B  3002               	movlw	2
  3077  010C  120A  118A  2762  120A  118A  	fcall	_Lcd_Set_Cursor
  3078  0111                     l145:
  3079  0111  0008               	return
  3080  0112                     __end_of_Conversiones:
  3081                           
  3082                           	psect	text14
  3083  071D                     __ptext14:	
  3084 ;; *************** function ___wmul *****************
  3085 ;; Defined at:
  3086 ;;		line 15 in file "C:\Program Files\Microchip\xc8\v2.31\pic\sources\c90\common\Umul16.c"
  3087 ;; Parameters:    Size  Location     Type
  3088 ;;  multiplier      2    0[BANK0 ] unsigned int 
  3089 ;;  multiplicand    2    2[BANK0 ] unsigned int 
  3090 ;; Auto vars:     Size  Location     Type
  3091 ;;  product         2    4[BANK0 ] unsigned int 
  3092 ;; Return value:  Size  Location     Type
  3093 ;;                  2    0[BANK0 ] unsigned int 
  3094 ;; Registers used:
  3095 ;;		wreg, status,2, status,0
  3096 ;; Tracked objects:
  3097 ;;		On entry : 0/0
  3098 ;;		On exit  : 0/0
  3099 ;;		Unchanged: 0/0
  3100 ;; Data sizes:     COMMON   BANK0   BANK1   BANK3   BANK2
  3101 ;;      Params:         0       4       0       0       0
  3102 ;;      Locals:         0       2       0       0       0
  3103 ;;      Temps:          0       0       0       0       0
  3104 ;;      Totals:         0       6       0       0       0
  3105 ;;Total ram usage:        6 bytes
  3106 ;; Hardware stack levels used:    1
  3107 ;; Hardware stack levels required when called:    3
  3108 ;; This function calls:
  3109 ;;		Nothing
  3110 ;; This function is called by:
  3111 ;;		_Conversiones
  3112 ;;		_Mappin_Temperature
  3113 ;; This function uses a non-reentrant model
  3114 ;;
  3115                           
  3116                           
  3117                           ;psect for function ___wmul
  3118  071D                     ___wmul:
  3119  071D                     l2054:	
  3120                           ;incstack = 0
  3121                           ; Regs used in ___wmul: [wreg+status,2+status,0]
  3122                           
  3123  071D  1283               	bcf	3,5	;RP0=0, select bank0
  3124  071E  1303               	bcf	3,6	;RP1=0, select bank0
  3125  071F  01A4               	clrf	___wmul@product
  3126  0720  01A5               	clrf	___wmul@product+1
  3127  0721                     l2056:
  3128  0721  1C20               	btfss	___wmul@multiplier,0
  3129  0722  2F24               	goto	u511
  3130  0723  2F25               	goto	u510
  3131  0724                     u511:
  3132  0724  2F2B               	goto	l384
  3133  0725                     u510:
  3134  0725                     l2058:
  3135  0725  0822               	movf	___wmul@multiplicand,w
  3136  0726  07A4               	addwf	___wmul@product,f
  3137  0727  1803               	skipnc
  3138  0728  0AA5               	incf	___wmul@product+1,f
  3139  0729  0823               	movf	___wmul@multiplicand+1,w
  3140  072A  07A5               	addwf	___wmul@product+1,f
  3141  072B                     l384:
  3142  072B  3001               	movlw	1
  3143  072C                     u525:
  3144  072C  1003               	clrc
  3145  072D  0DA2               	rlf	___wmul@multiplicand,f
  3146  072E  0DA3               	rlf	___wmul@multiplicand+1,f
  3147  072F  3EFF               	addlw	-1
  3148  0730  1D03               	skipz
  3149  0731  2F2C               	goto	u525
  3150  0732                     l2060:
  3151  0732  3001               	movlw	1
  3152  0733                     u535:
  3153  0733  1003               	clrc
  3154  0734  0CA1               	rrf	___wmul@multiplier+1,f
  3155  0735  0CA0               	rrf	___wmul@multiplier,f
  3156  0736  3EFF               	addlw	-1
  3157  0737  1D03               	skipz
  3158  0738  2F33               	goto	u535
  3159  0739                     l2062:
  3160  0739  0820               	movf	___wmul@multiplier,w
  3161  073A  0421               	iorwf	___wmul@multiplier+1,w
  3162  073B  1D03               	btfss	3,2
  3163  073C  2F3E               	goto	u541
  3164  073D  2F3F               	goto	u540
  3165  073E                     u541:
  3166  073E  2F21               	goto	l2056
  3167  073F                     u540:
  3168  073F                     l2064:
  3169  073F  0825               	movf	___wmul@product+1,w
  3170  0740  00A1               	movwf	?___wmul+1
  3171  0741  0824               	movf	___wmul@product,w
  3172  0742  00A0               	movwf	?___wmul
  3173  0743                     l386:
  3174  0743  0008               	return
  3175  0744                     __end_of___wmul:
  3176                           
  3177                           	psect	text15
  3178  05DB                     __ptext15:	
  3179 ;; *************** function ___lwdiv *****************
  3180 ;; Defined at:
  3181 ;;		line 5 in file "C:\Program Files\Microchip\xc8\v2.31\pic\sources\c90\common\lwdiv.c"
  3182 ;; Parameters:    Size  Location     Type
  3183 ;;  divisor         2    0[BANK0 ] unsigned int 
  3184 ;;  dividend        2    2[BANK0 ] unsigned int 
  3185 ;; Auto vars:     Size  Location     Type
  3186 ;;  quotient        2    5[BANK0 ] unsigned int 
  3187 ;;  counter         1    7[BANK0 ] unsigned char 
  3188 ;; Return value:  Size  Location     Type
  3189 ;;                  2    0[BANK0 ] unsigned int 
  3190 ;; Registers used:
  3191 ;;		wreg, status,2, status,0
  3192 ;; Tracked objects:
  3193 ;;		On entry : 0/0
  3194 ;;		On exit  : 0/0
  3195 ;;		Unchanged: 0/0
  3196 ;; Data sizes:     COMMON   BANK0   BANK1   BANK3   BANK2
  3197 ;;      Params:         0       4       0       0       0
  3198 ;;      Locals:         0       3       0       0       0
  3199 ;;      Temps:          0       1       0       0       0
  3200 ;;      Totals:         0       8       0       0       0
  3201 ;;Total ram usage:        8 bytes
  3202 ;; Hardware stack levels used:    1
  3203 ;; Hardware stack levels required when called:    3
  3204 ;; This function calls:
  3205 ;;		Nothing
  3206 ;; This function is called by:
  3207 ;;		_Conversiones
  3208 ;; This function uses a non-reentrant model
  3209 ;;
  3210                           
  3211                           
  3212                           ;psect for function ___lwdiv
  3213  05DB                     ___lwdiv:
  3214  05DB                     l2068:	
  3215                           ;incstack = 0
  3216                           ; Regs used in ___lwdiv: [wreg+status,2+status,0]
  3217                           
  3218  05DB  1283               	bcf	3,5	;RP0=0, select bank0
  3219  05DC  1303               	bcf	3,6	;RP1=0, select bank0
  3220  05DD  01A5               	clrf	___lwdiv@quotient
  3221  05DE  01A6               	clrf	___lwdiv@quotient+1
  3222  05DF                     l2070:
  3223  05DF  0820               	movf	___lwdiv@divisor,w
  3224  05E0  0421               	iorwf	___lwdiv@divisor+1,w
  3225  05E1  1903               	btfsc	3,2
  3226  05E2  2DE4               	goto	u551
  3227  05E3  2DE5               	goto	u550
  3228  05E4                     u551:
  3229  05E4  2E1C               	goto	l2090
  3230  05E5                     u550:
  3231  05E5                     l2072:
  3232  05E5  01A7               	clrf	___lwdiv@counter
  3233  05E6  0AA7               	incf	___lwdiv@counter,f
  3234  05E7  2DF3               	goto	l2078
  3235  05E8                     l2074:
  3236  05E8  3001               	movlw	1
  3237  05E9                     u565:
  3238  05E9  1003               	clrc
  3239  05EA  0DA0               	rlf	___lwdiv@divisor,f
  3240  05EB  0DA1               	rlf	___lwdiv@divisor+1,f
  3241  05EC  3EFF               	addlw	-1
  3242  05ED  1D03               	skipz
  3243  05EE  2DE9               	goto	u565
  3244  05EF                     l2076:
  3245  05EF  3001               	movlw	1
  3246  05F0  00A4               	movwf	??___lwdiv
  3247  05F1  0824               	movf	??___lwdiv,w
  3248  05F2  07A7               	addwf	___lwdiv@counter,f
  3249  05F3                     l2078:
  3250  05F3  1FA1               	btfss	___lwdiv@divisor+1,7
  3251  05F4  2DF6               	goto	u571
  3252  05F5  2DF7               	goto	u570
  3253  05F6                     u571:
  3254  05F6  2DE8               	goto	l2074
  3255  05F7                     u570:
  3256  05F7                     l2080:
  3257  05F7  3001               	movlw	1
  3258  05F8                     u585:
  3259  05F8  1003               	clrc
  3260  05F9  0DA5               	rlf	___lwdiv@quotient,f
  3261  05FA  0DA6               	rlf	___lwdiv@quotient+1,f
  3262  05FB  3EFF               	addlw	-1
  3263  05FC  1D03               	skipz
  3264  05FD  2DF8               	goto	u585
  3265  05FE  0821               	movf	___lwdiv@divisor+1,w
  3266  05FF  0223               	subwf	___lwdiv@dividend+1,w
  3267  0600  1D03               	skipz
  3268  0601  2E04               	goto	u595
  3269  0602  0820               	movf	___lwdiv@divisor,w
  3270  0603  0222               	subwf	___lwdiv@dividend,w
  3271  0604                     u595:
  3272  0604  1C03               	skipc
  3273  0605  2E07               	goto	u591
  3274  0606  2E08               	goto	u590
  3275  0607                     u591:
  3276  0607  2E0F               	goto	l2086
  3277  0608                     u590:
  3278  0608                     l2082:
  3279  0608  0820               	movf	___lwdiv@divisor,w
  3280  0609  02A2               	subwf	___lwdiv@dividend,f
  3281  060A  0821               	movf	___lwdiv@divisor+1,w
  3282  060B  1C03               	skipc
  3283  060C  03A3               	decf	___lwdiv@dividend+1,f
  3284  060D  02A3               	subwf	___lwdiv@dividend+1,f
  3285  060E                     l2084:
  3286  060E  1425               	bsf	___lwdiv@quotient,0
  3287  060F                     l2086:
  3288  060F  3001               	movlw	1
  3289  0610                     u605:
  3290  0610  1003               	clrc
  3291  0611  0CA1               	rrf	___lwdiv@divisor+1,f
  3292  0612  0CA0               	rrf	___lwdiv@divisor,f
  3293  0613  3EFF               	addlw	-1
  3294  0614  1D03               	skipz
  3295  0615  2E10               	goto	u605
  3296  0616                     l2088:
  3297  0616  3001               	movlw	1
  3298  0617  02A7               	subwf	___lwdiv@counter,f
  3299  0618  1D03               	btfss	3,2
  3300  0619  2E1B               	goto	u611
  3301  061A  2E1C               	goto	u610
  3302  061B                     u611:
  3303  061B  2DF7               	goto	l2080
  3304  061C                     u610:
  3305  061C                     l2090:
  3306  061C  0826               	movf	___lwdiv@quotient+1,w
  3307  061D  00A1               	movwf	?___lwdiv+1
  3308  061E  0825               	movf	___lwdiv@quotient,w
  3309  061F  00A0               	movwf	?___lwdiv
  3310  0620                     l656:
  3311  0620  0008               	return
  3312  0621                     __end_of___lwdiv:
  3313                           
  3314                           	psect	text16
  3315  0459                     __ptext16:	
  3316 ;; *************** function ___awdiv *****************
  3317 ;; Defined at:
  3318 ;;		line 5 in file "C:\Program Files\Microchip\xc8\v2.31\pic\sources\c90\common\awdiv.c"
  3319 ;; Parameters:    Size  Location     Type
  3320 ;;  divisor         2    6[BANK0 ] int 
  3321 ;;  dividend        2    8[BANK0 ] int 
  3322 ;; Auto vars:     Size  Location     Type
  3323 ;;  quotient        2   13[BANK0 ] int 
  3324 ;;  sign            1   12[BANK0 ] unsigned char 
  3325 ;;  counter         1   11[BANK0 ] unsigned char 
  3326 ;; Return value:  Size  Location     Type
  3327 ;;                  2    6[BANK0 ] int 
  3328 ;; Registers used:
  3329 ;;		wreg, status,2, status,0
  3330 ;; Tracked objects:
  3331 ;;		On entry : 0/0
  3332 ;;		On exit  : 0/0
  3333 ;;		Unchanged: 0/0
  3334 ;; Data sizes:     COMMON   BANK0   BANK1   BANK3   BANK2
  3335 ;;      Params:         0       4       0       0       0
  3336 ;;      Locals:         0       4       0       0       0
  3337 ;;      Temps:          0       1       0       0       0
  3338 ;;      Totals:         0       9       0       0       0
  3339 ;;Total ram usage:        9 bytes
  3340 ;; Hardware stack levels used:    1
  3341 ;; Hardware stack levels required when called:    3
  3342 ;; This function calls:
  3343 ;;		Nothing
  3344 ;; This function is called by:
  3345 ;;		_Conversiones
  3346 ;;		_Envio_Contador
  3347 ;;		_Mappin_Temperature
  3348 ;;		_Envio_Temperatura
  3349 ;; This function uses a non-reentrant model
  3350 ;;
  3351                           
  3352                           
  3353                           ;psect for function ___awdiv
  3354  0459                     ___awdiv:
  3355  0459                     l1820:	
  3356                           ;incstack = 0
  3357                           ; Regs used in ___awdiv: [wreg+status,2+status,0]
  3358                           
  3359  0459  1283               	bcf	3,5	;RP0=0, select bank0
  3360  045A  1303               	bcf	3,6	;RP1=0, select bank0
  3361  045B  01AC               	clrf	___awdiv@sign
  3362  045C                     l1822:
  3363  045C  1FA7               	btfss	___awdiv@divisor+1,7
  3364  045D  2C5F               	goto	u391
  3365  045E  2C60               	goto	u390
  3366  045F                     u391:
  3367  045F  2C67               	goto	l1828
  3368  0460                     u390:
  3369  0460                     l1824:
  3370  0460  09A6               	comf	___awdiv@divisor,f
  3371  0461  09A7               	comf	___awdiv@divisor+1,f
  3372  0462  0AA6               	incf	___awdiv@divisor,f
  3373  0463  1903               	skipnz
  3374  0464  0AA7               	incf	___awdiv@divisor+1,f
  3375  0465                     l1826:
  3376  0465  01AC               	clrf	___awdiv@sign
  3377  0466  0AAC               	incf	___awdiv@sign,f
  3378  0467                     l1828:
  3379  0467  1FA9               	btfss	___awdiv@dividend+1,7
  3380  0468  2C6A               	goto	u401
  3381  0469  2C6B               	goto	u400
  3382  046A                     u401:
  3383  046A  2C74               	goto	l1834
  3384  046B                     u400:
  3385  046B                     l1830:
  3386  046B  09A8               	comf	___awdiv@dividend,f
  3387  046C  09A9               	comf	___awdiv@dividend+1,f
  3388  046D  0AA8               	incf	___awdiv@dividend,f
  3389  046E  1903               	skipnz
  3390  046F  0AA9               	incf	___awdiv@dividend+1,f
  3391  0470                     l1832:
  3392  0470  3001               	movlw	1
  3393  0471  00AA               	movwf	??___awdiv
  3394  0472  082A               	movf	??___awdiv,w
  3395  0473  06AC               	xorwf	___awdiv@sign,f
  3396  0474                     l1834:
  3397  0474  01AD               	clrf	___awdiv@quotient
  3398  0475  01AE               	clrf	___awdiv@quotient+1
  3399  0476                     l1836:
  3400  0476  0826               	movf	___awdiv@divisor,w
  3401  0477  0427               	iorwf	___awdiv@divisor+1,w
  3402  0478  1903               	btfsc	3,2
  3403  0479  2C7B               	goto	u411
  3404  047A  2C7C               	goto	u410
  3405  047B                     u411:
  3406  047B  2CB3               	goto	l1856
  3407  047C                     u410:
  3408  047C                     l1838:
  3409  047C  01AB               	clrf	___awdiv@counter
  3410  047D  0AAB               	incf	___awdiv@counter,f
  3411  047E  2C8A               	goto	l1844
  3412  047F                     l1840:
  3413  047F  3001               	movlw	1
  3414  0480                     u425:
  3415  0480  1003               	clrc
  3416  0481  0DA6               	rlf	___awdiv@divisor,f
  3417  0482  0DA7               	rlf	___awdiv@divisor+1,f
  3418  0483  3EFF               	addlw	-1
  3419  0484  1D03               	skipz
  3420  0485  2C80               	goto	u425
  3421  0486                     l1842:
  3422  0486  3001               	movlw	1
  3423  0487  00AA               	movwf	??___awdiv
  3424  0488  082A               	movf	??___awdiv,w
  3425  0489  07AB               	addwf	___awdiv@counter,f
  3426  048A                     l1844:
  3427  048A  1FA7               	btfss	___awdiv@divisor+1,7
  3428  048B  2C8D               	goto	u431
  3429  048C  2C8E               	goto	u430
  3430  048D                     u431:
  3431  048D  2C7F               	goto	l1840
  3432  048E                     u430:
  3433  048E                     l1846:
  3434  048E  3001               	movlw	1
  3435  048F                     u445:
  3436  048F  1003               	clrc
  3437  0490  0DAD               	rlf	___awdiv@quotient,f
  3438  0491  0DAE               	rlf	___awdiv@quotient+1,f
  3439  0492  3EFF               	addlw	-1
  3440  0493  1D03               	skipz
  3441  0494  2C8F               	goto	u445
  3442  0495  0827               	movf	___awdiv@divisor+1,w
  3443  0496  0229               	subwf	___awdiv@dividend+1,w
  3444  0497  1D03               	skipz
  3445  0498  2C9B               	goto	u455
  3446  0499  0826               	movf	___awdiv@divisor,w
  3447  049A  0228               	subwf	___awdiv@dividend,w
  3448  049B                     u455:
  3449  049B  1C03               	skipc
  3450  049C  2C9E               	goto	u451
  3451  049D  2C9F               	goto	u450
  3452  049E                     u451:
  3453  049E  2CA6               	goto	l1852
  3454  049F                     u450:
  3455  049F                     l1848:
  3456  049F  0826               	movf	___awdiv@divisor,w
  3457  04A0  02A8               	subwf	___awdiv@dividend,f
  3458  04A1  0827               	movf	___awdiv@divisor+1,w
  3459  04A2  1C03               	skipc
  3460  04A3  03A9               	decf	___awdiv@dividend+1,f
  3461  04A4  02A9               	subwf	___awdiv@dividend+1,f
  3462  04A5                     l1850:
  3463  04A5  142D               	bsf	___awdiv@quotient,0
  3464  04A6                     l1852:
  3465  04A6  3001               	movlw	1
  3466  04A7                     u465:
  3467  04A7  1003               	clrc
  3468  04A8  0CA7               	rrf	___awdiv@divisor+1,f
  3469  04A9  0CA6               	rrf	___awdiv@divisor,f
  3470  04AA  3EFF               	addlw	-1
  3471  04AB  1D03               	skipz
  3472  04AC  2CA7               	goto	u465
  3473  04AD                     l1854:
  3474  04AD  3001               	movlw	1
  3475  04AE  02AB               	subwf	___awdiv@counter,f
  3476  04AF  1D03               	btfss	3,2
  3477  04B0  2CB2               	goto	u471
  3478  04B1  2CB3               	goto	u470
  3479  04B2                     u471:
  3480  04B2  2C8E               	goto	l1846
  3481  04B3                     u470:
  3482  04B3                     l1856:
  3483  04B3  082C               	movf	___awdiv@sign,w
  3484  04B4  1903               	btfsc	3,2
  3485  04B5  2CB7               	goto	u481
  3486  04B6  2CB8               	goto	u480
  3487  04B7                     u481:
  3488  04B7  2CBD               	goto	l1860
  3489  04B8                     u480:
  3490  04B8                     l1858:
  3491  04B8  09AD               	comf	___awdiv@quotient,f
  3492  04B9  09AE               	comf	___awdiv@quotient+1,f
  3493  04BA  0AAD               	incf	___awdiv@quotient,f
  3494  04BB  1903               	skipnz
  3495  04BC  0AAE               	incf	___awdiv@quotient+1,f
  3496  04BD                     l1860:
  3497  04BD  082E               	movf	___awdiv@quotient+1,w
  3498  04BE  00A7               	movwf	?___awdiv+1
  3499  04BF  082D               	movf	___awdiv@quotient,w
  3500  04C0  00A6               	movwf	?___awdiv
  3501  04C1                     l537:
  3502  04C1  0008               	return
  3503  04C2                     __end_of___awdiv:
  3504                           
  3505                           	psect	text17
  3506  06CB                     __ptext17:	
  3507 ;; *************** function _Lcd_Write_String *****************
  3508 ;; Defined at:
  3509 ;;		line 64 in file "E:/UVG/Semestre 5/Digital2/Proyecto1/Proyecto1.X/LCD.c"
  3510 ;; Parameters:    Size  Location     Type
  3511 ;;  a               1    wreg     PTR unsigned char 
  3512 ;;		 -> STR_16(2), STR_15(2), STR_14(2), STR_13(2), 
  3513 ;;		 -> STR_12(2), STR_11(2), STR_10(2), STR_9(2), 
  3514 ;;		 -> STR_8(2), STR_7(2), STR_6(2), STR_5(2), 
  3515 ;;		 -> STR_4(2), STR_3(5), STR_2(5), STR_1(4), 
  3516 ;; Auto vars:     Size  Location     Type
  3517 ;;  a               1    5[BANK0 ] PTR unsigned char 
  3518 ;;		 -> STR_16(2), STR_15(2), STR_14(2), STR_13(2), 
  3519 ;;		 -> STR_12(2), STR_11(2), STR_10(2), STR_9(2), 
  3520 ;;		 -> STR_8(2), STR_7(2), STR_6(2), STR_5(2), 
  3521 ;;		 -> STR_4(2), STR_3(5), STR_2(5), STR_1(4), 
  3522 ;;  i               2    3[BANK0 ] int 
  3523 ;; Return value:  Size  Location     Type
  3524 ;;                  1    wreg      void 
  3525 ;; Registers used:
  3526 ;;		wreg, fsr0l, fsr0h, status,2, status,0, pclath, cstack
  3527 ;; Tracked objects:
  3528 ;;		On entry : 0/0
  3529 ;;		On exit  : 0/0
  3530 ;;		Unchanged: 0/0
  3531 ;; Data sizes:     COMMON   BANK0   BANK1   BANK3   BANK2
  3532 ;;      Params:         0       0       0       0       0
  3533 ;;      Locals:         0       3       0       0       0
  3534 ;;      Temps:          0       0       0       0       0
  3535 ;;      Totals:         0       3       0       0       0
  3536 ;;Total ram usage:        3 bytes
  3537 ;; Hardware stack levels used:    1
  3538 ;; Hardware stack levels required when called:    5
  3539 ;; This function calls:
  3540 ;;		_Lcd_Write_Char
  3541 ;; This function is called by:
  3542 ;;		_main
  3543 ;;		_Conversiones
  3544 ;;		_Envio_Contador
  3545 ;;		_Mappin_Temperature
  3546 ;;		_Envio_Temperatura
  3547 ;; This function uses a non-reentrant model
  3548 ;;
  3549                           
  3550                           
  3551                           ;psect for function _Lcd_Write_String
  3552  06CB                     _Lcd_Write_String:
  3553                           
  3554                           ;incstack = 0
  3555                           ; Regs used in _Lcd_Write_String: [wreg-fsr0h+status,2+status,0+pclath+cstack]
  3556                           ;Lcd_Write_String@a stored from wreg
  3557  06CB  1283               	bcf	3,5	;RP0=0, select bank0
  3558  06CC  1303               	bcf	3,6	;RP1=0, select bank0
  3559  06CD  00A5               	movwf	Lcd_Write_String@a
  3560  06CE                     l1726:
  3561                           
  3562                           ;E:/UVG/Semestre 5/Digital2/Proyecto1/Proyecto1.X/LCD.c: 65:  for(int i=0;a[i]!='\0';i++
      +                          ){
  3563  06CE  01A3               	clrf	Lcd_Write_String@i
  3564  06CF  01A4               	clrf	Lcd_Write_String@i+1
  3565  06D0  2EE6               	goto	l1732
  3566  06D1                     l1728:
  3567                           
  3568                           ;E:/UVG/Semestre 5/Digital2/Proyecto1/Proyecto1.X/LCD.c: 66:         Lcd_Write_Char(a[i]
      +                          );
  3569  06D1  0823               	movf	Lcd_Write_String@i,w
  3570  06D2  0725               	addwf	Lcd_Write_String@a,w
  3571  06D3  0084               	movwf	4
  3572  06D4  120A  118A  269D  120A  118A  	fcall	stringdir
  3573  06D9  120A  118A  279B  120A  118A  	fcall	_Lcd_Write_Char
  3574  06DE                     l1730:
  3575                           
  3576                           ;E:/UVG/Semestre 5/Digital2/Proyecto1/Proyecto1.X/LCD.c: 67:     }
  3577  06DE  3001               	movlw	1
  3578  06DF  1283               	bcf	3,5	;RP0=0, select bank0
  3579  06E0  1303               	bcf	3,6	;RP1=0, select bank0
  3580  06E1  07A3               	addwf	Lcd_Write_String@i,f
  3581  06E2  1803               	skipnc
  3582  06E3  0AA4               	incf	Lcd_Write_String@i+1,f
  3583  06E4  3000               	movlw	0
  3584  06E5  07A4               	addwf	Lcd_Write_String@i+1,f
  3585  06E6                     l1732:
  3586  06E6  0823               	movf	Lcd_Write_String@i,w
  3587  06E7  0725               	addwf	Lcd_Write_String@a,w
  3588  06E8  0084               	movwf	4
  3589  06E9  120A  118A  269D  120A  118A  	fcall	stringdir
  3590  06EE  3A00               	xorlw	0
  3591  06EF  1D03               	skipz
  3592  06F0  2EF2               	goto	u361
  3593  06F1  2EF3               	goto	u360
  3594  06F2                     u361:
  3595  06F2  2ED1               	goto	l1728
  3596  06F3                     u360:
  3597  06F3                     l243:
  3598  06F3  0008               	return
  3599  06F4                     __end_of_Lcd_Write_String:
  3600                           
  3601                           	psect	text18
  3602  079B                     __ptext18:	
  3603 ;; *************** function _Lcd_Write_Char *****************
  3604 ;; Defined at:
  3605 ;;		line 56 in file "E:/UVG/Semestre 5/Digital2/Proyecto1/Proyecto1.X/LCD.c"
  3606 ;; Parameters:    Size  Location     Type
  3607 ;;  a               1    wreg     unsigned char 
  3608 ;; Auto vars:     Size  Location     Type
  3609 ;;  a               1    2[BANK0 ] unsigned char 
  3610 ;; Return value:  Size  Location     Type
  3611 ;;                  1    wreg      void 
  3612 ;; Registers used:
  3613 ;;		wreg, status,2, status,0, pclath, cstack
  3614 ;; Tracked objects:
  3615 ;;		On entry : 0/0
  3616 ;;		On exit  : 0/0
  3617 ;;		Unchanged: 0/0
  3618 ;; Data sizes:     COMMON   BANK0   BANK1   BANK3   BANK2
  3619 ;;      Params:         0       0       0       0       0
  3620 ;;      Locals:         0       1       0       0       0
  3621 ;;      Temps:          0       1       0       0       0
  3622 ;;      Totals:         0       2       0       0       0
  3623 ;;Total ram usage:        2 bytes
  3624 ;; Hardware stack levels used:    1
  3625 ;; Hardware stack levels required when called:    4
  3626 ;; This function calls:
  3627 ;;		_Lcd_Port
  3628 ;; This function is called by:
  3629 ;;		_Lcd_Write_String
  3630 ;; This function uses a non-reentrant model
  3631 ;;
  3632                           
  3633                           
  3634                           ;psect for function _Lcd_Write_Char
  3635  079B                     _Lcd_Write_Char:
  3636                           
  3637                           ;incstack = 0
  3638                           ; Regs used in _Lcd_Write_Char: [wreg+status,2+status,0+pclath+cstack]
  3639                           ;Lcd_Write_Char@a stored from wreg
  3640  079B  1283               	bcf	3,5	;RP0=0, select bank0
  3641  079C  1303               	bcf	3,6	;RP1=0, select bank0
  3642  079D  00A2               	movwf	Lcd_Write_Char@a
  3643  079E                     l1708:
  3644                           
  3645                           ;E:/UVG/Semestre 5/Digital2/Proyecto1/Proyecto1.X/LCD.c: 57:     PORTEbits.RE1 = 1;
  3646  079E  1489               	bsf	9,1	;volatile
  3647  079F                     l1710:
  3648                           
  3649                           ;E:/UVG/Semestre 5/Digital2/Proyecto1/Proyecto1.X/LCD.c: 58:     Lcd_Port(a);
  3650  079F  0822               	movf	Lcd_Write_Char@a,w
  3651  07A0  120A  118A  27F4  120A  118A  	fcall	_Lcd_Port
  3652  07A5                     l1712:
  3653                           
  3654                           ;E:/UVG/Semestre 5/Digital2/Proyecto1/Proyecto1.X/LCD.c: 59:     PORTEbits.RE0 = 1;
  3655  07A5  1283               	bcf	3,5	;RP0=0, select bank0
  3656  07A6  1303               	bcf	3,6	;RP1=0, select bank0
  3657  07A7  1409               	bsf	9,0	;volatile
  3658  07A8                     l1714:
  3659                           
  3660                           ;E:/UVG/Semestre 5/Digital2/Proyecto1/Proyecto1.X/LCD.c: 60:     _delay((unsigned long)(
      +                          (40)*(4000000/4000000.0)));
  3661  07A8  300C               	movlw	12
  3662  07A9  1283               	bcf	3,5	;RP0=0, select bank0
  3663  07AA  1303               	bcf	3,6	;RP1=0, select bank0
  3664  07AB  00A1               	movwf	??_Lcd_Write_Char
  3665  07AC                     u717:
  3666  07AC  0BA1               	decfsz	??_Lcd_Write_Char,f
  3667  07AD  2FAC               	goto	u717
  3668  07AE  0000               	nop
  3669  07AF                     l1716:
  3670                           
  3671                           ;E:/UVG/Semestre 5/Digital2/Proyecto1/Proyecto1.X/LCD.c: 61:     PORTEbits.RE0 = 0;
  3672  07AF  1283               	bcf	3,5	;RP0=0, select bank0
  3673  07B0  1303               	bcf	3,6	;RP1=0, select bank0
  3674  07B1  1009               	bcf	9,0	;volatile
  3675  07B2                     l237:
  3676  07B2  0008               	return
  3677  07B3                     __end_of_Lcd_Write_Char:
  3678                           
  3679                           	psect	text19
  3680  0762                     __ptext19:	
  3681 ;; *************** function _Lcd_Set_Cursor *****************
  3682 ;; Defined at:
  3683 ;;		line 29 in file "E:/UVG/Semestre 5/Digital2/Proyecto1/Proyecto1.X/LCD.c"
  3684 ;; Parameters:    Size  Location     Type
  3685 ;;  a               1    wreg     unsigned char 
  3686 ;;  b               1    4[BANK0 ] unsigned char 
  3687 ;; Auto vars:     Size  Location     Type
  3688 ;;  a               1    5[BANK0 ] unsigned char 
  3689 ;; Return value:  Size  Location     Type
  3690 ;;                  1    wreg      void 
  3691 ;; Registers used:
  3692 ;;		wreg, status,2, status,0, pclath, cstack
  3693 ;; Tracked objects:
  3694 ;;		On entry : 0/0
  3695 ;;		On exit  : 0/0
  3696 ;;		Unchanged: 0/0
  3697 ;; Data sizes:     COMMON   BANK0   BANK1   BANK3   BANK2
  3698 ;;      Params:         0       1       0       0       0
  3699 ;;      Locals:         0       1       0       0       0
  3700 ;;      Temps:          0       0       0       0       0
  3701 ;;      Totals:         0       2       0       0       0
  3702 ;;Total ram usage:        2 bytes
  3703 ;; Hardware stack levels used:    1
  3704 ;; Hardware stack levels required when called:    5
  3705 ;; This function calls:
  3706 ;;		_Lcd_Cmd
  3707 ;; This function is called by:
  3708 ;;		_main
  3709 ;;		_Conversiones
  3710 ;;		_Envio_Contador
  3711 ;;		_Mappin_Temperature
  3712 ;;		_Envio_Temperatura
  3713 ;; This function uses a non-reentrant model
  3714 ;;
  3715                           
  3716                           
  3717                           ;psect for function _Lcd_Set_Cursor
  3718  0762                     _Lcd_Set_Cursor:
  3719                           
  3720                           ;incstack = 0
  3721                           ; Regs used in _Lcd_Set_Cursor: [wreg+status,2+status,0+pclath+cstack]
  3722                           ;Lcd_Set_Cursor@a stored from wreg
  3723  0762  1283               	bcf	3,5	;RP0=0, select bank0
  3724  0763  1303               	bcf	3,6	;RP1=0, select bank0
  3725  0764  00A5               	movwf	Lcd_Set_Cursor@a
  3726  0765                     l1718:
  3727                           
  3728                           ;E:/UVG/Semestre 5/Digital2/Proyecto1/Proyecto1.X/LCD.c: 30:  if(a == 1){
  3729  0765  0325               	decf	Lcd_Set_Cursor@a,w
  3730  0766  1D03               	btfss	3,2
  3731  0767  2F69               	goto	u341
  3732  0768  2F6A               	goto	u340
  3733  0769                     u341:
  3734  0769  2F72               	goto	l1722
  3735  076A                     u340:
  3736  076A                     l1720:
  3737                           
  3738                           ;E:/UVG/Semestre 5/Digital2/Proyecto1/Proyecto1.X/LCD.c: 31:         Lcd_Cmd(0x80 + b - 
      +                          1);
  3739  076A  0824               	movf	Lcd_Set_Cursor@b,w
  3740  076B  3E7F               	addlw	127
  3741  076C  120A  118A  2780  120A  118A  	fcall	_Lcd_Cmd
  3742                           
  3743                           ;E:/UVG/Semestre 5/Digital2/Proyecto1/Proyecto1.X/LCD.c: 32:  }
  3744  0771  2F7F               	goto	l231
  3745  0772                     l1722:
  3746  0772  3002               	movlw	2
  3747  0773  0625               	xorwf	Lcd_Set_Cursor@a,w
  3748  0774  1D03               	btfss	3,2
  3749  0775  2F77               	goto	u351
  3750  0776  2F78               	goto	u350
  3751  0777                     u351:
  3752  0777  2F7F               	goto	l231
  3753  0778                     u350:
  3754  0778                     l1724:
  3755                           
  3756                           ;E:/UVG/Semestre 5/Digital2/Proyecto1/Proyecto1.X/LCD.c: 34:   Lcd_Cmd(0xC0 + b - 1);
  3757  0778  0824               	movf	Lcd_Set_Cursor@b,w
  3758  0779  3EBF               	addlw	191
  3759  077A  120A  118A  2780  120A  118A  	fcall	_Lcd_Cmd
  3760  077F                     l231:
  3761  077F  0008               	return
  3762  0780                     __end_of_Lcd_Set_Cursor:
  3763                           
  3764                           	psect	text20
  3765  0780                     __ptext20:	
  3766 ;; *************** function _Lcd_Cmd *****************
  3767 ;; Defined at:
  3768 ;;		line 17 in file "E:/UVG/Semestre 5/Digital2/Proyecto1/Proyecto1.X/LCD.c"
  3769 ;; Parameters:    Size  Location     Type
  3770 ;;  a               1    wreg     unsigned char 
  3771 ;; Auto vars:     Size  Location     Type
  3772 ;;  a               1    3[BANK0 ] unsigned char 
  3773 ;; Return value:  Size  Location     Type
  3774 ;;                  1    wreg      void 
  3775 ;; Registers used:
  3776 ;;		wreg, status,2, status,0, pclath, cstack
  3777 ;; Tracked objects:
  3778 ;;		On entry : 0/0
  3779 ;;		On exit  : 0/0
  3780 ;;		Unchanged: 0/0
  3781 ;; Data sizes:     COMMON   BANK0   BANK1   BANK3   BANK2
  3782 ;;      Params:         0       0       0       0       0
  3783 ;;      Locals:         0       1       0       0       0
  3784 ;;      Temps:          0       2       0       0       0
  3785 ;;      Totals:         0       3       0       0       0
  3786 ;;Total ram usage:        3 bytes
  3787 ;; Hardware stack levels used:    1
  3788 ;; Hardware stack levels required when called:    4
  3789 ;; This function calls:
  3790 ;;		_Lcd_Port
  3791 ;; This function is called by:
  3792 ;;		_Lcd_Set_Cursor
  3793 ;;		_Lcd_Init
  3794 ;;		_Lcd_Clear
  3795 ;;		_Lcd_Shift_Right
  3796 ;;		_Lcd_Shift_Left
  3797 ;; This function uses a non-reentrant model
  3798 ;;
  3799                           
  3800                           
  3801                           ;psect for function _Lcd_Cmd
  3802  0780                     _Lcd_Cmd:
  3803                           
  3804                           ;incstack = 0
  3805                           ; Regs used in _Lcd_Cmd: [wreg+status,2+status,0+pclath+cstack]
  3806                           ;Lcd_Cmd@a stored from wreg
  3807  0780  1283               	bcf	3,5	;RP0=0, select bank0
  3808  0781  1303               	bcf	3,6	;RP1=0, select bank0
  3809  0782  00A3               	movwf	Lcd_Cmd@a
  3810  0783                     l1698:
  3811                           
  3812                           ;E:/UVG/Semestre 5/Digital2/Proyecto1/Proyecto1.X/LCD.c: 18:  PORTEbits.RE1 = 0;
  3813  0783  1089               	bcf	9,1	;volatile
  3814  0784                     l1700:
  3815                           
  3816                           ;E:/UVG/Semestre 5/Digital2/Proyecto1/Proyecto1.X/LCD.c: 19:  Lcd_Port(a);
  3817  0784  0823               	movf	Lcd_Cmd@a,w
  3818  0785  120A  118A  27F4  120A  118A  	fcall	_Lcd_Port
  3819  078A                     l1702:
  3820                           
  3821                           ;E:/UVG/Semestre 5/Digital2/Proyecto1/Proyecto1.X/LCD.c: 20:  PORTEbits.RE0 = 1;
  3822  078A  1283               	bcf	3,5	;RP0=0, select bank0
  3823  078B  1303               	bcf	3,6	;RP1=0, select bank0
  3824  078C  1409               	bsf	9,0	;volatile
  3825  078D                     l1704:
  3826                           
  3827                           ;E:/UVG/Semestre 5/Digital2/Proyecto1/Proyecto1.X/LCD.c: 21:     _delay((unsigned long)(
      +                          (10)*(4000000/4000.0)));
  3828  078D  300D               	movlw	13
  3829  078E  1283               	bcf	3,5	;RP0=0, select bank0
  3830  078F  1303               	bcf	3,6	;RP1=0, select bank0
  3831  0790  00A2               	movwf	??_Lcd_Cmd+1
  3832  0791  30FB               	movlw	251
  3833  0792  00A1               	movwf	??_Lcd_Cmd
  3834  0793                     u727:
  3835  0793  0BA1               	decfsz	??_Lcd_Cmd,f
  3836  0794  2F93               	goto	u727
  3837  0795  0BA2               	decfsz	??_Lcd_Cmd+1,f
  3838  0796  2F93               	goto	u727
  3839  0797                     l1706:
  3840                           
  3841                           ;E:/UVG/Semestre 5/Digital2/Proyecto1/Proyecto1.X/LCD.c: 22:     PORTEbits.RE0 = 0;
  3842  0797  1283               	bcf	3,5	;RP0=0, select bank0
  3843  0798  1303               	bcf	3,6	;RP1=0, select bank0
  3844  0799  1009               	bcf	9,0	;volatile
  3845  079A                     l222:
  3846  079A  0008               	return
  3847  079B                     __end_of_Lcd_Cmd:
  3848                           
  3849                           	psect	text21
  3850  07F4                     __ptext21:	
  3851 ;; *************** function _Lcd_Port *****************
  3852 ;; Defined at:
  3853 ;;		line 13 in file "E:/UVG/Semestre 5/Digital2/Proyecto1/Proyecto1.X/LCD.c"
  3854 ;; Parameters:    Size  Location     Type
  3855 ;;  a               1    wreg     unsigned char 
  3856 ;; Auto vars:     Size  Location     Type
  3857 ;;  a               1    0[BANK0 ] unsigned char 
  3858 ;; Return value:  Size  Location     Type
  3859 ;;                  1    wreg      void 
  3860 ;; Registers used:
  3861 ;;		wreg
  3862 ;; Tracked objects:
  3863 ;;		On entry : 0/0
  3864 ;;		On exit  : 0/0
  3865 ;;		Unchanged: 0/0
  3866 ;; Data sizes:     COMMON   BANK0   BANK1   BANK3   BANK2
  3867 ;;      Params:         0       0       0       0       0
  3868 ;;      Locals:         0       1       0       0       0
  3869 ;;      Temps:          0       0       0       0       0
  3870 ;;      Totals:         0       1       0       0       0
  3871 ;;Total ram usage:        1 bytes
  3872 ;; Hardware stack levels used:    1
  3873 ;; Hardware stack levels required when called:    3
  3874 ;; This function calls:
  3875 ;;		Nothing
  3876 ;; This function is called by:
  3877 ;;		_Lcd_Cmd
  3878 ;;		_Lcd_Init
  3879 ;;		_Lcd_Write_Char
  3880 ;; This function uses a non-reentrant model
  3881 ;;
  3882                           
  3883                           
  3884                           ;psect for function _Lcd_Port
  3885  07F4                     _Lcd_Port:
  3886                           
  3887                           ;incstack = 0
  3888                           ; Regs used in _Lcd_Port: [wreg]
  3889                           ;Lcd_Port@a stored from wreg
  3890  07F4  1283               	bcf	3,5	;RP0=0, select bank0
  3891  07F5  1303               	bcf	3,6	;RP1=0, select bank0
  3892  07F6  00A0               	movwf	Lcd_Port@a
  3893  07F7                     l1696:
  3894                           
  3895                           ;E:/UVG/Semestre 5/Digital2/Proyecto1/Proyecto1.X/LCD.c: 14:  PORTA = a;
  3896  07F7  0820               	movf	Lcd_Port@a,w
  3897  07F8  0085               	movwf	5	;volatile
  3898  07F9                     l219:
  3899  07F9  0008               	return
  3900  07FA                     __end_of_Lcd_Port:
  3901                           
  3902                           	psect	text22
  3903  0621                     __ptext22:	
  3904 ;; *************** function _Cambio *****************
  3905 ;; Defined at:
  3906 ;;		line 78 in file "E:/UVG/Semestre 5/Digital2/Proyecto1/Proyecto1.X/LCD.c"
  3907 ;; Parameters:    Size  Location     Type
  3908 ;;  numero          1    wreg     unsigned char 
  3909 ;; Auto vars:     Size  Location     Type
  3910 ;;  numero          1    2[BANK0 ] unsigned char 
  3911 ;; Return value:  Size  Location     Type
  3912 ;;                  1    wreg      PTR const unsigned char 
  3913 ;; Registers used:
  3914 ;;		wreg, fsr0l, fsr0h, status,2, status,0
  3915 ;; Tracked objects:
  3916 ;;		On entry : 0/0
  3917 ;;		On exit  : 0/0
  3918 ;;		Unchanged: 0/0
  3919 ;; Data sizes:     COMMON   BANK0   BANK1   BANK3   BANK2
  3920 ;;      Params:         0       0       0       0       0
  3921 ;;      Locals:         0       1       0       0       0
  3922 ;;      Temps:          0       2       0       0       0
  3923 ;;      Totals:         0       3       0       0       0
  3924 ;;Total ram usage:        3 bytes
  3925 ;; Hardware stack levels used:    1
  3926 ;; Hardware stack levels required when called:    3
  3927 ;; This function calls:
  3928 ;;		Nothing
  3929 ;; This function is called by:
  3930 ;;		_Conversiones
  3931 ;;		_Envio_Contador
  3932 ;;		_Envio_Temperatura
  3933 ;; This function uses a non-reentrant model
  3934 ;;
  3935                           
  3936                           
  3937                           ;psect for function _Cambio
  3938  0621                     _Cambio:
  3939                           
  3940                           ;incstack = 0
  3941                           ; Regs used in _Cambio: [wreg-fsr0h+status,2+status,0]
  3942                           ;Cambio@numero stored from wreg
  3943  0621  1283               	bcf	3,5	;RP0=0, select bank0
  3944  0622  1303               	bcf	3,6	;RP1=0, select bank0
  3945  0623  00A2               	movwf	Cambio@numero
  3946  0624                     l1734:
  3947                           
  3948                           ;E:/UVG/Semestre 5/Digital2/Proyecto1/Proyecto1.X/LCD.c: 79:     switch(numero){
  3949  0624  2E39               	goto	l1798
  3950  0625                     l1736:
  3951                           
  3952                           ;E:/UVG/Semestre 5/Digital2/Proyecto1/Proyecto1.X/LCD.c: 81:             return "0";
  3953  0625  300F               	movlw	(low ((STR_7-__stringbase)| (0+32768)))& (0+255)
  3954  0626  2E61               	goto	l254
  3955  0627                     l1742:
  3956                           
  3957                           ;E:/UVG/Semestre 5/Digital2/Proyecto1/Proyecto1.X/LCD.c: 84:             return "1";
  3958  0627  3011               	movlw	(low ((STR_8-__stringbase)| (0+32768)))& (0+255)
  3959  0628  2E61               	goto	l254
  3960  0629                     l1748:
  3961                           
  3962                           ;E:/UVG/Semestre 5/Digital2/Proyecto1/Proyecto1.X/LCD.c: 87:             return "2";
  3963  0629  3013               	movlw	(low ((STR_9-__stringbase)| (0+32768)))& (0+255)
  3964  062A  2E61               	goto	l254
  3965  062B                     l1754:
  3966                           
  3967                           ;E:/UVG/Semestre 5/Digital2/Proyecto1/Proyecto1.X/LCD.c: 90:             return "3";
  3968  062B  3015               	movlw	(low ((STR_10-__stringbase)| (0+32768)))& (0+255)
  3969  062C  2E61               	goto	l254
  3970  062D                     l1760:
  3971                           
  3972                           ;E:/UVG/Semestre 5/Digital2/Proyecto1/Proyecto1.X/LCD.c: 93:             return "4";
  3973  062D  3017               	movlw	(low ((STR_11-__stringbase)| (0+32768)))& (0+255)
  3974  062E  2E61               	goto	l254
  3975  062F                     l1766:
  3976                           
  3977                           ;E:/UVG/Semestre 5/Digital2/Proyecto1/Proyecto1.X/LCD.c: 96:             return "5";
  3978  062F  3019               	movlw	(low ((STR_12-__stringbase)| (0+32768)))& (0+255)
  3979  0630  2E61               	goto	l254
  3980  0631                     l1772:
  3981                           
  3982                           ;E:/UVG/Semestre 5/Digital2/Proyecto1/Proyecto1.X/LCD.c: 99:             return "6";
  3983  0631  301B               	movlw	(low ((STR_13-__stringbase)| (0+32768)))& (0+255)
  3984  0632  2E61               	goto	l254
  3985  0633                     l1778:
  3986                           
  3987                           ;E:/UVG/Semestre 5/Digital2/Proyecto1/Proyecto1.X/LCD.c: 102:             return "7";
  3988  0633  301D               	movlw	(low ((STR_14-__stringbase)| (0+32768)))& (0+255)
  3989  0634  2E61               	goto	l254
  3990  0635                     l1784:
  3991                           
  3992                           ;E:/UVG/Semestre 5/Digital2/Proyecto1/Proyecto1.X/LCD.c: 105:             return "8";
  3993  0635  301F               	movlw	(low ((STR_15-__stringbase)| (0+32768)))& (0+255)
  3994  0636  2E61               	goto	l254
  3995  0637                     l1790:
  3996                           
  3997                           ;E:/UVG/Semestre 5/Digital2/Proyecto1/Proyecto1.X/LCD.c: 108:             return "9";
  3998  0637  3021               	movlw	(low ((STR_16-__stringbase)| (0+32768)))& (0+255)
  3999  0638  2E61               	goto	l254
  4000  0639                     l1798:
  4001  0639  0822               	movf	Cambio@numero,w
  4002  063A  00A0               	movwf	??_Cambio
  4003  063B  01A1               	clrf	??_Cambio+1
  4004                           
  4005                           ; Switch on 2 bytes has been partitioned into a top level switch of size 1, and 1 sub-sw
      +                          itches
  4006                           ; Switch size 1, requested type "simple"
  4007                           ; Number of cases is 1, Range of values is 0 to 0
  4008                           ; switch strategies available:
  4009                           ; Name         Instructions Cycles
  4010                           ; simple_byte            4     3 (average)
  4011                           ; direct_byte           11     8 (fixed)
  4012                           ; jumptable            260     6 (fixed)
  4013                           ;	Chosen strategy is simple_byte
  4014  063C  0821               	movf	??_Cambio+1,w
  4015  063D  3A00               	xorlw	0	; case 0
  4016  063E  1903               	skipnz
  4017  063F  2E41               	goto	l2524
  4018  0640  2E61               	goto	l254
  4019  0641                     l2524:
  4020                           
  4021                           ; Switch size 1, requested type "simple"
  4022                           ; Number of cases is 10, Range of values is 0 to 9
  4023                           ; switch strategies available:
  4024                           ; Name         Instructions Cycles
  4025                           ; simple_byte           31    16 (average)
  4026                           ; direct_byte           38     8 (fixed)
  4027                           ; jumptable            260     6 (fixed)
  4028                           ;	Chosen strategy is simple_byte
  4029  0641  0820               	movf	??_Cambio,w
  4030  0642  3A00               	xorlw	0	; case 0
  4031  0643  1903               	skipnz
  4032  0644  2E25               	goto	l1736
  4033  0645  3A01               	xorlw	1	; case 1
  4034  0646  1903               	skipnz
  4035  0647  2E27               	goto	l1742
  4036  0648  3A03               	xorlw	3	; case 2
  4037  0649  1903               	skipnz
  4038  064A  2E29               	goto	l1748
  4039  064B  3A01               	xorlw	1	; case 3
  4040  064C  1903               	skipnz
  4041  064D  2E2B               	goto	l1754
  4042  064E  3A07               	xorlw	7	; case 4
  4043  064F  1903               	skipnz
  4044  0650  2E2D               	goto	l1760
  4045  0651  3A01               	xorlw	1	; case 5
  4046  0652  1903               	skipnz
  4047  0653  2E2F               	goto	l1766
  4048  0654  3A03               	xorlw	3	; case 6
  4049  0655  1903               	skipnz
  4050  0656  2E31               	goto	l1772
  4051  0657  3A01               	xorlw	1	; case 7
  4052  0658  1903               	skipnz
  4053  0659  2E33               	goto	l1778
  4054  065A  3A0F               	xorlw	15	; case 8
  4055  065B  1903               	skipnz
  4056  065C  2E35               	goto	l1784
  4057  065D  3A01               	xorlw	1	; case 9
  4058  065E  1903               	skipnz
  4059  065F  2E37               	goto	l1790
  4060  0660  2E61               	goto	l254
  4061  0661                     l254:
  4062  0661  0008               	return
  4063  0662                     __end_of_Cambio:
  4064                           
  4065                           	psect	text23
  4066  06F4                     __ptext23:	
  4067 ;; *************** function _isr *****************
  4068 ;; Defined at:
  4069 ;;		line 78 in file "E:/UVG/Semestre 5/Digital2/Proyecto1/Proyecto1.X/code.c"
  4070 ;; Parameters:    Size  Location     Type
  4071 ;;		None
  4072 ;; Auto vars:     Size  Location     Type
  4073 ;;		None
  4074 ;; Return value:  Size  Location     Type
  4075 ;;                  1    wreg      void 
  4076 ;; Registers used:
  4077 ;;		wreg, fsr0l, fsr0h, status,2, status,0, pclath, cstack
  4078 ;; Tracked objects:
  4079 ;;		On entry : 0/0
  4080 ;;		On exit  : 0/0
  4081 ;;		Unchanged: 0/0
  4082 ;; Data sizes:     COMMON   BANK0   BANK1   BANK3   BANK2
  4083 ;;      Params:         0       0       0       0       0
  4084 ;;      Locals:         0       0       0       0       0
  4085 ;;      Temps:          4       0       0       0       0
  4086 ;;      Totals:         4       0       0       0       0
  4087 ;;Total ram usage:        4 bytes
  4088 ;; Hardware stack levels used:    1
  4089 ;; Hardware stack levels required when called:    2
  4090 ;; This function calls:
  4091 ;;		_Envio
  4092 ;; This function is called by:
  4093 ;;		Interrupt level 1
  4094 ;; This function uses a non-reentrant model
  4095 ;;
  4096                           
  4097                           
  4098                           ;psect for function _isr
  4099  06F4                     _isr:
  4100  06F4                     i1l2334:
  4101                           
  4102                           ;E:/UVG/Semestre 5/Digital2/Proyecto1/Proyecto1.X/code.c: 79:     (INTCONbits.GIE = 0);
  4103  06F4  138B               	bcf	11,7	;volatile
  4104                           
  4105                           ;E:/UVG/Semestre 5/Digital2/Proyecto1/Proyecto1.X/code.c: 81:     if(INTCONbits.T0IF == 
      +                          1){
  4106  06F5  1D0B               	btfss	11,2	;volatile
  4107  06F6  2EF8               	goto	u64_21
  4108  06F7  2EF9               	goto	u64_20
  4109  06F8                     u64_21:
  4110  06F8  2F02               	goto	i1l2342
  4111  06F9                     u64_20:
  4112  06F9                     i1l2336:
  4113                           
  4114                           ;E:/UVG/Semestre 5/Digital2/Proyecto1/Proyecto1.X/code.c: 82:         TMR0 = 236;
  4115  06F9  30EC               	movlw	236
  4116  06FA  1283               	bcf	3,5	;RP0=0, select bank0
  4117  06FB  1303               	bcf	3,6	;RP1=0, select bank0
  4118  06FC  0081               	movwf	1	;volatile
  4119  06FD                     i1l2338:
  4120                           
  4121                           ;E:/UVG/Semestre 5/Digital2/Proyecto1/Proyecto1.X/code.c: 83:         CONTADOR++;
  4122  06FD  3001               	movlw	1
  4123  06FE  00F6               	movwf	??_isr
  4124  06FF  0876               	movf	??_isr,w
  4125  0700  07C0               	addwf	_CONTADOR,f
  4126  0701                     i1l2340:
  4127                           
  4128                           ;E:/UVG/Semestre 5/Digital2/Proyecto1/Proyecto1.X/code.c: 84:         INTCONbits.T0IF = 
      +                          0;
  4129  0701  110B               	bcf	11,2	;volatile
  4130  0702                     i1l2342:
  4131                           
  4132                           ;E:/UVG/Semestre 5/Digital2/Proyecto1/Proyecto1.X/code.c: 87:     if(PIR1bits.TXIF == 1)
      +                          {
  4133  0702  1283               	bcf	3,5	;RP0=0, select bank0
  4134  0703  1303               	bcf	3,6	;RP1=0, select bank0
  4135  0704  1E0C               	btfss	12,4	;volatile
  4136  0705  2F07               	goto	u65_21
  4137  0706  2F08               	goto	u65_20
  4138  0707                     u65_21:
  4139  0707  2F13               	goto	i1l2348
  4140  0708                     u65_20:
  4141  0708                     i1l2344:
  4142                           
  4143                           ;E:/UVG/Semestre 5/Digital2/Proyecto1/Proyecto1.X/code.c: 88:         TXREG = Envio();
  4144  0708  120A  118A  2112  120A  118A  	fcall	_Envio
  4145  070D  1283               	bcf	3,5	;RP0=0, select bank0
  4146  070E  1303               	bcf	3,6	;RP1=0, select bank0
  4147  070F  0099               	movwf	25	;volatile
  4148  0710                     i1l2346:
  4149                           
  4150                           ;E:/UVG/Semestre 5/Digital2/Proyecto1/Proyecto1.X/code.c: 89:         PIE1bits.TXIE = 0;
  4151  0710  1683               	bsf	3,5	;RP0=1, select bank1
  4152  0711  1303               	bcf	3,6	;RP1=0, select bank1
  4153  0712  120C               	bcf	12,4	;volatile
  4154  0713                     i1l2348:
  4155                           
  4156                           ;E:/UVG/Semestre 5/Digital2/Proyecto1/Proyecto1.X/code.c: 91:     (INTCONbits.GIE = 1);
  4157  0713  178B               	bsf	11,7	;volatile
  4158  0714                     i1l125:
  4159  0714  0879               	movf	??_isr+3,w
  4160  0715  008A               	movwf	10
  4161  0716  0878               	movf	??_isr+2,w
  4162  0717  0084               	movwf	4
  4163  0718  0E77               	swapf	??_isr+1,w
  4164  0719  0083               	movwf	3
  4165  071A  0EFE               	swapf	btemp,f
  4166  071B  0E7E               	swapf	btemp,w
  4167  071C  0009               	retfie
  4168  071D                     __end_of_isr:
  4169                           
  4170                           	psect	intentry
  4171  0004                     __pintentry:	
  4172                           ;incstack = 0
  4173                           ; Regs used in _isr: [wreg-fsr0h+status,2+status,0+pclath+cstack]
  4174                           
  4175  0004                     interrupt_function:
  4176  007E                     saved_w	set	btemp
  4177  0004  00FE               	movwf	btemp
  4178  0005  0E03               	swapf	3,w
  4179  0006  00F7               	movwf	??_isr+1
  4180  0007  0804               	movf	4,w
  4181  0008  00F8               	movwf	??_isr+2
  4182  0009  080A               	movf	10,w
  4183  000A  00F9               	movwf	??_isr+3
  4184  000B  120A  118A  2EF4   	ljmp	_isr
  4185                           
  4186                           	psect	text24
  4187  0112                     __ptext24:	
  4188 ;; *************** function _Envio *****************
  4189 ;; Defined at:
  4190 ;;		line 213 in file "E:/UVG/Semestre 5/Digital2/Proyecto1/Proyecto1.X/code.c"
  4191 ;; Parameters:    Size  Location     Type
  4192 ;;		None
  4193 ;; Auto vars:     Size  Location     Type
  4194 ;;  temporal        1    5[COMMON] unsigned char 
  4195 ;; Return value:  Size  Location     Type
  4196 ;;                  1    wreg      unsigned char 
  4197 ;; Registers used:
  4198 ;;		wreg, fsr0l, fsr0h, status,2, status,0, pclath, cstack
  4199 ;; Tracked objects:
  4200 ;;		On entry : 0/0
  4201 ;;		On exit  : 0/0
  4202 ;;		Unchanged: 0/0
  4203 ;; Data sizes:     COMMON   BANK0   BANK1   BANK3   BANK2
  4204 ;;      Params:         0       0       0       0       0
  4205 ;;      Locals:         1       0       0       0       0
  4206 ;;      Temps:          2       0       0       0       0
  4207 ;;      Totals:         3       0       0       0       0
  4208 ;;Total ram usage:        3 bytes
  4209 ;; Hardware stack levels used:    1
  4210 ;; Hardware stack levels required when called:    1
  4211 ;; This function calls:
  4212 ;;		_ASCII
  4213 ;; This function is called by:
  4214 ;;		_isr
  4215 ;; This function uses a non-reentrant model
  4216 ;;
  4217                           
  4218                           
  4219                           ;psect for function _Envio
  4220  0112                     _Envio:
  4221  0112                     i1l2094:	
  4222                           ;incstack = 0
  4223                           ; Regs used in _Envio: [wreg-fsr0h+status,2+status,0+pclath+cstack]
  4224                           
  4225                           
  4226                           ;E:/UVG/Semestre 5/Digital2/Proyecto1/Proyecto1.X/code.c: 214:     uint8_t temporal;;E:/
      +                          UVG/Semestre 5/Digital2/Proyecto1/Proyecto1.X/code.c: 215:     switch(FLAGTX){
  4227  0112  29AA               	goto	i1l2220
  4228  0113                     i1l2096:
  4229                           
  4230                           ;E:/UVG/Semestre 5/Digital2/Proyecto1/Proyecto1.X/code.c: 217:             FLAGTX++;
  4231  0113  3001               	movlw	1
  4232  0114  00F3               	movwf	??_Envio
  4233  0115  0873               	movf	??_Envio,w
  4234  0116  07FD               	addwf	_FLAGTX,f
  4235  0117                     i1l2098:
  4236                           
  4237                           ;E:/UVG/Semestre 5/Digital2/Proyecto1/Proyecto1.X/code.c: 218:             return 0x28;
  4238  0117  3028               	movlw	40
  4239  0118  29E1               	goto	i1l150
  4240  0119                     i1l2104:
  4241                           
  4242                           ;E:/UVG/Semestre 5/Digital2/Proyecto1/Proyecto1.X/code.c: 221:             FLAGTX++;
  4243  0119  3001               	movlw	1
  4244  011A  00F3               	movwf	??_Envio
  4245  011B  0873               	movf	??_Envio,w
  4246  011C  07FD               	addwf	_FLAGTX,f
  4247  011D                     i1l2106:
  4248                           
  4249                           ;E:/UVG/Semestre 5/Digital2/Proyecto1/Proyecto1.X/code.c: 222:             return ASCII(
      +                          unidades_adc);
  4250  011D  1283               	bcf	3,5	;RP0=0, select bank0
  4251  011E  1303               	bcf	3,6	;RP1=0, select bank0
  4252  011F  083B               	movf	_unidades_adc,w
  4253  0120  120A  118A  257E  120A  118A  	fcall	_ASCII
  4254  0125  29E1               	goto	i1l150
  4255  0126                     i1l2112:
  4256                           
  4257                           ;E:/UVG/Semestre 5/Digital2/Proyecto1/Proyecto1.X/code.c: 225:             FLAGTX++;
  4258  0126  3001               	movlw	1
  4259  0127  00F3               	movwf	??_Envio
  4260  0128  0873               	movf	??_Envio,w
  4261  0129  07FD               	addwf	_FLAGTX,f
  4262  012A                     i1l2114:
  4263                           
  4264                           ;E:/UVG/Semestre 5/Digital2/Proyecto1/Proyecto1.X/code.c: 226:             return 0x2E;
  4265  012A  302E               	movlw	46
  4266  012B  29E1               	goto	i1l150
  4267  012C                     i1l2120:
  4268                           
  4269                           ;E:/UVG/Semestre 5/Digital2/Proyecto1/Proyecto1.X/code.c: 229:             FLAGTX++;
  4270  012C  3001               	movlw	1
  4271  012D  00F3               	movwf	??_Envio
  4272  012E  0873               	movf	??_Envio,w
  4273  012F  07FD               	addwf	_FLAGTX,f
  4274  0130                     i1l2122:
  4275                           
  4276                           ;E:/UVG/Semestre 5/Digital2/Proyecto1/Proyecto1.X/code.c: 230:             return ASCII(
      +                          decimas_adc);
  4277  0130  1283               	bcf	3,5	;RP0=0, select bank0
  4278  0131  1303               	bcf	3,6	;RP1=0, select bank0
  4279  0132  083A               	movf	_decimas_adc,w
  4280  0133  120A  118A  257E  120A  118A  	fcall	_ASCII
  4281  0138  29E1               	goto	i1l150
  4282  0139                     i1l2128:
  4283                           
  4284                           ;E:/UVG/Semestre 5/Digital2/Proyecto1/Proyecto1.X/code.c: 233:             FLAGTX++;
  4285  0139  3001               	movlw	1
  4286  013A  00F3               	movwf	??_Envio
  4287  013B  0873               	movf	??_Envio,w
  4288  013C  07FD               	addwf	_FLAGTX,f
  4289  013D                     i1l2130:
  4290                           
  4291                           ;E:/UVG/Semestre 5/Digital2/Proyecto1/Proyecto1.X/code.c: 234:             return ASCII(
      +                          centimas_adc);
  4292  013D  1283               	bcf	3,5	;RP0=0, select bank0
  4293  013E  1303               	bcf	3,6	;RP1=0, select bank0
  4294  013F  0839               	movf	_centimas_adc,w
  4295  0140  120A  118A  257E  120A  118A  	fcall	_ASCII
  4296  0145  29E1               	goto	i1l150
  4297  0146                     i1l2136:
  4298                           
  4299                           ;E:/UVG/Semestre 5/Digital2/Proyecto1/Proyecto1.X/code.c: 237:             FLAGTX++;
  4300  0146  3001               	movlw	1
  4301  0147  00F3               	movwf	??_Envio
  4302  0148  0873               	movf	??_Envio,w
  4303  0149  07FD               	addwf	_FLAGTX,f
  4304  014A                     i1l2138:
  4305                           
  4306                           ;E:/UVG/Semestre 5/Digital2/Proyecto1/Proyecto1.X/code.c: 238:             return 0x2C;
  4307  014A  302C               	movlw	44
  4308  014B  29E1               	goto	i1l150
  4309  014C                     i1l2144:
  4310                           
  4311                           ;E:/UVG/Semestre 5/Digital2/Proyecto1/Proyecto1.X/code.c: 241:             temporal = (C
      +                          OUNTER & 0xF0)>>4;
  4312  014C  1283               	bcf	3,5	;RP0=0, select bank0
  4313  014D  1303               	bcf	3,6	;RP1=0, select bank0
  4314  014E  083E               	movf	_COUNTER,w
  4315  014F  00F3               	movwf	??_Envio
  4316  0150  3004               	movlw	4
  4317  0151                     u62_25:
  4318  0151  1003               	clrc
  4319  0152  0CF3               	rrf	??_Envio,f
  4320  0153  3EFF               	addlw	-1
  4321  0154  1D03               	skipz
  4322  0155  2951               	goto	u62_25
  4323  0156  0873               	movf	??_Envio,w
  4324  0157  390F               	andlw	15
  4325  0158  00F4               	movwf	??_Envio+1
  4326  0159  0874               	movf	??_Envio+1,w
  4327  015A  00F5               	movwf	Envio@temporal
  4328                           
  4329                           ;E:/UVG/Semestre 5/Digital2/Proyecto1/Proyecto1.X/code.c: 242:             FLAGTX++;
  4330  015B  3001               	movlw	1
  4331  015C  00F3               	movwf	??_Envio
  4332  015D  0873               	movf	??_Envio,w
  4333  015E  07FD               	addwf	_FLAGTX,f
  4334  015F                     i1l2146:
  4335                           
  4336                           ;E:/UVG/Semestre 5/Digital2/Proyecto1/Proyecto1.X/code.c: 243:             return ASCII(
      +                          temporal);
  4337  015F  0875               	movf	Envio@temporal,w
  4338  0160  120A  118A  257E  120A  118A  	fcall	_ASCII
  4339  0165  29E1               	goto	i1l150
  4340  0166                     i1l2152:
  4341                           
  4342                           ;E:/UVG/Semestre 5/Digital2/Proyecto1/Proyecto1.X/code.c: 246:             temporal = CO
      +                          UNTER & 0x0F;
  4343  0166  1283               	bcf	3,5	;RP0=0, select bank0
  4344  0167  1303               	bcf	3,6	;RP1=0, select bank0
  4345  0168  083E               	movf	_COUNTER,w
  4346  0169  390F               	andlw	15
  4347  016A  00F3               	movwf	??_Envio
  4348  016B  0873               	movf	??_Envio,w
  4349  016C  00F5               	movwf	Envio@temporal
  4350  016D                     i1l2154:
  4351                           
  4352                           ;E:/UVG/Semestre 5/Digital2/Proyecto1/Proyecto1.X/code.c: 247:             FLAGTX++;
  4353  016D  3001               	movlw	1
  4354  016E  00F3               	movwf	??_Envio
  4355  016F  0873               	movf	??_Envio,w
  4356  0170  07FD               	addwf	_FLAGTX,f
  4357  0171                     i1l2156:
  4358                           
  4359                           ;E:/UVG/Semestre 5/Digital2/Proyecto1/Proyecto1.X/code.c: 248:             return ASCII(
      +                          temporal);
  4360  0171  0875               	movf	Envio@temporal,w
  4361  0172  120A  118A  257E  120A  118A  	fcall	_ASCII
  4362  0177  29E1               	goto	i1l150
  4363  0178                     i1l2170:
  4364                           
  4365                           ;E:/UVG/Semestre 5/Digital2/Proyecto1/Proyecto1.X/code.c: 255:             FLAGTX++;
  4366  0178  3001               	movlw	1
  4367  0179  00F3               	movwf	??_Envio
  4368  017A  0873               	movf	??_Envio,w
  4369  017B  07FD               	addwf	_FLAGTX,f
  4370  017C                     i1l2172:
  4371                           
  4372                           ;E:/UVG/Semestre 5/Digital2/Proyecto1/Proyecto1.X/code.c: 256:             return SIGNO;
  4373  017C  1283               	bcf	3,5	;RP0=0, select bank0
  4374  017D  1303               	bcf	3,6	;RP1=0, select bank0
  4375  017E  0838               	movf	_SIGNO,w
  4376  017F  29E1               	goto	i1l150
  4377  0180                     i1l2178:
  4378                           
  4379                           ;E:/UVG/Semestre 5/Digital2/Proyecto1/Proyecto1.X/code.c: 259:             FLAGTX++;
  4380  0180  3001               	movlw	1
  4381  0181  00F3               	movwf	??_Envio
  4382  0182  0873               	movf	??_Envio,w
  4383  0183  07FD               	addwf	_FLAGTX,f
  4384  0184                     i1l2180:
  4385                           
  4386                           ;E:/UVG/Semestre 5/Digital2/Proyecto1/Proyecto1.X/code.c: 260:             return ASCII(
      +                          unidades_temp);
  4387  0184  087C               	movf	_unidades_temp,w
  4388  0185  120A  118A  257E  120A  118A  	fcall	_ASCII
  4389  018A  29E1               	goto	i1l150
  4390  018B                     i1l2186:
  4391                           
  4392                           ;E:/UVG/Semestre 5/Digital2/Proyecto1/Proyecto1.X/code.c: 263:             FLAGTX++;
  4393  018B  3001               	movlw	1
  4394  018C  00F3               	movwf	??_Envio
  4395  018D  0873               	movf	??_Envio,w
  4396  018E  07FD               	addwf	_FLAGTX,f
  4397  018F                     i1l2188:
  4398                           
  4399                           ;E:/UVG/Semestre 5/Digital2/Proyecto1/Proyecto1.X/code.c: 264:             return ASCII(
      +                          decimas_temp);
  4400  018F  087B               	movf	_decimas_temp,w
  4401  0190  120A  118A  257E  120A  118A  	fcall	_ASCII
  4402  0195  29E1               	goto	i1l150
  4403  0196                     i1l2194:
  4404                           
  4405                           ;E:/UVG/Semestre 5/Digital2/Proyecto1/Proyecto1.X/code.c: 267:             FLAGTX++;
  4406  0196  3001               	movlw	1
  4407  0197  00F3               	movwf	??_Envio
  4408  0198  0873               	movf	??_Envio,w
  4409  0199  07FD               	addwf	_FLAGTX,f
  4410  019A                     i1l2196:
  4411                           
  4412                           ;E:/UVG/Semestre 5/Digital2/Proyecto1/Proyecto1.X/code.c: 268:             return ASCII(
      +                          centimas_temp);
  4413  019A  087A               	movf	_centimas_temp,w
  4414  019B  120A  118A  257E  120A  118A  	fcall	_ASCII
  4415  01A0  29E1               	goto	i1l150
  4416  01A1                     i1l2202:
  4417                           
  4418                           ;E:/UVG/Semestre 5/Digital2/Proyecto1/Proyecto1.X/code.c: 271:             FLAGTX++;
  4419  01A1  3001               	movlw	1
  4420  01A2  00F3               	movwf	??_Envio
  4421  01A3  0873               	movf	??_Envio,w
  4422  01A4  07FD               	addwf	_FLAGTX,f
  4423  01A5                     i1l2204:
  4424                           
  4425                           ;E:/UVG/Semestre 5/Digital2/Proyecto1/Proyecto1.X/code.c: 272:             return 0x29;
  4426  01A5  3029               	movlw	41
  4427  01A6  29E1               	goto	i1l150
  4428  01A7                     i1l2210:
  4429                           
  4430                           ;E:/UVG/Semestre 5/Digital2/Proyecto1/Proyecto1.X/code.c: 275:             FLAGTX = 0;
  4431  01A7  01FD               	clrf	_FLAGTX
  4432  01A8                     i1l2212:
  4433                           
  4434                           ;E:/UVG/Semestre 5/Digital2/Proyecto1/Proyecto1.X/code.c: 276:             return 0x0D;
  4435  01A8  300D               	movlw	13
  4436  01A9  29E1               	goto	i1l150
  4437  01AA                     i1l2220:
  4438  01AA  087D               	movf	_FLAGTX,w
  4439  01AB  00F3               	movwf	??_Envio
  4440  01AC  01F4               	clrf	??_Envio+1
  4441                           
  4442                           ; Switch on 2 bytes has been partitioned into a top level switch of size 1, and 1 sub-sw
      +                          itches
  4443                           ; Switch size 1, requested type "simple"
  4444                           ; Number of cases is 1, Range of values is 0 to 0
  4445                           ; switch strategies available:
  4446                           ; Name         Instructions Cycles
  4447                           ; simple_byte            4     3 (average)
  4448                           ; direct_byte           11     8 (fixed)
  4449                           ; jumptable            260     6 (fixed)
  4450                           ;	Chosen strategy is simple_byte
  4451  01AD  0874               	movf	??_Envio+1,w
  4452  01AE  3A00               	xorlw	0	; case 0
  4453  01AF  1903               	skipnz
  4454  01B0  29B2               	goto	i1l2526
  4455  01B1  29E1               	goto	i1l150
  4456  01B2                     i1l2526:
  4457                           
  4458                           ; Switch size 1, requested type "simple"
  4459                           ; Number of cases is 15, Range of values is 0 to 14
  4460                           ; switch strategies available:
  4461                           ; Name         Instructions Cycles
  4462                           ; simple_byte           46    24 (average)
  4463                           ; direct_byte           53     8 (fixed)
  4464                           ; jumptable            260     6 (fixed)
  4465                           ;	Chosen strategy is simple_byte
  4466  01B2  0873               	movf	??_Envio,w
  4467  01B3  3A00               	xorlw	0	; case 0
  4468  01B4  1903               	skipnz
  4469  01B5  2913               	goto	i1l2096
  4470  01B6  3A01               	xorlw	1	; case 1
  4471  01B7  1903               	skipnz
  4472  01B8  2919               	goto	i1l2104
  4473  01B9  3A03               	xorlw	3	; case 2
  4474  01BA  1903               	skipnz
  4475  01BB  2926               	goto	i1l2112
  4476  01BC  3A01               	xorlw	1	; case 3
  4477  01BD  1903               	skipnz
  4478  01BE  292C               	goto	i1l2120
  4479  01BF  3A07               	xorlw	7	; case 4
  4480  01C0  1903               	skipnz
  4481  01C1  2939               	goto	i1l2128
  4482  01C2  3A01               	xorlw	1	; case 5
  4483  01C3  1903               	skipnz
  4484  01C4  2946               	goto	i1l2136
  4485  01C5  3A03               	xorlw	3	; case 6
  4486  01C6  1903               	skipnz
  4487  01C7  294C               	goto	i1l2144
  4488  01C8  3A01               	xorlw	1	; case 7
  4489  01C9  1903               	skipnz
  4490  01CA  2966               	goto	i1l2152
  4491  01CB  3A0F               	xorlw	15	; case 8
  4492  01CC  1903               	skipnz
  4493  01CD  2946               	goto	i1l2136
  4494  01CE  3A01               	xorlw	1	; case 9
  4495  01CF  1903               	skipnz
  4496  01D0  2978               	goto	i1l2170
  4497  01D1  3A03               	xorlw	3	; case 10
  4498  01D2  1903               	skipnz
  4499  01D3  2980               	goto	i1l2178
  4500  01D4  3A01               	xorlw	1	; case 11
  4501  01D5  1903               	skipnz
  4502  01D6  298B               	goto	i1l2186
  4503  01D7  3A07               	xorlw	7	; case 12
  4504  01D8  1903               	skipnz
  4505  01D9  2996               	goto	i1l2194
  4506  01DA  3A01               	xorlw	1	; case 13
  4507  01DB  1903               	skipnz
  4508  01DC  29A1               	goto	i1l2202
  4509  01DD  3A03               	xorlw	3	; case 14
  4510  01DE  1903               	skipnz
  4511  01DF  29A7               	goto	i1l2210
  4512  01E0  29E1               	goto	i1l150
  4513  01E1                     i1l150:
  4514  01E1  0008               	return
  4515  01E2                     __end_of_Envio:
  4516                           
  4517                           	psect	text25
  4518  057E                     __ptext25:	
  4519 ;; *************** function _ASCII *****************
  4520 ;; Defined at:
  4521 ;;		line 22 in file "E:/UVG/Semestre 5/Digital2/Proyecto1/Proyecto1.X/USART.c"
  4522 ;; Parameters:    Size  Location     Type
  4523 ;;  valor           1    wreg     unsigned char 
  4524 ;; Auto vars:     Size  Location     Type
  4525 ;;  valor           1    2[COMMON] unsigned char 
  4526 ;; Return value:  Size  Location     Type
  4527 ;;                  1    wreg      unsigned char 
  4528 ;; Registers used:
  4529 ;;		wreg, fsr0l, fsr0h, status,2, status,0
  4530 ;; Tracked objects:
  4531 ;;		On entry : 0/0
  4532 ;;		On exit  : 0/0
  4533 ;;		Unchanged: 0/0
  4534 ;; Data sizes:     COMMON   BANK0   BANK1   BANK3   BANK2
  4535 ;;      Params:         0       0       0       0       0
  4536 ;;      Locals:         1       0       0       0       0
  4537 ;;      Temps:          2       0       0       0       0
  4538 ;;      Totals:         3       0       0       0       0
  4539 ;;Total ram usage:        3 bytes
  4540 ;; Hardware stack levels used:    1
  4541 ;; This function calls:
  4542 ;;		Nothing
  4543 ;; This function is called by:
  4544 ;;		_Envio
  4545 ;; This function uses a non-reentrant model
  4546 ;;
  4547                           
  4548                           
  4549                           ;psect for function _ASCII
  4550  057E                     _ASCII:
  4551                           
  4552                           ;incstack = 0
  4553                           ; Regs used in _ASCII: [wreg-fsr0h+status,2+status,0]
  4554                           ;ASCII@valor stored from wreg
  4555  057E  00F2               	movwf	ASCII@valor
  4556  057F                     i1l1922:
  4557                           
  4558                           ;E:/UVG/Semestre 5/Digital2/Proyecto1/Proyecto1.X/USART.c: 23:     switch(valor){
  4559  057F  2DA0               	goto	i1l2022
  4560  0580                     i1l1924:
  4561                           
  4562                           ;E:/UVG/Semestre 5/Digital2/Proyecto1/Proyecto1.X/USART.c: 25:             return 0x30;
  4563  0580  3030               	movlw	48
  4564  0581  2DDA               	goto	i1l282
  4565  0582                     i1l1930:
  4566                           
  4567                           ;E:/UVG/Semestre 5/Digital2/Proyecto1/Proyecto1.X/USART.c: 28:             return 0x31;
  4568  0582  3031               	movlw	49
  4569  0583  2DDA               	goto	i1l282
  4570  0584                     i1l1936:
  4571                           
  4572                           ;E:/UVG/Semestre 5/Digital2/Proyecto1/Proyecto1.X/USART.c: 31:             return 0x32;
  4573  0584  3032               	movlw	50
  4574  0585  2DDA               	goto	i1l282
  4575  0586                     i1l1942:
  4576                           
  4577                           ;E:/UVG/Semestre 5/Digital2/Proyecto1/Proyecto1.X/USART.c: 34:             return 0x33;
  4578  0586  3033               	movlw	51
  4579  0587  2DDA               	goto	i1l282
  4580  0588                     i1l1948:
  4581                           
  4582                           ;E:/UVG/Semestre 5/Digital2/Proyecto1/Proyecto1.X/USART.c: 37:             return 0x34;
  4583  0588  3034               	movlw	52
  4584  0589  2DDA               	goto	i1l282
  4585  058A                     i1l1954:
  4586                           
  4587                           ;E:/UVG/Semestre 5/Digital2/Proyecto1/Proyecto1.X/USART.c: 40:             return 0x35;
  4588  058A  3035               	movlw	53
  4589  058B  2DDA               	goto	i1l282
  4590  058C                     i1l1960:
  4591                           
  4592                           ;E:/UVG/Semestre 5/Digital2/Proyecto1/Proyecto1.X/USART.c: 43:             return 0x36;
  4593  058C  3036               	movlw	54
  4594  058D  2DDA               	goto	i1l282
  4595  058E                     i1l1966:
  4596                           
  4597                           ;E:/UVG/Semestre 5/Digital2/Proyecto1/Proyecto1.X/USART.c: 46:             return 0x37;
  4598  058E  3037               	movlw	55
  4599  058F  2DDA               	goto	i1l282
  4600  0590                     i1l1972:
  4601                           
  4602                           ;E:/UVG/Semestre 5/Digital2/Proyecto1/Proyecto1.X/USART.c: 49:             return 0x38;
  4603  0590  3038               	movlw	56
  4604  0591  2DDA               	goto	i1l282
  4605  0592                     i1l1978:
  4606                           
  4607                           ;E:/UVG/Semestre 5/Digital2/Proyecto1/Proyecto1.X/USART.c: 52:             return 0x39;
  4608  0592  3039               	movlw	57
  4609  0593  2DDA               	goto	i1l282
  4610  0594                     i1l1984:
  4611                           
  4612                           ;E:/UVG/Semestre 5/Digital2/Proyecto1/Proyecto1.X/USART.c: 55:             return 0x41;
  4613  0594  3041               	movlw	65
  4614  0595  2DDA               	goto	i1l282
  4615  0596                     i1l1990:
  4616                           
  4617                           ;E:/UVG/Semestre 5/Digital2/Proyecto1/Proyecto1.X/USART.c: 58:             return 0x42;
  4618  0596  3042               	movlw	66
  4619  0597  2DDA               	goto	i1l282
  4620  0598                     i1l1996:
  4621                           
  4622                           ;E:/UVG/Semestre 5/Digital2/Proyecto1/Proyecto1.X/USART.c: 61:             return 0x43;
  4623  0598  3043               	movlw	67
  4624  0599  2DDA               	goto	i1l282
  4625  059A                     i1l2002:
  4626                           
  4627                           ;E:/UVG/Semestre 5/Digital2/Proyecto1/Proyecto1.X/USART.c: 64:             return 0x44;
  4628  059A  3044               	movlw	68
  4629  059B  2DDA               	goto	i1l282
  4630  059C                     i1l2008:
  4631                           
  4632                           ;E:/UVG/Semestre 5/Digital2/Proyecto1/Proyecto1.X/USART.c: 67:             return 0x45;
  4633  059C  3045               	movlw	69
  4634  059D  2DDA               	goto	i1l282
  4635  059E                     i1l2014:
  4636                           
  4637                           ;E:/UVG/Semestre 5/Digital2/Proyecto1/Proyecto1.X/USART.c: 70:             return 0x46;
  4638  059E  3046               	movlw	70
  4639  059F  2DDA               	goto	i1l282
  4640  05A0                     i1l2022:
  4641  05A0  0872               	movf	ASCII@valor,w
  4642  05A1  00F0               	movwf	??_ASCII
  4643  05A2  01F1               	clrf	??_ASCII+1
  4644                           
  4645                           ; Switch on 2 bytes has been partitioned into a top level switch of size 1, and 1 sub-sw
      +                          itches
  4646                           ; Switch size 1, requested type "simple"
  4647                           ; Number of cases is 1, Range of values is 0 to 0
  4648                           ; switch strategies available:
  4649                           ; Name         Instructions Cycles
  4650                           ; simple_byte            4     3 (average)
  4651                           ; direct_byte           11     8 (fixed)
  4652                           ; jumptable            260     6 (fixed)
  4653                           ;	Chosen strategy is simple_byte
  4654  05A3  0871               	movf	??_ASCII+1,w
  4655  05A4  3A00               	xorlw	0	; case 0
  4656  05A5  1903               	skipnz
  4657  05A6  2DA8               	goto	i1l2528
  4658  05A7  2DDA               	goto	i1l282
  4659  05A8                     i1l2528:
  4660                           
  4661                           ; Switch size 1, requested type "simple"
  4662                           ; Number of cases is 16, Range of values is 0 to 15
  4663                           ; switch strategies available:
  4664                           ; Name         Instructions Cycles
  4665                           ; simple_byte           49    25 (average)
  4666                           ; direct_byte           56     8 (fixed)
  4667                           ; jumptable            260     6 (fixed)
  4668                           ;	Chosen strategy is simple_byte
  4669  05A8  0870               	movf	??_ASCII,w
  4670  05A9  3A00               	xorlw	0	; case 0
  4671  05AA  1903               	skipnz
  4672  05AB  2D80               	goto	i1l1924
  4673  05AC  3A01               	xorlw	1	; case 1
  4674  05AD  1903               	skipnz
  4675  05AE  2D82               	goto	i1l1930
  4676  05AF  3A03               	xorlw	3	; case 2
  4677  05B0  1903               	skipnz
  4678  05B1  2D84               	goto	i1l1936
  4679  05B2  3A01               	xorlw	1	; case 3
  4680  05B3  1903               	skipnz
  4681  05B4  2D86               	goto	i1l1942
  4682  05B5  3A07               	xorlw	7	; case 4
  4683  05B6  1903               	skipnz
  4684  05B7  2D88               	goto	i1l1948
  4685  05B8  3A01               	xorlw	1	; case 5
  4686  05B9  1903               	skipnz
  4687  05BA  2D8A               	goto	i1l1954
  4688  05BB  3A03               	xorlw	3	; case 6
  4689  05BC  1903               	skipnz
  4690  05BD  2D8C               	goto	i1l1960
  4691  05BE  3A01               	xorlw	1	; case 7
  4692  05BF  1903               	skipnz
  4693  05C0  2D8E               	goto	i1l1966
  4694  05C1  3A0F               	xorlw	15	; case 8
  4695  05C2  1903               	skipnz
  4696  05C3  2D90               	goto	i1l1972
  4697  05C4  3A01               	xorlw	1	; case 9
  4698  05C5  1903               	skipnz
  4699  05C6  2D92               	goto	i1l1978
  4700  05C7  3A03               	xorlw	3	; case 10
  4701  05C8  1903               	skipnz
  4702  05C9  2D94               	goto	i1l1984
  4703  05CA  3A01               	xorlw	1	; case 11
  4704  05CB  1903               	skipnz
  4705  05CC  2D96               	goto	i1l1990
  4706  05CD  3A07               	xorlw	7	; case 12
  4707  05CE  1903               	skipnz
  4708  05CF  2D98               	goto	i1l1996
  4709  05D0  3A01               	xorlw	1	; case 13
  4710  05D1  1903               	skipnz
  4711  05D2  2D9A               	goto	i1l2002
  4712  05D3  3A03               	xorlw	3	; case 14
  4713  05D4  1903               	skipnz
  4714  05D5  2D9C               	goto	i1l2008
  4715  05D6  3A01               	xorlw	1	; case 15
  4716  05D7  1903               	skipnz
  4717  05D8  2D9E               	goto	i1l2014
  4718  05D9  2DDA               	goto	i1l282
  4719  05DA                     i1l282:
  4720  05DA  0008               	return
  4721  05DB                     __end_of_ASCII:
  4722  007E                     btemp	set	126	;btemp
  4723  007E                     wtemp0	set	126
  4724                           
  4725                           	psect	config
  4726                           
  4727                           ;Config register CONFIG1 @ 0x2007
  4728                           ;	Oscillator Selection bits
  4729                           ;	FOSC = INTRC_NOCLKOUT, INTOSCIO oscillator: I/O function on RA6/OSC2/CLKOUT pin, I/O f
      +                          unction on RA7/OSC1/CLKIN
  4730                           ;	Watchdog Timer Enable bit
  4731                           ;	WDTE = OFF, WDT disabled and can be enabled by SWDTEN bit of the WDTCON register
  4732                           ;	Power-up Timer Enable bit
  4733                           ;	PWRTE = OFF, PWRT disabled
  4734                           ;	RE3/MCLR pin function select bit
  4735                           ;	MCLRE = OFF, RE3/MCLR pin function is digital input, MCLR internally tied to VDD
  4736                           ;	Code Protection bit
  4737                           ;	CP = OFF, Program memory code protection is disabled
  4738                           ;	Data Code Protection bit
  4739                           ;	CPD = OFF, Data memory code protection is disabled
  4740                           ;	Brown Out Reset Selection bits
  4741                           ;	BOREN = OFF, BOR disabled
  4742                           ;	Internal External Switchover bit
  4743                           ;	IESO = OFF, Internal/External Switchover mode is disabled
  4744                           ;	Fail-Safe Clock Monitor Enabled bit
  4745                           ;	FCMEN = OFF, Fail-Safe Clock Monitor is disabled
  4746                           ;	Low Voltage Programming Enable bit
  4747                           ;	LVP = OFF, RB3 pin has digital I/O, HV on MCLR must be used for programming
  4748                           ;	In-Circuit Debugger Mode bit
  4749                           ;	DEBUG = 0x1, unprogrammed default
  4750  2007                     	org	8199
  4751  2007  20D4               	dw	8404
  4752                           
  4753                           ;Config register CONFIG2 @ 0x2008
  4754                           ;	Brown-out Reset Selection bit
  4755                           ;	BOR4V = BOR40V, Brown-out Reset set to 4.0V
  4756                           ;	Flash Program Memory Self Write Enable bits
  4757                           ;	WRT = OFF, Write protection off
  4758  2008                     	org	8200
  4759  2008  3FFF               	dw	16383

Data Sizes:
    Strings     40
    Constant    0
    Data        0
    BSS         16
    Persistent  0
    Stack       0

Auto Spaces:
    Space          Size  Autos    Used
    COMMON           14     10      14
    BANK0            80     24      36
    BANK1            80      0       0
    BANK3            96      0       0
    BANK2            96      0       0

Pointer List with Targets:

    Lcd_Write_String@a	PTR unsigned char  size(1) Largest target is 5
		 -> STR_16(CODE[2]), STR_15(CODE[2]), STR_14(CODE[2]), STR_13(CODE[2]), 
		 -> STR_12(CODE[2]), STR_11(CODE[2]), STR_10(CODE[2]), STR_9(CODE[2]), 
		 -> STR_8(CODE[2]), STR_7(CODE[2]), STR_6(CODE[2]), STR_5(CODE[2]), 
		 -> STR_4(CODE[2]), STR_3(CODE[5]), STR_2(CODE[5]), STR_1(CODE[4]), 

    sp__Cambio	PTR const unsigned char  size(1) Largest target is 2
		 -> STR_16(CODE[2]), STR_15(CODE[2]), STR_14(CODE[2]), STR_13(CODE[2]), 
		 -> STR_12(CODE[2]), STR_11(CODE[2]), STR_10(CODE[2]), STR_9(CODE[2]), 
		 -> STR_8(CODE[2]), STR_7(CODE[2]), 


Critical Paths under _main in COMMON

    None.

Critical Paths under _isr in COMMON

    _isr->_Envio
    _Envio->_ASCII

Critical Paths under _main in BANK0

    _main->_Envio_Contador
    _Setup->_Lcd_Init
    _Lcd_Init->_Lcd_Cmd
    _Mappin_Temperature->_Envio_Temperatura
    _Envio_Temperatura->___awdiv
    _Envio_Contador->___awdiv
    _Conversiones->___awdiv
    ___awdiv->___wmul
    _Lcd_Write_String->_Lcd_Write_Char
    _Lcd_Write_Char->_Lcd_Port
    _Lcd_Set_Cursor->_Lcd_Cmd
    _Lcd_Cmd->_Lcd_Port

Critical Paths under _isr in BANK0

    None.

Critical Paths under _main in BANK1

    None.

Critical Paths under _isr in BANK1

    None.

Critical Paths under _main in BANK3

    None.

Critical Paths under _isr in BANK3

    None.

Critical Paths under _main in BANK2

    None.

Critical Paths under _isr in BANK2

    None.

Call Graph Tables:

 ---------------------------------------------------------------------------------
 (Depth) Function   	        Calls       Base Space   Used Autos Params    Refs
 ---------------------------------------------------------------------------------
 (0) _main                                                 2     2      0   19139
                                             22 BANK0      2     2      0
                       _Conversiones
                     _Envio_Contador
                     _Lcd_Set_Cursor
                   _Lcd_Write_String
                 _Mappin_Temperature
                              _Setup
                            _spiRead
                           _spiWrite
 ---------------------------------------------------------------------------------
 (1) _spiWrite                                             1     1      0      22
                                              0 BANK0      1     1      0
 ---------------------------------------------------------------------------------
 (1) _spiRead                                              0     0      0       0
                     _spiReceiveWait
 ---------------------------------------------------------------------------------
 (2) _spiReceiveWait                                       0     0      0       0
 ---------------------------------------------------------------------------------
 (1) _Setup                                                0     0      0     448
                           _Lcd_Init
                            _initOsc
                           _initUART
                            _spiInit
 ---------------------------------------------------------------------------------
 (2) _spiInit                                              4     1      3     360
                                              0 BANK0      4     1      3
 ---------------------------------------------------------------------------------
 (2) _initUART                                             0     0      0       0
 ---------------------------------------------------------------------------------
 (2) _initOsc                                              3     3      0      22
                                              0 BANK0      3     3      0
 ---------------------------------------------------------------------------------
 (2) _Lcd_Init                                             2     2      0      66
                                              4 BANK0      2     2      0
                            _Lcd_Cmd
                           _Lcd_Port
 ---------------------------------------------------------------------------------
 (1) _Mappin_Temperature                                   2     2      0    7913
                                             19 BANK0      2     2      0
                  _Envio_Temperatura
                     _Lcd_Set_Cursor
                   _Lcd_Write_String
                            ___awdiv
                             ___wmul
 ---------------------------------------------------------------------------------
 (2) _Envio_Temperatura                                    4     4      0    3872
                                             15 BANK0      4     4      0
                             _Cambio
                     _Lcd_Set_Cursor
                   _Lcd_Write_String
                            ___awdiv
                             ___bmul
 ---------------------------------------------------------------------------------
 (1) _Envio_Contador                                       7     7      0    3985
                                             15 BANK0      7     7      0
                             _Cambio
                     _Lcd_Set_Cursor
                   _Lcd_Write_String
                            ___awdiv
                             ___bmul
 ---------------------------------------------------------------------------------
 (3) ___bmul                                               4     3      1     396
                                              0 BANK0      4     3      1
 ---------------------------------------------------------------------------------
 (1) _Conversiones                                         4     4      0    4642
                                             15 BANK0      4     4      0
                             _Cambio
                     _Lcd_Set_Cursor
                   _Lcd_Write_String
                            ___awdiv
                            ___lwdiv
                             ___wmul
 ---------------------------------------------------------------------------------
 (2) ___wmul                                               6     2      4     700
                                              0 BANK0      6     2      4
 ---------------------------------------------------------------------------------
 (2) ___lwdiv                                              8     4      4     466
                                              0 BANK0      8     4      4
 ---------------------------------------------------------------------------------
 (2) ___awdiv                                              9     5      4    1212
                                              6 BANK0      9     5      4
                             ___wmul (ARG)
 ---------------------------------------------------------------------------------
 (2) _Lcd_Write_String                                     3     3      0     629
                                              3 BANK0      3     3      0
                     _Lcd_Write_Char
 ---------------------------------------------------------------------------------
 (3) _Lcd_Write_Char                                       2     2      0      44
                                              1 BANK0      2     2      0
                           _Lcd_Port
 ---------------------------------------------------------------------------------
 (2) _Lcd_Set_Cursor                                       2     1      1    1500
                                              4 BANK0      2     1      1
                            _Lcd_Cmd
 ---------------------------------------------------------------------------------
 (3) _Lcd_Cmd                                              3     3      0      44
                                              1 BANK0      3     3      0
                           _Lcd_Port
 ---------------------------------------------------------------------------------
 (3) _Lcd_Port                                             1     1      0      22
                                              0 BANK0      1     1      0
 ---------------------------------------------------------------------------------
 (3) _Cambio                                               3     3      0      22
                                              0 BANK0      3     3      0
 ---------------------------------------------------------------------------------
 Estimated maximum stack depth 3
 ---------------------------------------------------------------------------------
 (Depth) Function   	        Calls       Base Space   Used Autos Params    Refs
 ---------------------------------------------------------------------------------
 (6) _isr                                                  4     4      0      68
                                              6 COMMON     4     4      0
                              _Envio
 ---------------------------------------------------------------------------------
 (7) _Envio                                                3     3      0      68
                                              3 COMMON     3     3      0
                              _ASCII
 ---------------------------------------------------------------------------------
 (8) _ASCII                                                3     3      0      22
                                              0 COMMON     3     3      0
 ---------------------------------------------------------------------------------
 Estimated maximum stack depth 8
 ---------------------------------------------------------------------------------

 Call Graph Graphs:

 _main (ROOT)
   _Conversiones
     _Cambio
     _Lcd_Set_Cursor
       _Lcd_Cmd
         _Lcd_Port
     _Lcd_Write_String
       _Lcd_Write_Char
         _Lcd_Port
     ___awdiv
       ___wmul (ARG)
     ___lwdiv
     ___wmul
   _Envio_Contador
     _Cambio
     _Lcd_Set_Cursor
       _Lcd_Cmd
         _Lcd_Port
     _Lcd_Write_String
       _Lcd_Write_Char
         _Lcd_Port
     ___awdiv
       ___wmul (ARG)
     ___bmul
   _Lcd_Set_Cursor
     _Lcd_Cmd
       _Lcd_Port
   _Lcd_Write_String
     _Lcd_Write_Char
       _Lcd_Port
   _Mappin_Temperature
     _Envio_Temperatura
       _Cambio
       _Lcd_Set_Cursor
         _Lcd_Cmd
           _Lcd_Port
       _Lcd_Write_String
         _Lcd_Write_Char
           _Lcd_Port
       ___awdiv
         ___wmul (ARG)
       ___bmul
     _Lcd_Set_Cursor
       _Lcd_Cmd
         _Lcd_Port
     _Lcd_Write_String
       _Lcd_Write_Char
         _Lcd_Port
     ___awdiv
       ___wmul (ARG)
     ___wmul
   _Setup
     _Lcd_Init
       _Lcd_Cmd
         _Lcd_Port
       _Lcd_Port
     _initOsc
     _initUART
     _spiInit
   _spiRead
     _spiReceiveWait
   _spiWrite

 _isr (ROOT)
   _Envio
     _ASCII

 Address spaces:
Name               Size   Autos  Total    Cost      Usage
BITCOMMON            E      0       0       0        0.0%
EEDATA             100      0       0       0        0.0%
NULL                 0      0       0       0        0.0%
CODE                 0      0       0       0        0.0%
COMMON               E      A       E       1      100.0%
BITSFR0              0      0       0       1        0.0%
SFR0                 0      0       0       1        0.0%
BITSFR1              0      0       0       2        0.0%
SFR1                 0      0       0       2        0.0%
STACK                0      0       0       2        0.0%
ABS                  0      0      32       3        0.0%
BITBANK0            50      0       0       4        0.0%
BITSFR3              0      0       0       4        0.0%
SFR3                 0      0       0       4        0.0%
BANK0               50     18      24       5       45.0%
BITSFR2              0      0       0       5        0.0%
SFR2                 0      0       0       5        0.0%
BITBANK1            50      0       0       6        0.0%
BANK1               50      0       0       7        0.0%
BITBANK3            60      0       0       8        0.0%
BANK3               60      0       0       9        0.0%
BITBANK2            60      0       0      10        0.0%
BANK2               60      0       0      11        0.0%
DATA                 0      0      32      12        0.0%


Microchip Technology PIC Macro Assembler V2.31 build 20201012212115 
Symbol Table                                                                                   Mon Feb 15 15:55:32 2021

                          l6 04C6                            l7 051E                            l8 04CC  
                          l9 04D2                            pc 0002               ___bmul@product 0022  
             _Envio_Contador 0297                  _SSPSTATbits 0094                           l10 04D8  
                         l11 04DE                           l12 04E4                           l13 04EA  
                         l14 04F0                           l15 04F6                           l16 051F  
               ___awdiv@sign 002C                           fsr 0004          ___wmul@multiplicand 0022  
                        l210 07E6                          l202 07F3                          l133 0224  
                        l222 079A                          l142 069C                          l134 028D  
                        l231 077F                          l135 0243                          l136 025E  
                        l145 0111                          l410 07C9                          l234 057D  
                        l219 07F9                          l243 06F3                          l237 07B2  
                        l173 0458                          l254 0661                          l168 0342  
                        l176 03E8                          l192 075C                          l193 0761  
                        l196 07E7                          l277 07DD                          l199 07ED  
                        l384 072B                          l537 04C1                          l386 0743  
                        l656 0620                          u400 046B                          u401 046A  
                        u410 047C                          u411 047B                          u340 076A  
                        u500 07ED                          u341 0769                          u501 07EC  
                        u350 0778                          u430 048E                          u510 0725  
                        u351 0777                          u431 048D                          u511 0724  
                        u360 06F3                          u361 06F2                          u425 0480  
                        u450 049F                          u610 061C                          u370 07BB  
                        u451 049E                          u611 061B                          u371 07BA  
                        u540 073F                          u380 07C8                          u445 048F  
                        u605 0610                          u541 073E                          u525 072C  
                        u381 07C7                          u470 04B3                          u390 0460  
                        u550 05E5                          u630 0418                          u471 04B2  
                        u455 049B                          u391 045F                          u551 05E4  
                        u535 0733                          u631 0417                          u480 04B8  
                        u481 04B7                          u465 04A7                          u570 05F7  
                        u490 0750                          u571 05F6                          u707 0556  
                        u491 074F                          u660 0223                          u717 07AC  
                        u565 05E9                          u661 0222                          u590 0608  
                        u727 0793                          u591 0607                          u585 05F8  
                        u595 0604                          u677 0526                          u687 0536  
                        u697 0547                          _isr 06F4                          fsr0 0004  
                       l2030 0349                         l2040 03A3                         l2032 035F  
                       l2050 03DC                         l2042 03AE                         l2034 036F  
                       l2060 0732                         l2300 0304                         l2044 03BA  
                       l2036 0385                         l2028 0343                         l2052 07E7  
                       l2070 05DF                         l2062 0739                         l2054 071D  
                       l2302 0310                         l2046 03C5                         l2038 0399  
                       l2310 03E9                         l2230 0673                         l2080 05F7  
                       l2072 05E5                         l2064 073F                         l2056 0721  
                       l2304 031D                         l2048 03D1                         l2320 042D  
                       l2312 0414                         l2240 0678                         l2232 0674  
                       l2082 0608                         l2074 05E8                         l2090 061C  
                       l2058 0725                         l2306 0329                         l2330 044D  
                       l2322 0432                         l2314 0418                         l2250 068A  
                       l2242 0679                         l2234 0675                         l2226 0662  
                       l1700 0784                         l2084 060E                         l2076 05EF  
                       l2068 05DB                         l2308 0336                         l2332 0452  
                       l2316 041D                         l2324 0439                         l2252 0695  
                       l2244 067A                         l2236 0676                         l2228 0671  
                       l2260 07E3                         l1702 078A                         l1710 079F  
                       l2086 060F                         l2078 05F3                         l2270 00B4  
                       l2326 043D                         l2318 0427                         l2254 0698  
                       l2246 0680                         l2238 0677                         l2350 01E2  
                       l1704 078D                         l1720 076A                         l1712 07A5  
                       l2088 0616                         l2280 00EC                         l2272 00C1  
                       l2264 0027                         l2328 0447                         l2248 0685  
                       l2256 07F1                         l2520 0282                         l2360 021B  
                       l2352 01E7                         l1706 0797                         l1722 0772  
                       l1714 07A8                         l1730 06DE                         l2282 00F8  
                       l2274 00CD                         l2266 00A8                         l1810 07BB  
                       l2290 02B3                         l2522 0504                         l2258 07DE  
                       l2370 0246                         l2354 01F1                         l2524 0641  
                       l1724 0778                         l1716 07AF                         l1708 079E  
                       l1732 06E6                         l1820 0459                         l2284 0105  
                       l2276 00D3                         l2268 00AC                         l1812 07BF  
                       l2292 02C3                         l1900 07D2                         l2380 0271  
                       l2372 0256                         l2364 0227                         l2356 0203  
                       l1742 0627                         l1734 0624                         l1718 0765  
                       l1726 06CE                         l1830 046B                         l1822 045C  
                       l2278 00DF                         l1814 07C1                         l1806 07B6  
                       l2294 02D9                         l2286 0297                         l1910 07DC  
                       l1902 07D6                         l2382 0276                         l2374 0258  
                       l2366 0237                         l2358 0209                         l1760 062D  
                       l1736 0625                         l1728 06D1                         l1840 047F  
                       l1832 0470                         l1824 0460                         l1816 07C8  
                       l1808 07B7                         l2296 02ED                         l2288 029D  
                       l1904 07D7                         l1920 075B                         l1912 0747  
                       l2368 023C                         l1754 062B                         l1850 04A5  
                       l1842 0486                         l1834 0474                         l1826 0465  
                       l2298 02F7                         l1906 07D8                         l1914 0750  
                       l2378 0261                         l2386 027A                         l1772 0631  
                       l1748 0629                         l1860 04BD                         l1852 04A6  
                       l1844 048A                         l1836 0476                         l1828 0467  
                       l1908 07DB                         l1916 0754                         l2388 0290  
                       l1790 0637                         l1766 062F                         l1854 04AD  
                       l1846 048E                         l1838 047C                         l1918 0756  
                       l1784 0635                         l1696 07F7                         l1848 049F  
                       l1856 04B3                         l1880 0530                         l1864 04C5  
                       l1778 0633                         l1698 0783                         l1858 04B8  
                       l1890 0565                         l1882 0541                         l1892 056B  
                       l1884 054C                         l1876 0520                         l1868 04FC  
                       l1798 0639                         l1894 0571                         l1886 0559  
                       l1878 052A                         l1896 0577                         l1888 055F  
                       l1898 07CA                         ?_isr 0070                         STR_1 06AD  
                       STR_2 06A8                         STR_3 06A3                         STR_4 06C9  
                       STR_5 06C7                         STR_6 06C5                         STR_7 06B1  
                       STR_8 06B3                         STR_9 06B5                         _TMR0 0001  
          ?_Lcd_Write_String 0070                         _main 01E2                         btemp 007E  
             ??_Conversiones 002F                         start 000E           ??_Lcd_Write_String 0023  
            __end_of_Lcd_Cmd 079B            ___bmul@multiplier 0023       __end_of_Envio_Contador 0343  
__size_of_Mappin_Temperature 0070                        ??_isr 0076                        ?_main 0070  
            __end_of___awdiv 04C2                        STR_10 06B7                        STR_11 06B9  
                      STR_12 06BB                        STR_13 06BD                        STR_14 06BF  
                      STR_15 06C1                        STR_16 06C3                        _ASCII 057E  
                      _ANSEL 0188              ___awdiv@divisor 0026              __end_of___lwdiv 0621  
                      i1l125 0714                        i1l150 01E1                        i1l282 05DA  
            ___awdiv@counter 002B                        _SIGNO 0038                        _SPBRG 0099  
                      _PORTA 0005                        _PORTB 0006                        _PORTC 0007  
                      _PORTD 0008                        _PORTE 0009                        u62_25 0151  
                      u64_20 06F9                        u64_21 06F8                        u65_20 0708  
                      u65_21 0707      __size_of_Lcd_Set_Cursor 001E                        _TRISA 0085  
                      _TRISB 0086                        _TRISC 0087                        _TRISD 0088  
                      _TRISE 0089                        _TXREG 0019                        _Envio 0112  
                      _Setup 0662              __end_of_initOsc 0520                        pclath 000A  
            __end_of_spiInit 0762              __end_of_spiRead 07E7                        status 0003  
                      wtemp0 007E             __end_of_Lcd_Init 057E             __end_of_Lcd_Port 07FA  
            __initialization 0011              ?_Envio_Contador 0070                 __end_of_main 0297  
                     ??_main 0036                       ?_ASCII 0070                       ?_Envio 0070  
                     ?_Setup 0070                  initOsc@IRCF 0022             ___awdiv@dividend 0028  
                     _ANSELH 0189                       _FLAGSS 003F                       _FLAGTX 007D  
                     i1l2002 059A                       i1l2014 059E                       i1l2022 05A0  
                     i1l2008 059C                       i1l2120 012C                       i1l2112 0126  
                     i1l2104 0119                       i1l2210 01A7                       i1l2202 01A1  
                     i1l2130 013D                       i1l2122 0130                       i1l2114 012A  
                     i1l2106 011D                       i1l2212 01A8                       i1l2204 01A5  
                     i1l2220 01AA                       i1l2152 0166                       i1l2144 014C  
                     i1l2136 0146                       i1l2128 0139                       i1l2170 0178  
                     i1l2154 016D                       i1l2146 015F                       i1l2138 014A  
                     i1l2180 0184                       i1l2172 017C                       i1l2156 0171  
                     i1l2340 0701                       i1l2094 0112                       i1l2342 0702  
                     i1l2334 06F4                       i1l2096 0113                       i1l2344 0708  
                     i1l2336 06F9                       i1l2194 0196                       i1l2186 018B  
                     i1l2178 0180                       i1l2098 0117                       i1l2346 0710  
                     i1l2338 06FD                       i1l2196 019A                       i1l2188 018F  
                     i1l2348 0713                       i1l2526 01B2                       i1l2528 05A8  
                     i1l1930 0582                       i1l1922 057F                       i1l1924 0580  
                     i1l1942 0586                       i1l1960 058C                       i1l1936 0584  
                     i1l1954 058A                       i1l1972 0590                       i1l1948 0588  
                     i1l1990 0596                       i1l1966 058E                       i1l1984 0594  
                     i1l1978 0592                       i1l1996 0598                    ??_Lcd_Cmd 0021  
                     _SPBRGH 009A                       _PRUEBA 0042                       _WDTCON 0105  
    __size_of_Lcd_Write_Char 0018                       _TRISC3 043B                       _TRISC5 043D  
                     _SSPCON 0014                       _SSPBUF 0013                       _Cambio 0621  
                     ___bmul 07B3                       ___wmul 071D                    ??___awdiv 002A  
           __end_of_initUART 07DE                    ??___lwdiv 0024             ___awdiv@quotient 002D  
                  ??_initOsc 0020         __end_of_Conversiones 0112                       saved_w 007E  
           __end_of_spiWrite 07F4                    ??_spiInit 0023                    ??_spiRead 0020  
            Lcd_Set_Cursor@a 0025              Lcd_Set_Cursor@b 0024                Envio@temporal 0075  
    __end_of__initialization 0023                __end_of_ASCII 05DB                 _decimas_temp 007B  
        ___bmul@multiplicand 0020                __end_of_Envio 01E2               __pcstackCOMMON 0070  
              __end_of_Setup 069D            _Envio_Temperatura 0343                      ??_ASCII 0070  
             _Lcd_Set_Cursor 0762           ?_Envio_Temperatura 0070                      ??_Envio 0073  
                    ??_Setup 0026                    ?_Lcd_Init 0070                    ?_Lcd_Port 0070  
        ??_Envio_Temperatura 002F                   __pbssBANK0 0038                      ?_Cambio 0070  
                 __pmaintext 01E2                      ?___bmul 0020                      ?___wmul 0020  
                 __pintentry 0004    __end_of_Envio_Temperatura 03E9      __size_of_spiReceiveWait 0007  
  __size_of_Lcd_Write_String 0029       __end_of_Lcd_Set_Cursor 0780                      _COUNTER 003E  
               Cambio@numero 0022                 _centimas_adc 0039                   ??_Lcd_Init 0024  
                    _VAR_ADC 0041                   ??_Lcd_Port 0020                      _SSPSTAT 0094  
                 __stringtab 069D                    ?_initUART 0070               _Lcd_Write_Char 079B  
                    _Lcd_Cmd 0780             ??_Envio_Contador 002F              __size_of_Cambio 0041  
 __end_of_Mappin_Temperature 0459                    ?_spiWrite 0070              __size_of___bmul 0017  
                    ___awdiv 0459              __size_of___wmul 0027                      ___lwdiv 05DB  
                 ASCII@valor 0072        __size_of_Conversiones 00EB              ?_Lcd_Set_Cursor 0024  
                    __ptext1 07EE                      __ptext2 07DE                      __ptext3 07E7  
                    __ptext4 0662                      __ptext5 0744                      __ptext6 07CA  
                    __ptext7 04C2                      __ptext8 0520                      __ptext9 03E9  
                    _initOsc 04C2                 __size_of_isr 0029                      _spiInit 0744  
                    _spiRead 07DE       __end_of_Lcd_Write_Char 07B3         end_of_initialization 0023  
                 ??_initUART 0020                 _Conversiones 0027                    _RCSTAbits 0018  
                 ??_spiWrite 0020                    Lcd_Port@a 0020   __size_of_Envio_Temperatura 00A6  
                  _PORTCbits 0007                    _PORTEbits 0009                  spiWrite@dat 0020  
            ?_Lcd_Write_Char 0070            Lcd_Write_String@a 0025            Lcd_Write_String@i 0023  
                  _TXSTAbits 0098               __end_of_Cambio 0662               _spiReceiveWait 07E7  
             __end_of___bmul 07CA               __end_of___wmul 0744             _Lcd_Write_String 06CB  
                _BAUDCTLbits 0187          start_initialization 0011                  __end_of_isr 071D  
     Envio_Contador@centimas 0032            __size_of_Lcd_Init 005E            __size_of_Lcd_Port 0006  
                   ??_Cambio 0020       __end_of_spiReceiveWait 07EE                     ??___bmul 0021  
                   ??___wmul 0024       Envio_Contador@temporal 0035       Envio_Contador@unidades 0033  
            Lcd_Write_Char@a 0022                  _decimas_adc 003A                  __pbssCOMMON 007A  
                  ___latbits 0002                __pcstackBANK0 0020                     ?_Lcd_Cmd 0070  
          __size_of_initUART 0014             ___lwdiv@dividend 0022              ?_spiReceiveWait 0070  
           ??_Lcd_Set_Cursor 0025                     ?___awdiv 0026                     ?___lwdiv 0020  
          __size_of_spiWrite 0006                    __pstrings 069D           _Mappin_Temperature 03E9  
             __size_of_ASCII 005D    Envio_Temperatura@temporal 0032                     ?_initOsc 0070  
             __size_of_Envio 00D0                     ?_spiInit 0020                     ?_spiRead 0070  
             __size_of_Setup 003B          ?_Mappin_Temperature 0070             ___lwdiv@quotient 0025  
                   _CONTADOR 0040         spiInit@sTransmitEdge 0022            interrupt_function 0004  
             ___wmul@product 0024                _centimas_temp 007A                     _PIE1bits 008C  
         spiInit@sDataSample 0020                     Lcd_Cmd@a 0023                     _PIR1bits 000C  
       ??_Mappin_Temperature 0033                  __stringbase 06A2            ___wmul@multiplier 0020  
           ??_Lcd_Write_Char 0021                     _Lcd_Init 0520                     _Lcd_Port 07F4  
   __end_of_Lcd_Write_String 06F4        Envio_Contador@decimas 0034             __size_of_Lcd_Cmd 001B  
           __size_of___awdiv 0069      __size_of_Envio_Contador 00AC             __size_of___lwdiv 0046  
         __end_of__stringtab 06A3             __size_of_initOsc 005E              ___lwdiv@divisor 0020  
            ___lwdiv@counter 0027                     __ptext10 0343                     __ptext11 0297  
                   __ptext20 0780                     __ptext12 07B3                     __ptext21 07F4  
                   __ptext13 0027                     __ptext22 0621                     __ptext14 071D  
                   __ptext23 06F4                     __ptext15 05DB                     __ptext24 0112  
                   __ptext16 0459                     __ptext25 057E                     __ptext17 06CB  
                   __ptext18 079B                     __ptext19 0762             __size_of_spiInit 001E  
           __size_of_spiRead 0009                     _initUART 07CA                __size_of_main 00B5  
          _TEMPERATURA_FINAL 003C                     _spiWrite 07EE                  _TEMPERATURA 003D  
               spiInit@sType 0023            spiInit@sClockIdle 0021                   _INTCONbits 000B  
                   intlevel1 0000             ??_spiReceiveWait 0020                    stringcode 069D  
                 _OSCCONbits 008F         Conversiones@temporal 0031                   _OPTION_REG 0081  
                   stringdir 069D                     stringtab 069D                _unidades_temp 007C  
               _unidades_adc 003B                ?_Conversiones 0070  
